ARM GAS  C:\Users\SYFO\AppData\Local\Temp\ccZGdMB4.s 			page 1


   1              		.syntax unified
   2              		.cpu cortex-m3
   3              		.fpu softvfp
   4              		.eabi_attribute 20, 1
   5              		.eabi_attribute 21, 1
   6              		.eabi_attribute 23, 3
   7              		.eabi_attribute 24, 1
   8              		.eabi_attribute 25, 1
   9              		.eabi_attribute 26, 1
  10              		.eabi_attribute 30, 6
  11              		.eabi_attribute 34, 1
  12              		.eabi_attribute 18, 4
  13              		.thumb
  14              		.syntax unified
  15              		.file	"main.c"
  16              		.text
  17              	.Ltext0:
  18              		.cfi_sections	.debug_frame
  19              		.global	range_value
  20              		.bss
  21              		.align	1
  22              		.type	range_value, %object
  23              		.size	range_value, 2
  24              	range_value:
  25 0000 0000     		.space	2
  26              		.section	.rodata
  27              		.align	2
  28              	.LC0:
  29 0000 446F6E65 		.ascii	"Done intializing UART and I2C!\015\012\000"
  29      20696E74 
  29      69616C69 
  29      7A696E67 
  29      20554152 
  30 0021 000000   		.align	2
  31              	.LC1:
  32 0024 2D2D2D2D 		.ascii	"------ SONAR RANGE DATA ------\015\012Range: %d cm\015"
  32      2D2D2053 
  32      4F4E4152 
  32      2052414E 
  32      47452044 
  33 0051 0A00     		.ascii	"\012\000"
  34              		.section	.text.main,"ax",%progbits
  35              		.align	2
  36              		.global	main
  37              		.thumb
  38              		.thumb_func
  39              		.type	main, %function
  40              	main:
  41              	.LFB64:
  42              		.file 1 "main.c"
   1:main.c        **** /* ========================================
   2:main.c        ****  *
   3:main.c        ****  * Copyright Nicklas Grunert, 2019
   4:main.c        ****  * All Rights Reserved
   5:main.c        ****  * UNPUBLISHED, LICENSED SOFTWARE.
   6:main.c        ****  *
   7:main.c        ****  * CONFIDENTIAL AND PROPRIETARY INFORMATION
ARM GAS  C:\Users\SYFO\AppData\Local\Temp\ccZGdMB4.s 			page 2


   8:main.c        ****  * WHICH IS THE PROPERTY OF Nicklas Grunert.
   9:main.c        ****  *
  10:main.c        ****  * ========================================
  11:main.c        **** */
  12:main.c        **** #include "project.h"
  13:main.c        **** #include "stdio.h"
  14:main.c        **** 
  15:main.c        **** /*ADRESSES FOR I2C-COMMUNICATION WITH MP1202*/
  16:main.c        **** #define MP1202_ADD      (0x70)      // 7-bit Device / Slave address
  17:main.c        **** #define RANGE_COMMAND   (81)        // Range reader command
  18:main.c        **** #define RANGE_BYTES     (2)         // Number of bytes to read from reg-address
  19:main.c        **** 
  20:main.c        **** /*ADDITIONAL MACROS*/
  21:main.c        **** #define WAIT_DELAY      (250)       // Delay in ms     
  22:main.c        **** #define CLEAR_SCREEN    "\x1b[2J"   // Clears terminal when printed
  23:main.c        **** 
  24:main.c        **** /*Variable for sonar-sensor*/
  25:main.c        **** int16_t range_value = 0.0f;
  26:main.c        **** 
  27:main.c        **** /*TODO: PUT IN HEADER!!*/
  28:main.c        **** void I2CReadBytes(uint8_t devAddr, uint8_t regAddr, uint8_t length, uint8_t *value);
  29:main.c        **** void I2CWriteBytes(uint8_t devAddr, uint8_t regAddr, uint8_t length, uint8_t *value);
  30:main.c        **** void I2CWriteByte(uint8_t devAddr, uint8_t regAddr, uint8_t value);
  31:main.c        **** void readSonarSensor(int16_t *range);
  32:main.c        **** 
  33:main.c        **** int main(void)
  34:main.c        **** {
  43              		.loc 1 34 0
  44              		.cfi_startproc
  45              		@ args = 0, pretend = 0, frame = 256
  46              		@ frame_needed = 1, uses_anonymous_args = 0
  47 0000 80B5     		push	{r7, lr}
  48              		.cfi_def_cfa_offset 8
  49              		.cfi_offset 7, -8
  50              		.cfi_offset 14, -4
  51 0002 C0B0     		sub	sp, sp, #256
  52              		.cfi_def_cfa_offset 264
  53 0004 00AF     		add	r7, sp, #0
  54              		.cfi_def_cfa_register 7
  35:main.c        ****     CyGlobalIntEnable; /* Enable global interrupts. */
  55              		.loc 1 35 0
  56              		.syntax unified
  57              	@ 35 "main.c" 1
  58 0006 62B6     		CPSIE   i
  59              	@ 0 "" 2
  36:main.c        ****     UART_1_Start();
  60              		.loc 1 36 0
  61              		.thumb
  62              		.syntax unified
  63 0008 FFF7FEFF 		bl	UART_1_Start
  37:main.c        ****     Clock_Start();
  64              		.loc 1 37 0
  65 000c FFF7FEFF 		bl	Clock_Start
  38:main.c        ****     I2C_1_Start();
  66              		.loc 1 38 0
  67 0010 FFF7FEFF 		bl	I2C_1_Start
  39:main.c        ****     char buf[255];
ARM GAS  C:\Users\SYFO\AppData\Local\Temp\ccZGdMB4.s 			page 3


  40:main.c        ****     UART_1_PutString("Done intializing UART and I2C!\r\n");
  68              		.loc 1 40 0
  69 0014 0B48     		ldr	r0, .L3
  70 0016 FFF7FEFF 		bl	UART_1_PutString
  71              	.L2:
  41:main.c        ****         
  42:main.c        ****     for(;;)
  43:main.c        ****     {
  44:main.c        ****         /*Read data from gyrosensor with I2C*/
  45:main.c        ****         readSonarSensor(&range_value);
  72              		.loc 1 45 0 discriminator 1
  73 001a 0B48     		ldr	r0, .L3+4
  74 001c FFF7FEFF 		bl	readSonarSensor
  46:main.c        ****         
  47:main.c        ****         //UART_1_PutString(CLEAR_SCREEN);
  48:main.c        ****         
  49:main.c        ****         /*Print out range in cm*/
  50:main.c        ****         sprintf(buf,"------ SONAR RANGE DATA ------\r\nRange: %d cm\r\n",
  75              		.loc 1 50 0 discriminator 1
  76 0020 094B     		ldr	r3, .L3+4
  77 0022 B3F90030 		ldrsh	r3, [r3]
  78 0026 1A46     		mov	r2, r3
  79 0028 3B46     		mov	r3, r7
  80 002a 0849     		ldr	r1, .L3+8
  81 002c 1846     		mov	r0, r3
  82 002e FFF7FEFF 		bl	sprintf
  51:main.c        ****             range_value
  52:main.c        ****         );
  53:main.c        ****         UART_1_PutString(buf);
  83              		.loc 1 53 0 discriminator 1
  84 0032 3B46     		mov	r3, r7
  85 0034 1846     		mov	r0, r3
  86 0036 FFF7FEFF 		bl	UART_1_PutString
  54:main.c        ****         
  55:main.c        ****         //UART_1_PutString(CLEAR_SCREEN);
  56:main.c        ****         /*Delay so it is possible to read the data!*/
  57:main.c        ****         CyDelay(WAIT_DELAY);
  87              		.loc 1 57 0 discriminator 1
  88 003a FA20     		movs	r0, #250
  89 003c FFF7FEFF 		bl	CyDelay
  58:main.c        ****     }
  90              		.loc 1 58 0 discriminator 1
  91 0040 EBE7     		b	.L2
  92              	.L4:
  93 0042 00BF     		.align	2
  94              	.L3:
  95 0044 00000000 		.word	.LC0
  96 0048 00000000 		.word	range_value
  97 004c 24000000 		.word	.LC1
  98              		.cfi_endproc
  99              	.LFE64:
 100              		.size	main, .-main
 101              		.section	.text.I2CWriteBytes,"ax",%progbits
 102              		.align	2
 103              		.global	I2CWriteBytes
 104              		.thumb
 105              		.thumb_func
ARM GAS  C:\Users\SYFO\AppData\Local\Temp\ccZGdMB4.s 			page 4


 106              		.type	I2CWriteBytes, %function
 107              	I2CWriteBytes:
 108              	.LFB65:
  59:main.c        ****     
  60:main.c        **** }
  61:main.c        **** 
  62:main.c        **** void I2CWriteBytes(uint8_t device_add, uint8_t reg_add, uint8_t nobytes, uint8_t *data) {
 109              		.loc 1 62 0
 110              		.cfi_startproc
 111              		@ args = 0, pretend = 0, frame = 16
 112              		@ frame_needed = 1, uses_anonymous_args = 0
 113 0000 80B5     		push	{r7, lr}
 114              		.cfi_def_cfa_offset 8
 115              		.cfi_offset 7, -8
 116              		.cfi_offset 14, -4
 117 0002 84B0     		sub	sp, sp, #16
 118              		.cfi_def_cfa_offset 24
 119 0004 00AF     		add	r7, sp, #0
 120              		.cfi_def_cfa_register 7
 121 0006 3B60     		str	r3, [r7]
 122 0008 0346     		mov	r3, r0
 123 000a FB71     		strb	r3, [r7, #7]
 124 000c 0B46     		mov	r3, r1
 125 000e BB71     		strb	r3, [r7, #6]
 126 0010 1346     		mov	r3, r2
 127 0012 7B71     		strb	r3, [r7, #5]
  63:main.c        ****     
  64:main.c        ****     uint8_t i=0;    //Index for loop
 128              		.loc 1 64 0
 129 0014 0023     		movs	r3, #0
 130 0016 FB73     		strb	r3, [r7, #15]
  65:main.c        ****     
  66:main.c        ****     /*Send start condition*/
  67:main.c        ****     I2C_1_MasterSendStart(device_add, I2C_1_WRITE_XFER_MODE);
 131              		.loc 1 67 0
 132 0018 FB79     		ldrb	r3, [r7, #7]	@ zero_extendqisi2
 133 001a 0021     		movs	r1, #0
 134 001c 1846     		mov	r0, r3
 135 001e FFF7FEFF 		bl	I2C_1_MasterSendStart
  68:main.c        ****     
  69:main.c        ****     /*Begin writing to register address*/
  70:main.c        ****     I2C_1_MasterWriteByte(reg_add);
 136              		.loc 1 70 0
 137 0022 BB79     		ldrb	r3, [r7, #6]	@ zero_extendqisi2
 138 0024 1846     		mov	r0, r3
 139 0026 FFF7FEFF 		bl	I2C_1_MasterWriteByte
  71:main.c        ****     
  72:main.c        ****     while (i++ < nobytes) 
 140              		.loc 1 72 0
 141 002a 06E0     		b	.L6
 142              	.L7:
  73:main.c        ****     {
  74:main.c        ****         /*Keep writing bytes untill nobytes is reached*/
  75:main.c        ****         I2C_1_MasterWriteByte(*data++);
 143              		.loc 1 75 0
 144 002c 3B68     		ldr	r3, [r7]
 145 002e 5A1C     		adds	r2, r3, #1
ARM GAS  C:\Users\SYFO\AppData\Local\Temp\ccZGdMB4.s 			page 5


 146 0030 3A60     		str	r2, [r7]
 147 0032 1B78     		ldrb	r3, [r3]	@ zero_extendqisi2
 148 0034 1846     		mov	r0, r3
 149 0036 FFF7FEFF 		bl	I2C_1_MasterWriteByte
 150              	.L6:
  72:main.c        ****     {
 151              		.loc 1 72 0
 152 003a FB7B     		ldrb	r3, [r7, #15]	@ zero_extendqisi2
 153 003c 5A1C     		adds	r2, r3, #1
 154 003e FA73     		strb	r2, [r7, #15]
 155 0040 7A79     		ldrb	r2, [r7, #5]	@ zero_extendqisi2
 156 0042 9A42     		cmp	r2, r3
 157 0044 F2D8     		bhi	.L7
  76:main.c        ****     }
  77:main.c        ****     
  78:main.c        ****     /*Send stop condition*/
  79:main.c        ****     I2C_1_MasterSendStop();
 158              		.loc 1 79 0
 159 0046 FFF7FEFF 		bl	I2C_1_MasterSendStop
  80:main.c        **** }
 160              		.loc 1 80 0
 161 004a 00BF     		nop
 162 004c 1037     		adds	r7, r7, #16
 163              		.cfi_def_cfa_offset 8
 164 004e BD46     		mov	sp, r7
 165              		.cfi_def_cfa_register 13
 166              		@ sp needed
 167 0050 80BD     		pop	{r7, pc}
 168              		.cfi_endproc
 169              	.LFE65:
 170              		.size	I2CWriteBytes, .-I2CWriteBytes
 171 0052 00BF     		.section	.text.I2CWriteByte,"ax",%progbits
 172              		.align	2
 173              		.global	I2CWriteByte
 174              		.thumb
 175              		.thumb_func
 176              		.type	I2CWriteByte, %function
 177              	I2CWriteByte:
 178              	.LFB66:
  81:main.c        **** 
  82:main.c        **** void I2CWriteByte(uint8_t device_add, uint8_t reg_add, uint8_t data) {
 179              		.loc 1 82 0
 180              		.cfi_startproc
 181              		@ args = 0, pretend = 0, frame = 8
 182              		@ frame_needed = 1, uses_anonymous_args = 0
 183 0000 80B5     		push	{r7, lr}
 184              		.cfi_def_cfa_offset 8
 185              		.cfi_offset 7, -8
 186              		.cfi_offset 14, -4
 187 0002 82B0     		sub	sp, sp, #8
 188              		.cfi_def_cfa_offset 16
 189 0004 00AF     		add	r7, sp, #0
 190              		.cfi_def_cfa_register 7
 191 0006 0346     		mov	r3, r0
 192 0008 FB71     		strb	r3, [r7, #7]
 193 000a 0B46     		mov	r3, r1
 194 000c BB71     		strb	r3, [r7, #6]
ARM GAS  C:\Users\SYFO\AppData\Local\Temp\ccZGdMB4.s 			page 6


 195 000e 1346     		mov	r3, r2
 196 0010 7B71     		strb	r3, [r7, #5]
  83:main.c        ****     /*Just call I2CWriteBytes function*/
  84:main.c        **** 	I2CWriteBytes(device_add, reg_add, 1, &data);
 197              		.loc 1 84 0
 198 0012 7B1D     		adds	r3, r7, #5
 199 0014 B979     		ldrb	r1, [r7, #6]	@ zero_extendqisi2
 200 0016 F879     		ldrb	r0, [r7, #7]	@ zero_extendqisi2
 201 0018 0122     		movs	r2, #1
 202 001a FFF7FEFF 		bl	I2CWriteBytes
  85:main.c        **** }
 203              		.loc 1 85 0
 204 001e 00BF     		nop
 205 0020 0837     		adds	r7, r7, #8
 206              		.cfi_def_cfa_offset 8
 207 0022 BD46     		mov	sp, r7
 208              		.cfi_def_cfa_register 13
 209              		@ sp needed
 210 0024 80BD     		pop	{r7, pc}
 211              		.cfi_endproc
 212              	.LFE66:
 213              		.size	I2CWriteByte, .-I2CWriteByte
 214 0026 00BF     		.section	.text.I2CReadBytes,"ax",%progbits
 215              		.align	2
 216              		.global	I2CReadBytes
 217              		.thumb
 218              		.thumb_func
 219              		.type	I2CReadBytes, %function
 220              	I2CReadBytes:
 221              	.LFB67:
  86:main.c        **** 
  87:main.c        **** void I2CReadBytes(uint8_t device_add, uint8_t reg_add, uint8_t nobytes, uint8_t *data)
  88:main.c        **** {
 222              		.loc 1 88 0
 223              		.cfi_startproc
 224              		@ args = 0, pretend = 0, frame = 16
 225              		@ frame_needed = 1, uses_anonymous_args = 0
 226 0000 90B5     		push	{r4, r7, lr}
 227              		.cfi_def_cfa_offset 12
 228              		.cfi_offset 4, -12
 229              		.cfi_offset 7, -8
 230              		.cfi_offset 14, -4
 231 0002 85B0     		sub	sp, sp, #20
 232              		.cfi_def_cfa_offset 32
 233 0004 00AF     		add	r7, sp, #0
 234              		.cfi_def_cfa_register 7
 235 0006 3B60     		str	r3, [r7]
 236 0008 0346     		mov	r3, r0
 237 000a FB71     		strb	r3, [r7, #7]
 238 000c 0B46     		mov	r3, r1
 239 000e BB71     		strb	r3, [r7, #6]
 240 0010 1346     		mov	r3, r2
 241 0012 7B71     		strb	r3, [r7, #5]
  89:main.c        ****     uint8_t i=0;    //Index for loop
 242              		.loc 1 89 0
 243 0014 0023     		movs	r3, #0
 244 0016 FB73     		strb	r3, [r7, #15]
ARM GAS  C:\Users\SYFO\AppData\Local\Temp\ccZGdMB4.s 			page 7


  90:main.c        ****     
  91:main.c        ****     /*Send start condition*/
  92:main.c        ****     I2C_1_MasterSendStart(device_add, I2C_1_WRITE_XFER_MODE);
 245              		.loc 1 92 0
 246 0018 FB79     		ldrb	r3, [r7, #7]	@ zero_extendqisi2
 247 001a 0021     		movs	r1, #0
 248 001c 1846     		mov	r0, r3
 249 001e FFF7FEFF 		bl	I2C_1_MasterSendStart
  93:main.c        ****     
  94:main.c        ****     /*Specify register address to read from*/
  95:main.c        ****     I2C_1_MasterWriteByte(reg_add);
 250              		.loc 1 95 0
 251 0022 BB79     		ldrb	r3, [r7, #6]	@ zero_extendqisi2
 252 0024 1846     		mov	r0, r3
 253 0026 FFF7FEFF 		bl	I2C_1_MasterWriteByte
  96:main.c        ****     
  97:main.c        ****     
  98:main.c        ****     /*Go into read-mode*/
  99:main.c        ****     CyDelay(100);
 254              		.loc 1 99 0
 255 002a 6420     		movs	r0, #100
 256 002c FFF7FEFF 		bl	CyDelay
 100:main.c        ****     I2C_1_MasterSendRestart(device_add, I2C_1_READ_XFER_MODE);
 257              		.loc 1 100 0
 258 0030 FB79     		ldrb	r3, [r7, #7]	@ zero_extendqisi2
 259 0032 0121     		movs	r1, #1
 260 0034 1846     		mov	r0, r3
 261 0036 FFF7FEFF 		bl	I2C_1_MasterSendRestart
 101:main.c        ****     
 102:main.c        ****     /*Start reading nobytes bytes*/
 103:main.c        ****     while (i++ < (nobytes-1)) {
 262              		.loc 1 103 0
 263 003a 07E0     		b	.L10
 264              	.L11:
 104:main.c        ****         *data++ = I2C_1_MasterReadByte(I2C_1_ACK_DATA); // ACK to signal keep reading
 265              		.loc 1 104 0
 266 003c 3C68     		ldr	r4, [r7]
 267 003e 631C     		adds	r3, r4, #1
 268 0040 3B60     		str	r3, [r7]
 269 0042 0120     		movs	r0, #1
 270 0044 FFF7FEFF 		bl	I2C_1_MasterReadByte
 271 0048 0346     		mov	r3, r0
 272 004a 2370     		strb	r3, [r4]
 273              	.L10:
 103:main.c        ****         *data++ = I2C_1_MasterReadByte(I2C_1_ACK_DATA); // ACK to signal keep reading
 274              		.loc 1 103 0
 275 004c FB7B     		ldrb	r3, [r7, #15]	@ zero_extendqisi2
 276 004e 5A1C     		adds	r2, r3, #1
 277 0050 FA73     		strb	r2, [r7, #15]
 278 0052 1A46     		mov	r2, r3
 279 0054 7B79     		ldrb	r3, [r7, #5]	@ zero_extendqisi2
 280 0056 013B     		subs	r3, r3, #1
 281 0058 9A42     		cmp	r2, r3
 282 005a EFDB     		blt	.L11
 105:main.c        ****     }
 106:main.c        ****     *data = I2C_1_MasterReadByte(I2C_1_NAK_DATA); // NAK to signal stop reading
 283              		.loc 1 106 0
ARM GAS  C:\Users\SYFO\AppData\Local\Temp\ccZGdMB4.s 			page 8


 284 005c 0020     		movs	r0, #0
 285 005e FFF7FEFF 		bl	I2C_1_MasterReadByte
 286 0062 0346     		mov	r3, r0
 287 0064 1A46     		mov	r2, r3
 288 0066 3B68     		ldr	r3, [r7]
 289 0068 1A70     		strb	r2, [r3]
 107:main.c        ****     
 108:main.c        ****     /*Send stop condition*/
 109:main.c        ****     I2C_1_MasterSendStop();
 290              		.loc 1 109 0
 291 006a FFF7FEFF 		bl	I2C_1_MasterSendStop
 110:main.c        **** }
 292              		.loc 1 110 0
 293 006e 00BF     		nop
 294 0070 1437     		adds	r7, r7, #20
 295              		.cfi_def_cfa_offset 12
 296 0072 BD46     		mov	sp, r7
 297              		.cfi_def_cfa_register 13
 298              		@ sp needed
 299 0074 90BD     		pop	{r4, r7, pc}
 300              		.cfi_endproc
 301              	.LFE67:
 302              		.size	I2CReadBytes, .-I2CReadBytes
 303 0076 00BF     		.section	.text.readSonarSensor,"ax",%progbits
 304              		.align	2
 305              		.global	readSonarSensor
 306              		.thumb
 307              		.thumb_func
 308              		.type	readSonarSensor, %function
 309              	readSonarSensor:
 310              	.LFB68:
 111:main.c        **** 
 112:main.c        **** void readSonarSensor(int16_t *range)
 113:main.c        **** {
 311              		.loc 1 113 0
 312              		.cfi_startproc
 313              		@ args = 0, pretend = 0, frame = 16
 314              		@ frame_needed = 1, uses_anonymous_args = 0
 315 0000 80B5     		push	{r7, lr}
 316              		.cfi_def_cfa_offset 8
 317              		.cfi_offset 7, -8
 318              		.cfi_offset 14, -4
 319 0002 84B0     		sub	sp, sp, #16
 320              		.cfi_def_cfa_offset 24
 321 0004 00AF     		add	r7, sp, #0
 322              		.cfi_def_cfa_register 7
 323 0006 7860     		str	r0, [r7, #4]
 114:main.c        ****     uint8_t rx_buffer[2];
 115:main.c        ****     uint16_t range_buffer;
 116:main.c        ****     
 117:main.c        ****     /*Read data into buffer*/
 118:main.c        ****     I2CReadBytes(MP1202_ADD, RANGE_COMMAND, RANGE_BYTES, rx_buffer);
 324              		.loc 1 118 0
 325 0008 07F10C03 		add	r3, r7, #12
 326 000c 0222     		movs	r2, #2
 327 000e 5121     		movs	r1, #81
 328 0010 7020     		movs	r0, #112
ARM GAS  C:\Users\SYFO\AppData\Local\Temp\ccZGdMB4.s 			page 9


 329 0012 FFF7FEFF 		bl	I2CReadBytes
 119:main.c        ****     
 120:main.c        ****     /** For debug
 121:main.c        ****     char buffer[255];
 122:main.c        ****     sprintf(buffer,"%d -- %d", rx_buffer[0],rx_buffer[1]);
 123:main.c        ****     
 124:main.c        ****     UART_1_PutString(buffer);
 125:main.c        ****     */
 126:main.c        ****     
 127:main.c        ****     /*Extract raw data*/
 128:main.c        ****     range_buffer = rx_buffer[0] << 8 | rx_buffer[1];
 330              		.loc 1 128 0
 331 0016 3B7B     		ldrb	r3, [r7, #12]	@ zero_extendqisi2
 332 0018 1B02     		lsls	r3, r3, #8
 333 001a 1AB2     		sxth	r2, r3
 334 001c 7B7B     		ldrb	r3, [r7, #13]	@ zero_extendqisi2
 335 001e 1BB2     		sxth	r3, r3
 336 0020 1343     		orrs	r3, r3, r2
 337 0022 1BB2     		sxth	r3, r3
 338 0024 FB81     		strh	r3, [r7, #14]	@ movhi
 129:main.c        ****     
 130:main.c        ****     /*Convert to float*/
 131:main.c        ****     *range = range_buffer;   //You might want to divide by constant
 339              		.loc 1 131 0
 340 0026 B7F90E20 		ldrsh	r2, [r7, #14]
 341 002a 7B68     		ldr	r3, [r7, #4]
 342 002c 1A80     		strh	r2, [r3]	@ movhi
 132:main.c        **** }
 343              		.loc 1 132 0
 344 002e 00BF     		nop
 345 0030 1037     		adds	r7, r7, #16
 346              		.cfi_def_cfa_offset 8
 347 0032 BD46     		mov	sp, r7
 348              		.cfi_def_cfa_register 13
 349              		@ sp needed
 350 0034 80BD     		pop	{r7, pc}
 351              		.cfi_endproc
 352              	.LFE68:
 353              		.size	readSonarSensor, .-readSonarSensor
 354 0036 00BF     		.section	.rodata
 355 0053 00       		.align	2
 356              	.LC2:
 357 0054 4D535452 		.ascii	"MSTR NO ERROR\015\012\000"
 357      204E4F20 
 357      4552524F 
 357      520D0A00 
 358              		.align	2
 359              	.LC3:
 360 0064 4D535452 		.ascii	"MSTR BUS BUSY\015\012\000"
 360      20425553 
 360      20425553 
 360      590D0A00 
 361              		.align	2
 362              	.LC4:
 363 0074 4D535452 		.ascii	"MSTR NOT READY\015\012\000"
 363      204E4F54 
 363      20524541 
ARM GAS  C:\Users\SYFO\AppData\Local\Temp\ccZGdMB4.s 			page 10


 363      44590D0A 
 363      00
 364 0085 000000   		.align	2
 365              	.LC5:
 366 0088 4D535452 		.ascii	"MSTR ERR LB NAK\015\012\000"
 366      20455252 
 366      204C4220 
 366      4E414B0D 
 366      0A00
 367 009a 0000     		.align	2
 368              	.LC6:
 369 009c 4D535452 		.ascii	"MSTR ERR ARB LOST\015\012\000"
 369      20455252 
 369      20415242 
 369      204C4F53 
 369      540D0A00 
 370              		.section	.text.handleErrors,"ax",%progbits
 371              		.align	2
 372              		.global	handleErrors
 373              		.thumb
 374              		.thumb_func
 375              		.type	handleErrors, %function
 376              	handleErrors:
 377              	.LFB69:
 133:main.c        **** 
 134:main.c        **** void handleErrors(uint8 error)
 135:main.c        **** {
 378              		.loc 1 135 0
 379              		.cfi_startproc
 380              		@ args = 0, pretend = 0, frame = 8
 381              		@ frame_needed = 1, uses_anonymous_args = 0
 382 0000 80B5     		push	{r7, lr}
 383              		.cfi_def_cfa_offset 8
 384              		.cfi_offset 7, -8
 385              		.cfi_offset 14, -4
 386 0002 82B0     		sub	sp, sp, #8
 387              		.cfi_def_cfa_offset 16
 388 0004 00AF     		add	r7, sp, #0
 389              		.cfi_def_cfa_register 7
 390 0006 0346     		mov	r3, r0
 391 0008 FB71     		strb	r3, [r7, #7]
 136:main.c        ****     switch(error){
 392              		.loc 1 136 0
 393 000a FB79     		ldrb	r3, [r7, #7]	@ zero_extendqisi2
 394 000c 042B     		cmp	r3, #4
 395 000e 21D8     		bhi	.L21
 396 0010 01A2     		adr	r2, .L16
 397 0012 52F823F0 		ldr	pc, [r2, r3, lsl #2]
 398 0016 00BF     		.p2align 2
 399              	.L16:
 400 0018 2D000000 		.word	.L15+1
 401 001c 35000000 		.word	.L17+1
 402 0020 3D000000 		.word	.L18+1
 403 0024 45000000 		.word	.L19+1
 404 0028 4D000000 		.word	.L20+1
 405              		.p2align 1
 406              	.L15:
ARM GAS  C:\Users\SYFO\AppData\Local\Temp\ccZGdMB4.s 			page 11


 137:main.c        ****         case I2C_1_MSTR_NO_ERROR:
 138:main.c        ****             UART_1_PutString("MSTR NO ERROR\r\n");
 407              		.loc 1 138 0
 408 002c 0B48     		ldr	r0, .L22
 409 002e FFF7FEFF 		bl	UART_1_PutString
 139:main.c        ****             break;
 410              		.loc 1 139 0
 411 0032 0FE0     		b	.L14
 412              	.L17:
 140:main.c        ****         case I2C_1_MSTR_BUS_BUSY:
 141:main.c        ****             UART_1_PutString("MSTR BUS BUSY\r\n");
 413              		.loc 1 141 0
 414 0034 0A48     		ldr	r0, .L22+4
 415 0036 FFF7FEFF 		bl	UART_1_PutString
 142:main.c        ****             break;
 416              		.loc 1 142 0
 417 003a 0BE0     		b	.L14
 418              	.L18:
 143:main.c        ****         case I2C_1_MSTR_NOT_READY:
 144:main.c        ****             UART_1_PutString("MSTR NOT READY\r\n");
 419              		.loc 1 144 0
 420 003c 0948     		ldr	r0, .L22+8
 421 003e FFF7FEFF 		bl	UART_1_PutString
 145:main.c        ****             break;
 422              		.loc 1 145 0
 423 0042 07E0     		b	.L14
 424              	.L19:
 146:main.c        ****         case I2C_1_MSTR_ERR_LB_NAK:
 147:main.c        ****             UART_1_PutString("MSTR ERR LB NAK\r\n");
 425              		.loc 1 147 0
 426 0044 0848     		ldr	r0, .L22+12
 427 0046 FFF7FEFF 		bl	UART_1_PutString
 148:main.c        ****             break;
 428              		.loc 1 148 0
 429 004a 03E0     		b	.L14
 430              	.L20:
 149:main.c        ****         case I2C_1_MSTR_ERR_ARB_LOST:
 150:main.c        ****             UART_1_PutString("MSTR ERR ARB LOST\r\n");
 431              		.loc 1 150 0
 432 004c 0748     		ldr	r0, .L22+16
 433 004e FFF7FEFF 		bl	UART_1_PutString
 151:main.c        ****             break;
 434              		.loc 1 151 0
 435 0052 00BF     		nop
 436              	.L14:
 437              	.L21:
 152:main.c        ****     };
 153:main.c        **** }
 438              		.loc 1 153 0
 439 0054 00BF     		nop
 440 0056 0837     		adds	r7, r7, #8
 441              		.cfi_def_cfa_offset 8
 442 0058 BD46     		mov	sp, r7
 443              		.cfi_def_cfa_register 13
 444              		@ sp needed
 445 005a 80BD     		pop	{r7, pc}
 446              	.L23:
ARM GAS  C:\Users\SYFO\AppData\Local\Temp\ccZGdMB4.s 			page 12


 447              		.align	2
 448              	.L22:
 449 005c 54000000 		.word	.LC2
 450 0060 64000000 		.word	.LC3
 451 0064 74000000 		.word	.LC4
 452 0068 88000000 		.word	.LC5
 453 006c 9C000000 		.word	.LC6
 454              		.cfi_endproc
 455              	.LFE69:
 456              		.size	handleErrors, .-handleErrors
 457              		.text
 458              	.Letext0:
 459              		.file 2 "c:\\program files (x86)\\cypress\\psoc creator\\4.2\\psoc creator\\import\\gnu\\arm\\5.4.
 460              		.file 3 "c:\\program files (x86)\\cypress\\psoc creator\\4.2\\psoc creator\\import\\gnu\\arm\\5.4.
 461              		.file 4 "Generated_Source\\PSoC5/cytypes.h"
 462              		.file 5 "Generated_Source\\PSoC5/core_cm3.h"