ARM GAS  C:\Users\Lucas\AppData\Local\Temp\ccJAiTHR.s 			page 1


   1              		.syntax unified
   2              		.cpu cortex-m3
   3              		.fpu softvfp
   4              		.eabi_attribute 20, 1
   5              		.eabi_attribute 21, 1
   6              		.eabi_attribute 23, 3
   7              		.eabi_attribute 24, 1
   8              		.eabi_attribute 25, 1
   9              		.eabi_attribute 26, 1
  10              		.eabi_attribute 30, 6
  11              		.eabi_attribute 34, 1
  12              		.eabi_attribute 18, 4
  13              		.thumb
  14              		.syntax unified
  15              		.file	"i2c.c"
  16              		.text
  17              	.Ltext0:
  18              		.cfi_sections	.debug_frame
  19              		.section	.text._ZN3i2c10WriteBytesEhhhPh,"ax",%progbits
  20              		.align	2
  21              		.global	_ZN3i2c10WriteBytesEhhhPh
  22              		.thumb
  23              		.thumb_func
  24              		.type	_ZN3i2c10WriteBytesEhhhPh, %function
  25              	_ZN3i2c10WriteBytesEhhhPh:
  26              	.LFB66:
  27              		.file 1 "i2c.c"
   1:i2c.c         **** /* ========================================
   2:i2c.c         ****  *
   3:i2c.c         ****  * Copyright Nicklas Grunert, 2019
   4:i2c.c         ****  * All Rights Reserved
   5:i2c.c         ****  * UNPUBLISHED, LICENSED SOFTWARE.
   6:i2c.c         ****  *
   7:i2c.c         ****  * CONFIDENTIAL AND PROPRIETARY INFORMATION
   8:i2c.c         ****  * WHICH IS THE PROPERTY OF Nicklas Grunert.
   9:i2c.c         ****  *
  10:i2c.c         ****  * ========================================
  11:i2c.c         **** */
  12:i2c.c         **** #include "i2c.h"
  13:i2c.c         **** 
  14:i2c.c         **** /***************************************************
  15:i2c.c         **** * For writing data to device with I2C
  16:i2c.c         **** * @param <the device address><the wanted register address><number of bytes to read><pointer to data
  17:i2c.c         **** * @return void
  18:i2c.c         **** ****************************************************/
  19:i2c.c         **** void i2c::WriteBytes(uint8_t device_add, uint8_t reg_add, uint8_t nobytes, uint8_t *data) {
  28              		.loc 1 19 0
  29              		.cfi_startproc
  30              		@ args = 4, pretend = 0, frame = 16
  31              		@ frame_needed = 1, uses_anonymous_args = 0
  32 0000 80B5     		push	{r7, lr}
  33              		.cfi_def_cfa_offset 8
  34              		.cfi_offset 7, -8
  35              		.cfi_offset 14, -4
  36 0002 84B0     		sub	sp, sp, #16
  37              		.cfi_def_cfa_offset 24
  38 0004 00AF     		add	r7, sp, #0
ARM GAS  C:\Users\Lucas\AppData\Local\Temp\ccJAiTHR.s 			page 2


  39              		.cfi_def_cfa_register 7
  40 0006 7860     		str	r0, [r7, #4]
  41 0008 0846     		mov	r0, r1
  42 000a 1146     		mov	r1, r2
  43 000c 1A46     		mov	r2, r3
  44 000e 0346     		mov	r3, r0
  45 0010 FB70     		strb	r3, [r7, #3]
  46 0012 0B46     		mov	r3, r1
  47 0014 BB70     		strb	r3, [r7, #2]
  48 0016 1346     		mov	r3, r2
  49 0018 7B70     		strb	r3, [r7, #1]
  20:i2c.c         ****     
  21:i2c.c         ****     uint8_t i=0;    //Index for loop
  50              		.loc 1 21 0
  51 001a 0023     		movs	r3, #0
  52 001c FB73     		strb	r3, [r7, #15]
  22:i2c.c         ****     
  23:i2c.c         ****     /*Send start condition*/
  24:i2c.c         ****     I2C_1_MasterSendStart(device_add, I2C_1_WRITE_XFER_MODE);
  53              		.loc 1 24 0
  54 001e FB78     		ldrb	r3, [r7, #3]	@ zero_extendqisi2
  55 0020 0021     		movs	r1, #0
  56 0022 1846     		mov	r0, r3
  57 0024 FFF7FEFF 		bl	I2C_1_MasterSendStart
  25:i2c.c         ****     
  26:i2c.c         ****     /*Begin writing to register address*/
  27:i2c.c         ****     I2C_1_MasterWriteByte(reg_add);
  58              		.loc 1 27 0
  59 0028 BB78     		ldrb	r3, [r7, #2]	@ zero_extendqisi2
  60 002a 1846     		mov	r0, r3
  61 002c FFF7FEFF 		bl	I2C_1_MasterWriteByte
  62              	.L3:
  28:i2c.c         ****     
  29:i2c.c         ****     while (i++ < nobytes) 
  63              		.loc 1 29 0
  64 0030 FB7B     		ldrb	r3, [r7, #15]	@ zero_extendqisi2
  65 0032 5A1C     		adds	r2, r3, #1
  66 0034 FA73     		strb	r2, [r7, #15]
  67 0036 7A78     		ldrb	r2, [r7, #1]	@ zero_extendqisi2
  68 0038 9A42     		cmp	r2, r3
  69 003a 8CBF     		ite	hi
  70 003c 0123     		movhi	r3, #1
  71 003e 0023     		movls	r3, #0
  72 0040 DBB2     		uxtb	r3, r3
  73 0042 002B     		cmp	r3, #0
  74 0044 07D0     		beq	.L2
  30:i2c.c         ****     {
  31:i2c.c         ****         /*Keep writing bytes untill nobytes is reached*/
  32:i2c.c         ****         I2C_1_MasterWriteByte(*data++);
  75              		.loc 1 32 0
  76 0046 BB69     		ldr	r3, [r7, #24]
  77 0048 5A1C     		adds	r2, r3, #1
  78 004a BA61     		str	r2, [r7, #24]
  79 004c 1B78     		ldrb	r3, [r3]	@ zero_extendqisi2
  80 004e 1846     		mov	r0, r3
  81 0050 FFF7FEFF 		bl	I2C_1_MasterWriteByte
  29:i2c.c         ****     {
ARM GAS  C:\Users\Lucas\AppData\Local\Temp\ccJAiTHR.s 			page 3


  82              		.loc 1 29 0
  83 0054 ECE7     		b	.L3
  84              	.L2:
  33:i2c.c         ****     }
  34:i2c.c         ****     
  35:i2c.c         ****     /*Send stop condition*/
  36:i2c.c         ****     I2C_1_MasterSendStop();
  85              		.loc 1 36 0
  86 0056 FFF7FEFF 		bl	I2C_1_MasterSendStop
  37:i2c.c         **** }
  87              		.loc 1 37 0
  88 005a 00BF     		nop
  89 005c 1037     		adds	r7, r7, #16
  90              		.cfi_def_cfa_offset 8
  91 005e BD46     		mov	sp, r7
  92              		.cfi_def_cfa_register 13
  93              		@ sp needed
  94 0060 80BD     		pop	{r7, pc}
  95              		.cfi_endproc
  96              	.LFE66:
  97              		.size	_ZN3i2c10WriteBytesEhhhPh, .-_ZN3i2c10WriteBytesEhhhPh
  98 0062 00BF     		.section	.text._ZN3i2c15WriteBytes16bitEhthPh,"ax",%progbits
  99              		.align	2
 100              		.global	_ZN3i2c15WriteBytes16bitEhthPh
 101              		.thumb
 102              		.thumb_func
 103              		.type	_ZN3i2c15WriteBytes16bitEhthPh, %function
 104              	_ZN3i2c15WriteBytes16bitEhthPh:
 105              	.LFB67:
  38:i2c.c         **** 
  39:i2c.c         **** /***************************************************
  40:i2c.c         **** * For writing data to device with I2C with 16bit addressing protocol
  41:i2c.c         **** * @param <the device address><the wanted register address><number of bytes to read><pointer to data
  42:i2c.c         **** * @return void
  43:i2c.c         **** ****************************************************/
  44:i2c.c         **** void i2c::WriteBytes16bit(uint8_t device_add, uint16_t reg_add, uint8_t nobytes, uint8_t *data) 
  45:i2c.c         **** {    
 106              		.loc 1 45 0
 107              		.cfi_startproc
 108              		@ args = 4, pretend = 0, frame = 24
 109              		@ frame_needed = 1, uses_anonymous_args = 0
 110 0000 80B5     		push	{r7, lr}
 111              		.cfi_def_cfa_offset 8
 112              		.cfi_offset 7, -8
 113              		.cfi_offset 14, -4
 114 0002 86B0     		sub	sp, sp, #24
 115              		.cfi_def_cfa_offset 32
 116 0004 00AF     		add	r7, sp, #0
 117              		.cfi_def_cfa_register 7
 118 0006 7860     		str	r0, [r7, #4]
 119 0008 0846     		mov	r0, r1
 120 000a 1146     		mov	r1, r2
 121 000c 1A46     		mov	r2, r3
 122 000e 0346     		mov	r3, r0
 123 0010 FB70     		strb	r3, [r7, #3]
 124 0012 0B46     		mov	r3, r1	@ movhi
 125 0014 3B80     		strh	r3, [r7]	@ movhi
ARM GAS  C:\Users\Lucas\AppData\Local\Temp\ccJAiTHR.s 			page 4


 126 0016 1346     		mov	r3, r2
 127 0018 BB70     		strb	r3, [r7, #2]
  46:i2c.c         ****     uint8_t i=0;            // Index for loop
 128              		.loc 1 46 0
 129 001a 0023     		movs	r3, #0
 130 001c FB75     		strb	r3, [r7, #23]
  47:i2c.c         ****     uint8_t msg[2] = {0,0}; // Message array for addresses
 131              		.loc 1 47 0
 132 001e 0023     		movs	r3, #0
 133 0020 3B73     		strb	r3, [r7, #12]
 134 0022 0023     		movs	r3, #0
 135 0024 7B73     		strb	r3, [r7, #13]
  48:i2c.c         ****     
  49:i2c.c         ****     /*Make 16-bit address from 10bit*/
  50:i2c.c         ****     msg[0] = reg_add >> 8;
 136              		.loc 1 50 0
 137 0026 3B88     		ldrh	r3, [r7]
 138 0028 1B12     		asrs	r3, r3, #8
 139 002a DBB2     		uxtb	r3, r3
 140 002c 3B73     		strb	r3, [r7, #12]
  51:i2c.c         ****     msg[1] = reg_add & 0b0000000011111111;
 141              		.loc 1 51 0
 142 002e 3B88     		ldrh	r3, [r7]	@ movhi
 143 0030 DBB2     		uxtb	r3, r3
 144 0032 7B73     		strb	r3, [r7, #13]
  52:i2c.c         ****     
  53:i2c.c         ****     /*Send start condition*/
  54:i2c.c         ****     I2C_1_MasterSendStart(device_add, I2C_1_WRITE_XFER_MODE);
 145              		.loc 1 54 0
 146 0034 FB78     		ldrb	r3, [r7, #3]	@ zero_extendqisi2
 147 0036 0021     		movs	r1, #0
 148 0038 1846     		mov	r0, r3
 149 003a FFF7FEFF 		bl	I2C_1_MasterSendStart
 150              	.LBB2:
  55:i2c.c         ****     
  56:i2c.c         ****     /*Begin writing to register address*/
  57:i2c.c         ****     for (int j = 0; j<2;j++) I2C_1_MasterWriteByte(msg[j]);
 151              		.loc 1 57 0
 152 003e 0023     		movs	r3, #0
 153 0040 3B61     		str	r3, [r7, #16]
 154              	.L6:
 155              		.loc 1 57 0 is_stmt 0 discriminator 3
 156 0042 3B69     		ldr	r3, [r7, #16]
 157 0044 012B     		cmp	r3, #1
 158 0046 0BDC     		bgt	.L5
 159              		.loc 1 57 0 discriminator 2
 160 0048 07F10C02 		add	r2, r7, #12
 161 004c 3B69     		ldr	r3, [r7, #16]
 162 004e 1344     		add	r3, r3, r2
 163 0050 1B78     		ldrb	r3, [r3]	@ zero_extendqisi2
 164 0052 1846     		mov	r0, r3
 165 0054 FFF7FEFF 		bl	I2C_1_MasterWriteByte
 166 0058 3B69     		ldr	r3, [r7, #16]
 167 005a 0133     		adds	r3, r3, #1
 168 005c 3B61     		str	r3, [r7, #16]
 169 005e F0E7     		b	.L6
 170              	.L5:
ARM GAS  C:\Users\Lucas\AppData\Local\Temp\ccJAiTHR.s 			page 5


 171              	.LBE2:
  58:i2c.c         ****     
  59:i2c.c         ****     while (i++ < nobytes) 
 172              		.loc 1 59 0 is_stmt 1
 173 0060 FB7D     		ldrb	r3, [r7, #23]	@ zero_extendqisi2
 174 0062 5A1C     		adds	r2, r3, #1
 175 0064 FA75     		strb	r2, [r7, #23]
 176 0066 BA78     		ldrb	r2, [r7, #2]	@ zero_extendqisi2
 177 0068 9A42     		cmp	r2, r3
 178 006a 8CBF     		ite	hi
 179 006c 0123     		movhi	r3, #1
 180 006e 0023     		movls	r3, #0
 181 0070 DBB2     		uxtb	r3, r3
 182 0072 002B     		cmp	r3, #0
 183 0074 07D0     		beq	.L7
  60:i2c.c         ****     {
  61:i2c.c         ****         /*Keep writing bytes untill nobytes is reached*/
  62:i2c.c         ****         I2C_1_MasterWriteByte(*data++);
 184              		.loc 1 62 0
 185 0076 3B6A     		ldr	r3, [r7, #32]
 186 0078 5A1C     		adds	r2, r3, #1
 187 007a 3A62     		str	r2, [r7, #32]
 188 007c 1B78     		ldrb	r3, [r3]	@ zero_extendqisi2
 189 007e 1846     		mov	r0, r3
 190 0080 FFF7FEFF 		bl	I2C_1_MasterWriteByte
  59:i2c.c         ****     {
 191              		.loc 1 59 0
 192 0084 ECE7     		b	.L5
 193              	.L7:
  63:i2c.c         ****     }
  64:i2c.c         ****     
  65:i2c.c         ****     /*Send stop condition*/
  66:i2c.c         ****     I2C_1_MasterSendStop();
 194              		.loc 1 66 0
 195 0086 FFF7FEFF 		bl	I2C_1_MasterSendStop
  67:i2c.c         **** }
 196              		.loc 1 67 0
 197 008a 00BF     		nop
 198 008c 1837     		adds	r7, r7, #24
 199              		.cfi_def_cfa_offset 8
 200 008e BD46     		mov	sp, r7
 201              		.cfi_def_cfa_register 13
 202              		@ sp needed
 203 0090 80BD     		pop	{r7, pc}
 204              		.cfi_endproc
 205              	.LFE67:
 206              		.size	_ZN3i2c15WriteBytes16bitEhthPh, .-_ZN3i2c15WriteBytes16bitEhthPh
 207 0092 00BF     		.section	.text._ZN3i2c9WriteByteEhhh,"ax",%progbits
 208              		.align	2
 209              		.global	_ZN3i2c9WriteByteEhhh
 210              		.thumb
 211              		.thumb_func
 212              		.type	_ZN3i2c9WriteByteEhhh, %function
 213              	_ZN3i2c9WriteByteEhhh:
 214              	.LFB68:
  68:i2c.c         **** 
  69:i2c.c         **** /***************************************************
ARM GAS  C:\Users\Lucas\AppData\Local\Temp\ccJAiTHR.s 			page 6


  70:i2c.c         **** * For writing a single byte of data to device with I2C
  71:i2c.c         **** * @param <the device address><the wanted register address><data>
  72:i2c.c         **** * @return void
  73:i2c.c         **** ****************************************************/
  74:i2c.c         **** void i2c::WriteByte(uint8_t device_add, uint8_t reg_add, uint8_t data) {
 215              		.loc 1 74 0
 216              		.cfi_startproc
 217              		@ args = 0, pretend = 0, frame = 8
 218              		@ frame_needed = 1, uses_anonymous_args = 0
 219 0000 80B5     		push	{r7, lr}
 220              		.cfi_def_cfa_offset 8
 221              		.cfi_offset 7, -8
 222              		.cfi_offset 14, -4
 223 0002 84B0     		sub	sp, sp, #16
 224              		.cfi_def_cfa_offset 24
 225 0004 02AF     		add	r7, sp, #8
 226              		.cfi_def_cfa 7, 16
 227 0006 7860     		str	r0, [r7, #4]
 228 0008 0846     		mov	r0, r1
 229 000a 1146     		mov	r1, r2
 230 000c 1A46     		mov	r2, r3
 231 000e 0346     		mov	r3, r0
 232 0010 FB70     		strb	r3, [r7, #3]
 233 0012 0B46     		mov	r3, r1
 234 0014 BB70     		strb	r3, [r7, #2]
 235 0016 1346     		mov	r3, r2
 236 0018 7B70     		strb	r3, [r7, #1]
  75:i2c.c         ****     /*Just call I2CWriteBytes function*/
  76:i2c.c         **** 	WriteBytes(device_add, reg_add, 1, &data);
 237              		.loc 1 76 0
 238 001a BA78     		ldrb	r2, [r7, #2]	@ zero_extendqisi2
 239 001c F978     		ldrb	r1, [r7, #3]	@ zero_extendqisi2
 240 001e 7B1C     		adds	r3, r7, #1
 241 0020 0093     		str	r3, [sp]
 242 0022 0123     		movs	r3, #1
 243 0024 7868     		ldr	r0, [r7, #4]
 244 0026 FFF7FEFF 		bl	_ZN3i2c10WriteBytesEhhhPh
  77:i2c.c         **** }
 245              		.loc 1 77 0
 246 002a 00BF     		nop
 247 002c 0837     		adds	r7, r7, #8
 248              		.cfi_def_cfa_offset 8
 249 002e BD46     		mov	sp, r7
 250              		.cfi_def_cfa_register 13
 251              		@ sp needed
 252 0030 80BD     		pop	{r7, pc}
 253              		.cfi_endproc
 254              	.LFE68:
 255              		.size	_ZN3i2c9WriteByteEhhh, .-_ZN3i2c9WriteByteEhhh
 256 0032 00BF     		.section	.text._ZN3i2c14WriteByte16bitEhth,"ax",%progbits
 257              		.align	2
 258              		.global	_ZN3i2c14WriteByte16bitEhth
 259              		.thumb
 260              		.thumb_func
 261              		.type	_ZN3i2c14WriteByte16bitEhth, %function
 262              	_ZN3i2c14WriteByte16bitEhth:
 263              	.LFB69:
ARM GAS  C:\Users\Lucas\AppData\Local\Temp\ccJAiTHR.s 			page 7


  78:i2c.c         **** 
  79:i2c.c         **** /***************************************************
  80:i2c.c         **** * For writing a single byte of data to device with I2C using 16bit addressing
  81:i2c.c         **** * @param <the device address><the wanted register address><data>
  82:i2c.c         **** * @return void
  83:i2c.c         **** ****************************************************/
  84:i2c.c         **** void i2c::WriteByte16bit(uint8_t device_add, uint16_t reg_add, uint8_t data) {
 264              		.loc 1 84 0
 265              		.cfi_startproc
 266              		@ args = 0, pretend = 0, frame = 8
 267              		@ frame_needed = 1, uses_anonymous_args = 0
 268 0000 80B5     		push	{r7, lr}
 269              		.cfi_def_cfa_offset 8
 270              		.cfi_offset 7, -8
 271              		.cfi_offset 14, -4
 272 0002 84B0     		sub	sp, sp, #16
 273              		.cfi_def_cfa_offset 24
 274 0004 02AF     		add	r7, sp, #8
 275              		.cfi_def_cfa 7, 16
 276 0006 7860     		str	r0, [r7, #4]
 277 0008 0846     		mov	r0, r1
 278 000a 1146     		mov	r1, r2
 279 000c 1A46     		mov	r2, r3
 280 000e 0346     		mov	r3, r0
 281 0010 FB70     		strb	r3, [r7, #3]
 282 0012 0B46     		mov	r3, r1	@ movhi
 283 0014 3B80     		strh	r3, [r7]	@ movhi
 284 0016 1346     		mov	r3, r2
 285 0018 BB70     		strb	r3, [r7, #2]
  85:i2c.c         ****     /*Just call I2CWriteBytes16bit function*/
  86:i2c.c         **** 	WriteBytes16bit(device_add, reg_add, 1, &data);
 286              		.loc 1 86 0
 287 001a 3A88     		ldrh	r2, [r7]
 288 001c F978     		ldrb	r1, [r7, #3]	@ zero_extendqisi2
 289 001e BB1C     		adds	r3, r7, #2
 290 0020 0093     		str	r3, [sp]
 291 0022 0123     		movs	r3, #1
 292 0024 7868     		ldr	r0, [r7, #4]
 293 0026 FFF7FEFF 		bl	_ZN3i2c15WriteBytes16bitEhthPh
  87:i2c.c         **** }
 294              		.loc 1 87 0
 295 002a 00BF     		nop
 296 002c 0837     		adds	r7, r7, #8
 297              		.cfi_def_cfa_offset 8
 298 002e BD46     		mov	sp, r7
 299              		.cfi_def_cfa_register 13
 300              		@ sp needed
 301 0030 80BD     		pop	{r7, pc}
 302              		.cfi_endproc
 303              	.LFE69:
 304              		.size	_ZN3i2c14WriteByte16bitEhth, .-_ZN3i2c14WriteByte16bitEhth
 305 0032 00BF     		.section	.text._ZN3i2c9ReadBytesEhhhPh,"ax",%progbits
 306              		.align	2
 307              		.global	_ZN3i2c9ReadBytesEhhhPh
 308              		.thumb
 309              		.thumb_func
 310              		.type	_ZN3i2c9ReadBytesEhhhPh, %function
ARM GAS  C:\Users\Lucas\AppData\Local\Temp\ccJAiTHR.s 			page 8


 311              	_ZN3i2c9ReadBytesEhhhPh:
 312              	.LFB70:
  88:i2c.c         **** 
  89:i2c.c         **** /***************************************************
  90:i2c.c         **** * For reading bytes of data from device with I2C
  91:i2c.c         **** * @param <the device address><the wanted register address><number of bytes to read><pointer to data
  92:i2c.c         **** * @return void
  93:i2c.c         **** ****************************************************/
  94:i2c.c         **** void i2c::ReadBytes(uint8_t device_add, uint8_t reg_add, uint8_t nobytes, uint8_t *data)
  95:i2c.c         **** {
 313              		.loc 1 95 0
 314              		.cfi_startproc
 315              		@ args = 4, pretend = 0, frame = 16
 316              		@ frame_needed = 1, uses_anonymous_args = 0
 317 0000 90B5     		push	{r4, r7, lr}
 318              		.cfi_def_cfa_offset 12
 319              		.cfi_offset 4, -12
 320              		.cfi_offset 7, -8
 321              		.cfi_offset 14, -4
 322 0002 85B0     		sub	sp, sp, #20
 323              		.cfi_def_cfa_offset 32
 324 0004 00AF     		add	r7, sp, #0
 325              		.cfi_def_cfa_register 7
 326 0006 7860     		str	r0, [r7, #4]
 327 0008 0846     		mov	r0, r1
 328 000a 1146     		mov	r1, r2
 329 000c 1A46     		mov	r2, r3
 330 000e 0346     		mov	r3, r0
 331 0010 FB70     		strb	r3, [r7, #3]
 332 0012 0B46     		mov	r3, r1
 333 0014 BB70     		strb	r3, [r7, #2]
 334 0016 1346     		mov	r3, r2
 335 0018 7B70     		strb	r3, [r7, #1]
  96:i2c.c         ****     uint8_t i=0;    //Index for loop
 336              		.loc 1 96 0
 337 001a 0023     		movs	r3, #0
 338 001c FB73     		strb	r3, [r7, #15]
  97:i2c.c         ****     
  98:i2c.c         ****     /*Send start condition*/
  99:i2c.c         ****     I2C_1_MasterSendStart(device_add, I2C_1_WRITE_XFER_MODE);
 339              		.loc 1 99 0
 340 001e FB78     		ldrb	r3, [r7, #3]	@ zero_extendqisi2
 341 0020 0021     		movs	r1, #0
 342 0022 1846     		mov	r0, r3
 343 0024 FFF7FEFF 		bl	I2C_1_MasterSendStart
 100:i2c.c         ****     
 101:i2c.c         ****     /*Specify register address to read from*/
 102:i2c.c         ****     I2C_1_MasterWriteByte(reg_add);
 344              		.loc 1 102 0
 345 0028 BB78     		ldrb	r3, [r7, #2]	@ zero_extendqisi2
 346 002a 1846     		mov	r0, r3
 347 002c FFF7FEFF 		bl	I2C_1_MasterWriteByte
 103:i2c.c         ****     
 104:i2c.c         ****     /*Go into read-mode*/
 105:i2c.c         ****     I2C_1_MasterSendRestart(device_add, I2C_1_READ_XFER_MODE);
 348              		.loc 1 105 0
 349 0030 FB78     		ldrb	r3, [r7, #3]	@ zero_extendqisi2
ARM GAS  C:\Users\Lucas\AppData\Local\Temp\ccJAiTHR.s 			page 9


 350 0032 0121     		movs	r1, #1
 351 0034 1846     		mov	r0, r3
 352 0036 FFF7FEFF 		bl	I2C_1_MasterSendRestart
 353              	.L12:
 106:i2c.c         ****     
 107:i2c.c         ****     /*Start reading nobytes bytes*/
 108:i2c.c         ****     while (i++ < (nobytes-1)) {
 354              		.loc 1 108 0
 355 003a FB7B     		ldrb	r3, [r7, #15]	@ zero_extendqisi2
 356 003c 5A1C     		adds	r2, r3, #1
 357 003e FA73     		strb	r2, [r7, #15]
 358 0040 1A46     		mov	r2, r3
 359 0042 7B78     		ldrb	r3, [r7, #1]	@ zero_extendqisi2
 360 0044 013B     		subs	r3, r3, #1
 361 0046 9A42     		cmp	r2, r3
 362 0048 B4BF     		ite	lt
 363 004a 0123     		movlt	r3, #1
 364 004c 0023     		movge	r3, #0
 365 004e DBB2     		uxtb	r3, r3
 366 0050 002B     		cmp	r3, #0
 367 0052 08D0     		beq	.L11
 109:i2c.c         ****         *data++ = I2C_1_MasterReadByte(I2C_1_ACK_DATA); // ACK to signal keep reading
 368              		.loc 1 109 0
 369 0054 3C6A     		ldr	r4, [r7, #32]
 370 0056 631C     		adds	r3, r4, #1
 371 0058 3B62     		str	r3, [r7, #32]
 372 005a 0120     		movs	r0, #1
 373 005c FFF7FEFF 		bl	I2C_1_MasterReadByte
 374 0060 0346     		mov	r3, r0
 375 0062 2370     		strb	r3, [r4]
 108:i2c.c         ****         *data++ = I2C_1_MasterReadByte(I2C_1_ACK_DATA); // ACK to signal keep reading
 376              		.loc 1 108 0
 377 0064 E9E7     		b	.L12
 378              	.L11:
 110:i2c.c         ****     }
 111:i2c.c         ****     *data = I2C_1_MasterReadByte(I2C_1_NAK_DATA); // NAK to signal stop reading
 379              		.loc 1 111 0
 380 0066 0020     		movs	r0, #0
 381 0068 FFF7FEFF 		bl	I2C_1_MasterReadByte
 382 006c 0346     		mov	r3, r0
 383 006e 1A46     		mov	r2, r3
 384 0070 3B6A     		ldr	r3, [r7, #32]
 385 0072 1A70     		strb	r2, [r3]
 112:i2c.c         ****     
 113:i2c.c         ****     /*Send stop condition*/
 114:i2c.c         ****     I2C_1_MasterSendStop();    
 386              		.loc 1 114 0
 387 0074 FFF7FEFF 		bl	I2C_1_MasterSendStop
 115:i2c.c         **** }
 388              		.loc 1 115 0
 389 0078 00BF     		nop
 390 007a 1437     		adds	r7, r7, #20
 391              		.cfi_def_cfa_offset 12
 392 007c BD46     		mov	sp, r7
 393              		.cfi_def_cfa_register 13
 394              		@ sp needed
 395 007e 90BD     		pop	{r4, r7, pc}
ARM GAS  C:\Users\Lucas\AppData\Local\Temp\ccJAiTHR.s 			page 10


 396              		.cfi_endproc
 397              	.LFE70:
 398              		.size	_ZN3i2c9ReadBytesEhhhPh, .-_ZN3i2c9ReadBytesEhhhPh
 399              		.section	.text._ZN3i2c8ReadByteEhhPh,"ax",%progbits
 400              		.align	2
 401              		.global	_ZN3i2c8ReadByteEhhPh
 402              		.thumb
 403              		.thumb_func
 404              		.type	_ZN3i2c8ReadByteEhhPh, %function
 405              	_ZN3i2c8ReadByteEhhPh:
 406              	.LFB71:
 116:i2c.c         **** 
 117:i2c.c         **** /***************************************************
 118:i2c.c         **** * For reading a single byte of data from device with I2C
 119:i2c.c         **** * @param <the device address><the wanted register address><number of bytes to read><pointer to data
 120:i2c.c         **** * @return void
 121:i2c.c         **** ****************************************************/
 122:i2c.c         **** void i2c::ReadByte(uint8_t devAddr, uint8_t regAddr, uint8_t *value)
 123:i2c.c         **** {
 407              		.loc 1 123 0
 408              		.cfi_startproc
 409              		@ args = 0, pretend = 0, frame = 16
 410              		@ frame_needed = 1, uses_anonymous_args = 0
 411 0000 80B5     		push	{r7, lr}
 412              		.cfi_def_cfa_offset 8
 413              		.cfi_offset 7, -8
 414              		.cfi_offset 14, -4
 415 0002 86B0     		sub	sp, sp, #24
 416              		.cfi_def_cfa_offset 32
 417 0004 02AF     		add	r7, sp, #8
 418              		.cfi_def_cfa 7, 24
 419 0006 F860     		str	r0, [r7, #12]
 420 0008 7B60     		str	r3, [r7, #4]
 421 000a 0B46     		mov	r3, r1
 422 000c FB72     		strb	r3, [r7, #11]
 423 000e 1346     		mov	r3, r2
 424 0010 BB72     		strb	r3, [r7, #10]
 124:i2c.c         ****     ReadBytes(devAddr,regAddr,1,value);
 425              		.loc 1 124 0
 426 0012 BA7A     		ldrb	r2, [r7, #10]	@ zero_extendqisi2
 427 0014 F97A     		ldrb	r1, [r7, #11]	@ zero_extendqisi2
 428 0016 7B68     		ldr	r3, [r7, #4]
 429 0018 0093     		str	r3, [sp]
 430 001a 0123     		movs	r3, #1
 431 001c F868     		ldr	r0, [r7, #12]
 432 001e FFF7FEFF 		bl	_ZN3i2c9ReadBytesEhhhPh
 125:i2c.c         **** }
 433              		.loc 1 125 0
 434 0022 00BF     		nop
 435 0024 1037     		adds	r7, r7, #16
 436              		.cfi_def_cfa_offset 8
 437 0026 BD46     		mov	sp, r7
 438              		.cfi_def_cfa_register 13
 439              		@ sp needed
 440 0028 80BD     		pop	{r7, pc}
 441              		.cfi_endproc
 442              	.LFE71:
ARM GAS  C:\Users\Lucas\AppData\Local\Temp\ccJAiTHR.s 			page 11


 443              		.size	_ZN3i2c8ReadByteEhhPh, .-_ZN3i2c8ReadByteEhhPh
 444 002a 00BF     		.section	.text._ZN3i2c15ReadBytes16bitsEhthPh,"ax",%progbits
 445              		.align	2
 446              		.global	_ZN3i2c15ReadBytes16bitsEhthPh
 447              		.thumb
 448              		.thumb_func
 449              		.type	_ZN3i2c15ReadBytes16bitsEhthPh, %function
 450              	_ZN3i2c15ReadBytes16bitsEhthPh:
 451              	.LFB72:
 126:i2c.c         **** 
 127:i2c.c         **** /***************************************************
 128:i2c.c         **** * For reading bytes of data from device with I2C using 16bit addressing
 129:i2c.c         **** * @param <the device address><the wanted register address><number of bytes to read><pointer to data
 130:i2c.c         **** * @return void
 131:i2c.c         **** ****************************************************/
 132:i2c.c         **** void i2c::ReadBytes16bits(uint8_t device_add, uint16_t reg_add, uint8_t nobytes, uint8_t *data)
 133:i2c.c         **** {
 452              		.loc 1 133 0
 453              		.cfi_startproc
 454              		@ args = 4, pretend = 0, frame = 24
 455              		@ frame_needed = 1, uses_anonymous_args = 0
 456 0000 90B5     		push	{r4, r7, lr}
 457              		.cfi_def_cfa_offset 12
 458              		.cfi_offset 4, -12
 459              		.cfi_offset 7, -8
 460              		.cfi_offset 14, -4
 461 0002 87B0     		sub	sp, sp, #28
 462              		.cfi_def_cfa_offset 40
 463 0004 00AF     		add	r7, sp, #0
 464              		.cfi_def_cfa_register 7
 465 0006 7860     		str	r0, [r7, #4]
 466 0008 0846     		mov	r0, r1
 467 000a 1146     		mov	r1, r2
 468 000c 1A46     		mov	r2, r3
 469 000e 0346     		mov	r3, r0
 470 0010 FB70     		strb	r3, [r7, #3]
 471 0012 0B46     		mov	r3, r1	@ movhi
 472 0014 3B80     		strh	r3, [r7]	@ movhi
 473 0016 1346     		mov	r3, r2
 474 0018 BB70     		strb	r3, [r7, #2]
 134:i2c.c         ****     uint8_t i=0;                //Index for loop
 475              		.loc 1 134 0
 476 001a 0023     		movs	r3, #0
 477 001c FB75     		strb	r3, [r7, #23]
 135:i2c.c         ****     uint8_t msg[2] = {0,0};     // Message array for addresses
 478              		.loc 1 135 0
 479 001e 0023     		movs	r3, #0
 480 0020 3B73     		strb	r3, [r7, #12]
 481 0022 0023     		movs	r3, #0
 482 0024 7B73     		strb	r3, [r7, #13]
 136:i2c.c         ****     
 137:i2c.c         ****     /*Make 16-bit address from 10bit*/
 138:i2c.c         ****     msg[0] = reg_add >> 8;
 483              		.loc 1 138 0
 484 0026 3B88     		ldrh	r3, [r7]
 485 0028 1B12     		asrs	r3, r3, #8
 486 002a DBB2     		uxtb	r3, r3
ARM GAS  C:\Users\Lucas\AppData\Local\Temp\ccJAiTHR.s 			page 12


 487 002c 3B73     		strb	r3, [r7, #12]
 139:i2c.c         ****     msg[1] = reg_add & 0b0000000011111111;
 488              		.loc 1 139 0
 489 002e 3B88     		ldrh	r3, [r7]	@ movhi
 490 0030 DBB2     		uxtb	r3, r3
 491 0032 7B73     		strb	r3, [r7, #13]
 140:i2c.c         ****     
 141:i2c.c         ****     /*Send start condition*/
 142:i2c.c         ****     I2C_1_MasterSendStart(device_add, I2C_1_WRITE_XFER_MODE);
 492              		.loc 1 142 0
 493 0034 FB78     		ldrb	r3, [r7, #3]	@ zero_extendqisi2
 494 0036 0021     		movs	r1, #0
 495 0038 1846     		mov	r0, r3
 496 003a FFF7FEFF 		bl	I2C_1_MasterSendStart
 497              	.LBB3:
 143:i2c.c         ****     
 144:i2c.c         ****     /*Specify register address to read from*/
 145:i2c.c         ****     for (int j = 0; j<2;j++) I2C_1_MasterWriteByte(msg[j]);
 498              		.loc 1 145 0
 499 003e 0023     		movs	r3, #0
 500 0040 3B61     		str	r3, [r7, #16]
 501              	.L16:
 502              		.loc 1 145 0 is_stmt 0 discriminator 3
 503 0042 3B69     		ldr	r3, [r7, #16]
 504 0044 012B     		cmp	r3, #1
 505 0046 0BDC     		bgt	.L15
 506              		.loc 1 145 0 discriminator 2
 507 0048 07F10C02 		add	r2, r7, #12
 508 004c 3B69     		ldr	r3, [r7, #16]
 509 004e 1344     		add	r3, r3, r2
 510 0050 1B78     		ldrb	r3, [r3]	@ zero_extendqisi2
 511 0052 1846     		mov	r0, r3
 512 0054 FFF7FEFF 		bl	I2C_1_MasterWriteByte
 513 0058 3B69     		ldr	r3, [r7, #16]
 514 005a 0133     		adds	r3, r3, #1
 515 005c 3B61     		str	r3, [r7, #16]
 516 005e F0E7     		b	.L16
 517              	.L15:
 518              	.LBE3:
 146:i2c.c         ****     
 147:i2c.c         ****     /*Go into read-mode*/
 148:i2c.c         ****     I2C_1_MasterSendRestart(device_add, I2C_1_READ_XFER_MODE);
 519              		.loc 1 148 0 is_stmt 1
 520 0060 FB78     		ldrb	r3, [r7, #3]	@ zero_extendqisi2
 521 0062 0121     		movs	r1, #1
 522 0064 1846     		mov	r0, r3
 523 0066 FFF7FEFF 		bl	I2C_1_MasterSendRestart
 524              	.L18:
 149:i2c.c         ****     
 150:i2c.c         ****     /*Start reading nobytes bytes*/
 151:i2c.c         ****     while (i++ < (nobytes-1)) {
 525              		.loc 1 151 0
 526 006a FB7D     		ldrb	r3, [r7, #23]	@ zero_extendqisi2
 527 006c 5A1C     		adds	r2, r3, #1
 528 006e FA75     		strb	r2, [r7, #23]
 529 0070 1A46     		mov	r2, r3
 530 0072 BB78     		ldrb	r3, [r7, #2]	@ zero_extendqisi2
ARM GAS  C:\Users\Lucas\AppData\Local\Temp\ccJAiTHR.s 			page 13


 531 0074 013B     		subs	r3, r3, #1
 532 0076 9A42     		cmp	r2, r3
 533 0078 B4BF     		ite	lt
 534 007a 0123     		movlt	r3, #1
 535 007c 0023     		movge	r3, #0
 536 007e DBB2     		uxtb	r3, r3
 537 0080 002B     		cmp	r3, #0
 538 0082 08D0     		beq	.L17
 152:i2c.c         ****         *data++ = I2C_1_MasterReadByte(I2C_1_ACK_DATA); // ACK to signal keep reading
 539              		.loc 1 152 0
 540 0084 BC6A     		ldr	r4, [r7, #40]
 541 0086 631C     		adds	r3, r4, #1
 542 0088 BB62     		str	r3, [r7, #40]
 543 008a 0120     		movs	r0, #1
 544 008c FFF7FEFF 		bl	I2C_1_MasterReadByte
 545 0090 0346     		mov	r3, r0
 546 0092 2370     		strb	r3, [r4]
 151:i2c.c         ****         *data++ = I2C_1_MasterReadByte(I2C_1_ACK_DATA); // ACK to signal keep reading
 547              		.loc 1 151 0
 548 0094 E9E7     		b	.L18
 549              	.L17:
 153:i2c.c         ****     }
 154:i2c.c         ****     *data = I2C_1_MasterReadByte(I2C_1_NAK_DATA); // NAK to signal stop reading
 550              		.loc 1 154 0
 551 0096 0020     		movs	r0, #0
 552 0098 FFF7FEFF 		bl	I2C_1_MasterReadByte
 553 009c 0346     		mov	r3, r0
 554 009e 1A46     		mov	r2, r3
 555 00a0 BB6A     		ldr	r3, [r7, #40]
 556 00a2 1A70     		strb	r2, [r3]
 155:i2c.c         ****     
 156:i2c.c         ****     /*Send stop condition*/
 157:i2c.c         ****     I2C_1_MasterSendStop();    
 557              		.loc 1 157 0
 558 00a4 FFF7FEFF 		bl	I2C_1_MasterSendStop
 158:i2c.c         **** }
 559              		.loc 1 158 0
 560 00a8 00BF     		nop
 561 00aa 1C37     		adds	r7, r7, #28
 562              		.cfi_def_cfa_offset 12
 563 00ac BD46     		mov	sp, r7
 564              		.cfi_def_cfa_register 13
 565              		@ sp needed
 566 00ae 90BD     		pop	{r4, r7, pc}
 567              		.cfi_endproc
 568              	.LFE72:
 569              		.size	_ZN3i2c15ReadBytes16bitsEhthPh, .-_ZN3i2c15ReadBytes16bitsEhthPh
 570              		.text
 571              	.Letext0:
 572              		.file 2 "c:\\program files (x86)\\cypress\\psoc creator\\4.2\\psoc creator\\import\\gnu\\arm\\5.4.
 573              		.file 3 "c:\\program files (x86)\\cypress\\psoc creator\\4.2\\psoc creator\\import\\gnu\\arm\\5.4.
 574              		.file 4 "i2c.h"
 575              		.file 5 "Generated_Source\\PSoC5/core_cm3.h"