ARM GAS  C:\Users\hejmi\AppData\Local\Temp\ccFM6jcL.s 			page 1


   1              		.syntax unified
   2              		.cpu cortex-m3
   3              		.fpu softvfp
   4              		.eabi_attribute 20, 1
   5              		.eabi_attribute 21, 1
   6              		.eabi_attribute 23, 3
   7              		.eabi_attribute 24, 1
   8              		.eabi_attribute 25, 1
   9              		.eabi_attribute 26, 1
  10              		.eabi_attribute 30, 1
  11              		.eabi_attribute 34, 1
  12              		.eabi_attribute 18, 4
  13              		.thumb
  14              		.syntax unified
  15              		.file	"Laser.c"
  16              		.text
  17              	.Ltext0:
  18              		.cfi_sections	.debug_frame
  19              		.section	.text._ZN5Laser15StartContinuousEm,"ax",%progbits
  20              		.align	2
  21              		.global	_ZN5Laser15StartContinuousEm
  22              		.thumb
  23              		.thumb_func
  24              		.type	_ZN5Laser15StartContinuousEm, %function
  25              	_ZN5Laser15StartContinuousEm:
  26              		.fnstart
  27              	.LFB74:
  28              		.file 1 "Laser.c"
   1:Laser.c       **** /* ========================================
   2:Laser.c       ****  *
   3:Laser.c       ****  * Copyright Nicklas Grunert, 2019
   4:Laser.c       ****  * All Rights Reserved
   5:Laser.c       ****  * UNPUBLISHED, LICENSED SOFTWARE.
   6:Laser.c       ****  *
   7:Laser.c       ****  * CONFIDENTIAL AND PROPRIETARY INFORMATION
   8:Laser.c       ****  * WHICH IS THE PROPERTY OF Nicklas Grunert.
   9:Laser.c       ****  *
  10:Laser.c       ****  * ========================================
  11:Laser.c       **** */
  12:Laser.c       **** #include "Laser.h"
  13:Laser.c       **** #include "Laser_def.h"
  14:Laser.c       **** 
  15:Laser.c       **** /******* I/O Functions **********/
  16:Laser.c       **** 
  17:Laser.c       **** // Start continuous ranging measurements. If period_ms (optional) is 0 or not
  18:Laser.c       **** // given, continuous back-to-back mode is used (the sensor takes measurements as
  19:Laser.c       **** // often as possible); otherwise, continuous timed mode is used, with the given
  20:Laser.c       **** // inter-measurement period in milliseconds determining how often the sensor
  21:Laser.c       **** // takes a measurement.
  22:Laser.c       **** // based on VL53L0X_StartMeasurement()
  23:Laser.c       **** void Laser::StartContinuous(uint32_t period_ms)
  24:Laser.c       **** {
  29              		.loc 1 24 0
  30              		.cfi_startproc
  31              		@ args = 0, pretend = 0, frame = 8
  32              		@ frame_needed = 0, uses_anonymous_args = 0
  33              	.LVL0:
ARM GAS  C:\Users\hejmi\AppData\Local\Temp\ccFM6jcL.s 			page 2


  34 0000 30B5     		push	{r4, r5, lr}
  35              		.save {r4, r5, lr}
  36              		.cfi_def_cfa_offset 12
  37              		.cfi_offset 4, -12
  38              		.cfi_offset 5, -8
  39              		.cfi_offset 14, -4
  40              		.pad #20
  41 0002 85B0     		sub	sp, sp, #20
  42              		.cfi_def_cfa_offset 32
  43 0004 0446     		mov	r4, r0
  44 0006 0D46     		mov	r5, r1
  25:Laser.c       ****     I2C.WriteByte(dev_,0x80, 0x01);
  45              		.loc 1 25 0
  46 0008 0123     		movs	r3, #1
  47 000a 8022     		movs	r2, #128
  48 000c 0179     		ldrb	r1, [r0, #4]	@ zero_extendqisi2
  49              	.LVL1:
  50 000e FFF7FEFF 		bl	_ZN3i2c9WriteByteEhhh
  51              	.LVL2:
  26:Laser.c       ****     I2C.WriteByte(dev_,0xFF, 0x01);
  52              		.loc 1 26 0
  53 0012 0123     		movs	r3, #1
  54 0014 FF22     		movs	r2, #255
  55 0016 2179     		ldrb	r1, [r4, #4]	@ zero_extendqisi2
  56 0018 2046     		mov	r0, r4
  57 001a FFF7FEFF 		bl	_ZN3i2c9WriteByteEhhh
  58              	.LVL3:
  27:Laser.c       ****     I2C.WriteByte(dev_,0x00, 0x00);
  59              		.loc 1 27 0
  60 001e 0023     		movs	r3, #0
  61 0020 1A46     		mov	r2, r3
  62 0022 2179     		ldrb	r1, [r4, #4]	@ zero_extendqisi2
  63 0024 2046     		mov	r0, r4
  64 0026 FFF7FEFF 		bl	_ZN3i2c9WriteByteEhhh
  65              	.LVL4:
  28:Laser.c       ****     I2C.WriteByte(dev_,0x91, stop_variable);
  66              		.loc 1 28 0
  67 002a A37B     		ldrb	r3, [r4, #14]	@ zero_extendqisi2
  68 002c 9122     		movs	r2, #145
  69 002e 2179     		ldrb	r1, [r4, #4]	@ zero_extendqisi2
  70 0030 2046     		mov	r0, r4
  71 0032 FFF7FEFF 		bl	_ZN3i2c9WriteByteEhhh
  72              	.LVL5:
  29:Laser.c       ****     I2C.WriteByte(dev_,0x00, 0x01);
  73              		.loc 1 29 0
  74 0036 0123     		movs	r3, #1
  75 0038 0022     		movs	r2, #0
  76 003a 2179     		ldrb	r1, [r4, #4]	@ zero_extendqisi2
  77 003c 2046     		mov	r0, r4
  78 003e FFF7FEFF 		bl	_ZN3i2c9WriteByteEhhh
  79              	.LVL6:
  30:Laser.c       ****     I2C.WriteByte(dev_,0xFF, 0x00);
  80              		.loc 1 30 0
  81 0042 0023     		movs	r3, #0
  82 0044 FF22     		movs	r2, #255
  83 0046 2179     		ldrb	r1, [r4, #4]	@ zero_extendqisi2
  84 0048 2046     		mov	r0, r4
ARM GAS  C:\Users\hejmi\AppData\Local\Temp\ccFM6jcL.s 			page 3


  85 004a FFF7FEFF 		bl	_ZN3i2c9WriteByteEhhh
  86              	.LVL7:
  31:Laser.c       ****     I2C.WriteByte(dev_,0x80, 0x00);
  87              		.loc 1 31 0
  88 004e 0023     		movs	r3, #0
  89 0050 8022     		movs	r2, #128
  90 0052 2179     		ldrb	r1, [r4, #4]	@ zero_extendqisi2
  91 0054 2046     		mov	r0, r4
  92 0056 FFF7FEFF 		bl	_ZN3i2c9WriteByteEhhh
  93              	.LVL8:
  94              	.LBB2:
  32:Laser.c       **** 
  33:Laser.c       ****     if (period_ms != 0)
  95              		.loc 1 33 0
  96 005a 75B3     		cbz	r5, .L2
  97              	.LBB3:
  34:Laser.c       ****     {
  35:Laser.c       ****         // continuous timed mode
  36:Laser.c       ****         uint8_t tmparr[4]={0,0,0,0};
  98              		.loc 1 36 0
  99 005c 04AB     		add	r3, sp, #16
 100 005e 0022     		movs	r2, #0
 101 0060 43F8042D 		str	r2, [r3, #-4]!
  37:Laser.c       ****         
  38:Laser.c       ****         // VL53L0X_SetInterMeasurementPeriodMilliSeconds() begin
  39:Laser.c       ****         I2C.ReadBytes(dev_,OSC_CALIBRATE_VAL,2,tmparr); //readReg16Bit(OSC_CALIBRATE_VAL);
 102              		.loc 1 39 0
 103 0064 2179     		ldrb	r1, [r4, #4]	@ zero_extendqisi2
 104 0066 0093     		str	r3, [sp]
 105 0068 0223     		movs	r3, #2
 106 006a F822     		movs	r2, #248
 107 006c 2046     		mov	r0, r4
 108 006e FFF7FEFF 		bl	_ZN3i2c9ReadBytesEhhhPh
 109              	.LVL9:
  40:Laser.c       ****         uint16_t osc_calibrate_val = (tmparr[0]<<8) + tmparr[1];
 110              		.loc 1 40 0
 111 0072 9DF80C20 		ldrb	r2, [sp, #12]	@ zero_extendqisi2
 112 0076 9DF80D30 		ldrb	r3, [sp, #13]	@ zero_extendqisi2
 113 007a 03EB0223 		add	r3, r3, r2, lsl #8
 114 007e 9BB2     		uxth	r3, r3
 115              	.LVL10:
  41:Laser.c       ****         tmparr[0]=0;tmparr[1]=0;tmparr[2]=0;tmparr[3]=0; // Might be useless
  42:Laser.c       ****         
  43:Laser.c       ****         if (osc_calibrate_val != 0)
 116              		.loc 1 43 0
 117 0080 0BB1     		cbz	r3, .L3
  44:Laser.c       ****         {
  45:Laser.c       ****             period_ms *= osc_calibrate_val;
 118              		.loc 1 45 0
 119 0082 03FB05F5 		mul	r5, r3, r5
 120              	.LVL11:
 121              	.L3:
  46:Laser.c       ****         }
  47:Laser.c       **** 
  48:Laser.c       ****         //writeReg32Bit(SYSTEM_INTERMEASUREMENT_PERIOD, period_ms);
  49:Laser.c       ****         /*Make 32Bit into 4 8Bit*/
  50:Laser.c       ****         /*https://www.edaboard.com/showthread.php?60002-How-to-efficiently-convert-the-32-bit-data-
ARM GAS  C:\Users\hejmi\AppData\Local\Temp\ccFM6jcL.s 			page 4


  51:Laser.c       ****         tmparr[0] = period_ms;      // Lower order
 122              		.loc 1 51 0
 123 0086 8DF80C50 		strb	r5, [sp, #12]
  52:Laser.c       ****         tmparr[1] = period_ms >> 8;
 124              		.loc 1 52 0
 125 008a 2B0A     		lsrs	r3, r5, #8
 126              	.LVL12:
 127 008c 8DF80D30 		strb	r3, [sp, #13]
 128              	.LVL13:
  53:Laser.c       ****         tmparr[2] = period_ms >> 16;
 129              		.loc 1 53 0
 130 0090 2B0C     		lsrs	r3, r5, #16
 131 0092 8DF80E30 		strb	r3, [sp, #14]
  54:Laser.c       ****         tmparr[3] = period_ms >> 24;// Higher order
 132              		.loc 1 54 0
 133 0096 2D0E     		lsrs	r5, r5, #24
 134              	.LVL14:
 135 0098 8DF80F50 		strb	r5, [sp, #15]
  55:Laser.c       ****         
  56:Laser.c       ****         I2C.WriteBytes(dev_,SYSTEM_INTERMEASUREMENT_PERIOD, 4, tmparr);
 136              		.loc 1 56 0
 137 009c 2179     		ldrb	r1, [r4, #4]	@ zero_extendqisi2
 138 009e 03AB     		add	r3, sp, #12
 139 00a0 0093     		str	r3, [sp]
 140 00a2 0423     		movs	r3, #4
 141 00a4 1A46     		mov	r2, r3
 142 00a6 2046     		mov	r0, r4
 143 00a8 FFF7FEFF 		bl	_ZN3i2c10WriteBytesEhhhPh
 144              	.LVL15:
  57:Laser.c       ****         
  58:Laser.c       ****         
  59:Laser.c       ****         // VL53L0X_SetInterMeasurementPeriodMilliSeconds() end
  60:Laser.c       **** 
  61:Laser.c       ****         I2C.WriteByte(dev_,SYSRANGE_START, 0x04); // VL53L0X_REG_SYSRANGE_MODE_TIMED
 145              		.loc 1 61 0
 146 00ac 0423     		movs	r3, #4
 147 00ae 0022     		movs	r2, #0
 148 00b0 2179     		ldrb	r1, [r4, #4]	@ zero_extendqisi2
 149 00b2 2046     		mov	r0, r4
 150 00b4 FFF7FEFF 		bl	_ZN3i2c9WriteByteEhhh
 151              	.LVL16:
 152              	.LBE3:
 153 00b8 05E0     		b	.L1
 154              	.LVL17:
 155              	.L2:
  62:Laser.c       ****     }
  63:Laser.c       ****     else
  64:Laser.c       ****     {
  65:Laser.c       ****         // continuous back-to-back mode
  66:Laser.c       ****         I2C.WriteByte(dev_,SYSRANGE_START, 0x02); // VL53L0X_REG_SYSRANGE_MODE_BACKTOBACK
 156              		.loc 1 66 0
 157 00ba 0223     		movs	r3, #2
 158 00bc 0022     		movs	r2, #0
 159 00be 2179     		ldrb	r1, [r4, #4]	@ zero_extendqisi2
 160 00c0 2046     		mov	r0, r4
 161 00c2 FFF7FEFF 		bl	_ZN3i2c9WriteByteEhhh
 162              	.LVL18:
ARM GAS  C:\Users\hejmi\AppData\Local\Temp\ccFM6jcL.s 			page 5


 163              	.L1:
 164              	.LBE2:
  67:Laser.c       ****     }
  68:Laser.c       **** }
 165              		.loc 1 68 0
 166 00c6 05B0     		add	sp, sp, #20
 167              		.cfi_def_cfa_offset 12
 168              		@ sp needed
 169 00c8 30BD     		pop	{r4, r5, pc}
 170              		.cfi_endproc
 171              	.LFE74:
 172              		.fnend
 173              		.size	_ZN5Laser15StartContinuousEm, .-_ZN5Laser15StartContinuousEm
 174 00ca 00BF     		.section	.text._ZN5Laser14StopContinuousEv,"ax",%progbits
 175              		.align	2
 176              		.global	_ZN5Laser14StopContinuousEv
 177              		.thumb
 178              		.thumb_func
 179              		.type	_ZN5Laser14StopContinuousEv, %function
 180              	_ZN5Laser14StopContinuousEv:
 181              		.fnstart
 182              	.LFB75:
  69:Laser.c       **** 
  70:Laser.c       **** // Stop continuous measurements
  71:Laser.c       **** // based on VL53L0X_StopMeasurement()
  72:Laser.c       **** void Laser::StopContinuous(void)
  73:Laser.c       **** {
 183              		.loc 1 73 0
 184              		.cfi_startproc
 185              		@ args = 0, pretend = 0, frame = 0
 186              		@ frame_needed = 0, uses_anonymous_args = 0
 187              	.LVL19:
 188 0000 10B5     		push	{r4, lr}
 189              		.save {r4, lr}
 190              		.cfi_def_cfa_offset 8
 191              		.cfi_offset 4, -8
 192              		.cfi_offset 14, -4
 193 0002 0446     		mov	r4, r0
  74:Laser.c       ****   I2C.WriteByte(dev_,SYSRANGE_START, 0x01); // VL53L0X_REG_SYSRANGE_MODE_SINGLESHOT
 194              		.loc 1 74 0
 195 0004 0123     		movs	r3, #1
 196 0006 0022     		movs	r2, #0
 197 0008 0179     		ldrb	r1, [r0, #4]	@ zero_extendqisi2
 198 000a FFF7FEFF 		bl	_ZN3i2c9WriteByteEhhh
 199              	.LVL20:
  75:Laser.c       **** 
  76:Laser.c       ****   I2C.WriteByte(dev_,0xFF, 0x01);
 200              		.loc 1 76 0
 201 000e 0123     		movs	r3, #1
 202 0010 FF22     		movs	r2, #255
 203 0012 2179     		ldrb	r1, [r4, #4]	@ zero_extendqisi2
 204 0014 2046     		mov	r0, r4
 205 0016 FFF7FEFF 		bl	_ZN3i2c9WriteByteEhhh
 206              	.LVL21:
  77:Laser.c       ****   I2C.WriteByte(dev_,0x00, 0x00);
 207              		.loc 1 77 0
 208 001a 0023     		movs	r3, #0
ARM GAS  C:\Users\hejmi\AppData\Local\Temp\ccFM6jcL.s 			page 6


 209 001c 1A46     		mov	r2, r3
 210 001e 2179     		ldrb	r1, [r4, #4]	@ zero_extendqisi2
 211 0020 2046     		mov	r0, r4
 212 0022 FFF7FEFF 		bl	_ZN3i2c9WriteByteEhhh
 213              	.LVL22:
  78:Laser.c       ****   I2C.WriteByte(dev_,0x91, 0x00);
 214              		.loc 1 78 0
 215 0026 0023     		movs	r3, #0
 216 0028 9122     		movs	r2, #145
 217 002a 2179     		ldrb	r1, [r4, #4]	@ zero_extendqisi2
 218 002c 2046     		mov	r0, r4
 219 002e FFF7FEFF 		bl	_ZN3i2c9WriteByteEhhh
 220              	.LVL23:
  79:Laser.c       ****   I2C.WriteByte(dev_,0x00, 0x01);
 221              		.loc 1 79 0
 222 0032 0123     		movs	r3, #1
 223 0034 0022     		movs	r2, #0
 224 0036 2179     		ldrb	r1, [r4, #4]	@ zero_extendqisi2
 225 0038 2046     		mov	r0, r4
 226 003a FFF7FEFF 		bl	_ZN3i2c9WriteByteEhhh
 227              	.LVL24:
  80:Laser.c       ****   I2C.WriteByte(dev_,0xFF, 0x00);
 228              		.loc 1 80 0
 229 003e 0023     		movs	r3, #0
 230 0040 FF22     		movs	r2, #255
 231 0042 2179     		ldrb	r1, [r4, #4]	@ zero_extendqisi2
 232 0044 2046     		mov	r0, r4
 233 0046 FFF7FEFF 		bl	_ZN3i2c9WriteByteEhhh
 234              	.LVL25:
 235 004a 10BD     		pop	{r4, pc}
 236              		.cfi_endproc
 237              	.LFE75:
 238              		.fnend
 239              		.size	_ZN5Laser14StopContinuousEv, .-_ZN5Laser14StopContinuousEv
 240              		.section	.text._ZN5Laser30ReadRangeContinuousMillimetersEv,"ax",%progbits
 241              		.align	2
 242              		.global	_ZN5Laser30ReadRangeContinuousMillimetersEv
 243              		.thumb
 244              		.thumb_func
 245              		.type	_ZN5Laser30ReadRangeContinuousMillimetersEv, %function
 246              	_ZN5Laser30ReadRangeContinuousMillimetersEv:
 247              		.fnstart
 248              	.LFB76:
  81:Laser.c       **** }
  82:Laser.c       **** 
  83:Laser.c       **** // Returns a range reading in millimeters when continuous mode is active
  84:Laser.c       **** // (readRangeSingleMillimeters() also calls this function after starting a
  85:Laser.c       **** // single-shot range measurement)
  86:Laser.c       **** uint16_t Laser::ReadRangeContinuousMillimeters(void)
  87:Laser.c       **** {
 249              		.loc 1 87 0
 250              		.cfi_startproc
 251              		@ args = 0, pretend = 0, frame = 8
 252              		@ frame_needed = 0, uses_anonymous_args = 0
 253              	.LVL26:
 254 0000 30B5     		push	{r4, r5, lr}
 255              		.save {r4, r5, lr}
ARM GAS  C:\Users\hejmi\AppData\Local\Temp\ccFM6jcL.s 			page 7


 256              		.cfi_def_cfa_offset 12
 257              		.cfi_offset 4, -12
 258              		.cfi_offset 5, -8
 259              		.cfi_offset 14, -4
 260              		.pad #20
 261 0002 85B0     		sub	sp, sp, #20
 262              		.cfi_def_cfa_offset 32
 263 0004 0446     		mov	r4, r0
  88:Laser.c       ****     //TODO: Fix timeouts to avoid deadlocking etc.
  89:Laser.c       ****     //startTimeout();
  90:Laser.c       ****     uint8_t tmp = 0;
 264              		.loc 1 90 0
 265 0006 0023     		movs	r3, #0
 266 0008 8DF80F30 		strb	r3, [sp, #15]
 267              	.LVL27:
 268              	.L10:
  91:Laser.c       ****     while ((tmp & 0x07) == 0)
 269              		.loc 1 91 0
 270 000c 9DF80F30 		ldrb	r3, [sp, #15]	@ zero_extendqisi2
 271 0010 13F0070F 		tst	r3, #7
 272 0014 07D1     		bne	.L9
  92:Laser.c       ****     {
  93:Laser.c       ****         if (/*checkTimeoutExpired()*/0)
  94:Laser.c       ****         {
  95:Laser.c       ****         //did_timeout = true;
  96:Laser.c       ****         return 65535;   // Probably returns max-range if there was an error
  97:Laser.c       ****         }
  98:Laser.c       ****         I2C.ReadByte(dev_,RESULT_INTERRUPT_STATUS,&tmp); //readReg(RESULT_INTERRUPT_STATUS)
 273              		.loc 1 98 0
 274 0016 0DF10F03 		add	r3, sp, #15
 275 001a 1322     		movs	r2, #19
 276 001c 2179     		ldrb	r1, [r4, #4]	@ zero_extendqisi2
 277 001e 2046     		mov	r0, r4
 278 0020 FFF7FEFF 		bl	_ZN3i2c8ReadByteEhhPh
 279              	.LVL28:
 280 0024 F2E7     		b	.L10
 281              	.L9:
  99:Laser.c       ****     }
 100:Laser.c       **** 
 101:Laser.c       ****     // assumptions: Linearity Corrective Gain is 1000 (default);
 102:Laser.c       ****     // fractional ranging is not enabled
 103:Laser.c       ****     // readReg16Bit with PSoC
 104:Laser.c       ****     uint8_t range8bit[2];
 105:Laser.c       ****     I2C.ReadBytes(dev_,RESULT_RANGE_STATUS+10,2,range8bit);
 282              		.loc 1 105 0
 283 0026 2179     		ldrb	r1, [r4, #4]	@ zero_extendqisi2
 284 0028 03AB     		add	r3, sp, #12
 285 002a 0093     		str	r3, [sp]
 286 002c 0223     		movs	r3, #2
 287 002e 1E22     		movs	r2, #30
 288 0030 2046     		mov	r0, r4
 289 0032 FFF7FEFF 		bl	_ZN3i2c9ReadBytesEhhhPh
 290              	.LVL29:
 106:Laser.c       ****     uint16_t range = (range8bit[0]<<8) + range8bit[1];
 291              		.loc 1 106 0
 292 0036 9DF80C50 		ldrb	r5, [sp, #12]	@ zero_extendqisi2
 293 003a 9DF80D30 		ldrb	r3, [sp, #13]	@ zero_extendqisi2
ARM GAS  C:\Users\hejmi\AppData\Local\Temp\ccFM6jcL.s 			page 8


 294 003e 03EB0525 		add	r5, r3, r5, lsl #8
 295 0042 ADB2     		uxth	r5, r5
 296              	.LVL30:
 107:Laser.c       ****     
 108:Laser.c       ****     //writeReg(SYSTEM_INTERRUPT_CLEAR, 0x01);
 109:Laser.c       ****     I2C.WriteByte(dev_,SYSTEM_INTERRUPT_CLEAR,0x01);
 297              		.loc 1 109 0
 298 0044 0123     		movs	r3, #1
 299 0046 0B22     		movs	r2, #11
 300 0048 2179     		ldrb	r1, [r4, #4]	@ zero_extendqisi2
 301 004a 2046     		mov	r0, r4
 302 004c FFF7FEFF 		bl	_ZN3i2c9WriteByteEhhh
 303              	.LVL31:
 110:Laser.c       ****     return range;
 111:Laser.c       **** }
 304              		.loc 1 111 0
 305 0050 2846     		mov	r0, r5
 306 0052 05B0     		add	sp, sp, #20
 307              		.cfi_def_cfa_offset 12
 308              		@ sp needed
 309 0054 30BD     		pop	{r4, r5, pc}
 310              		.cfi_endproc
 311              	.LFE76:
 312              		.fnend
 313              		.size	_ZN5Laser30ReadRangeContinuousMillimetersEv, .-_ZN5Laser30ReadRangeContinuousMillimetersEv
 314 0056 00BF     		.section	.text._ZN5Laser22getSequenceStepEnablesEP19SequenceStepEnables,"ax",%progbits
 315              		.align	2
 316              		.global	_ZN5Laser22getSequenceStepEnablesEP19SequenceStepEnables
 317              		.thumb
 318              		.thumb_func
 319              		.type	_ZN5Laser22getSequenceStepEnablesEP19SequenceStepEnables, %function
 320              	_ZN5Laser22getSequenceStepEnablesEP19SequenceStepEnables:
 321              		.fnstart
 322              	.LFB82:
 112:Laser.c       **** 
 113:Laser.c       **** /******* Init functions *********/
 114:Laser.c       **** bool Laser::Init(bool io_2v8)
 115:Laser.c       **** { 
 116:Laser.c       ****     I2CInit();
 117:Laser.c       ****     DataInit(io_2v8);
 118:Laser.c       ****     StaticInit();
 119:Laser.c       ****     PerformRefCalibration();
 120:Laser.c       ****     return true;
 121:Laser.c       **** }
 122:Laser.c       **** 
 123:Laser.c       **** bool Laser::PerformRefCalibration()
 124:Laser.c       **** {
 125:Laser.c       ****     // -- VL53L0X_perform_vhv_calibration() begin
 126:Laser.c       ****     I2C.WriteByte(dev_,SYSTEM_SEQUENCE_CONFIG, 0x01);
 127:Laser.c       ****     if (!performSingleRefCalibration(0x40)) { return false; }
 128:Laser.c       ****     // -- VL53L0X_perform_vhv_calibration() end
 129:Laser.c       **** 
 130:Laser.c       ****     // -- VL53L0X_perform_phase_calibration() begin
 131:Laser.c       ****     I2C.WriteByte(dev_,SYSTEM_SEQUENCE_CONFIG, 0x02);
 132:Laser.c       ****     if (!performSingleRefCalibration(0x00)) { return false; }
 133:Laser.c       ****     // -- VL53L0X_perform_phase_calibration() end
 134:Laser.c       **** 
ARM GAS  C:\Users\hejmi\AppData\Local\Temp\ccFM6jcL.s 			page 9


 135:Laser.c       ****     // "restore the previous Sequence Config"
 136:Laser.c       ****     I2C.WriteByte(dev_,SYSTEM_SEQUENCE_CONFIG, 0xE8);
 137:Laser.c       ****     return true;
 138:Laser.c       **** }
 139:Laser.c       **** 
 140:Laser.c       **** void Laser::StaticInit()
 141:Laser.c       **** {
 142:Laser.c       ****     uint8_t spad_count;
 143:Laser.c       ****     bool spad_type_is_aperture;
 144:Laser.c       ****     if (!getSpadInfo(&spad_count, &spad_type_is_aperture)) { return; }
 145:Laser.c       ****     
 146:Laser.c       ****     // The SPAD map (RefGoodSpadMap) is read by VL53L0X_get_info_from_device() in
 147:Laser.c       ****     // the API, but the same data seems to be more easily readable from
 148:Laser.c       ****     // GLOBAL_CONFIG_SPAD_ENABLES_REF_0 through _6, so read it from there
 149:Laser.c       ****     uint8_t ref_spad_map[6];
 150:Laser.c       ****     I2C.ReadBytes(dev_,GLOBAL_CONFIG_SPAD_ENABLES_REF_0, 6,ref_spad_map);
 151:Laser.c       **** 
 152:Laser.c       ****     // -- VL53L0X_set_reference_spads() begin (assume NVM values are valid)
 153:Laser.c       ****     I2C.WriteByte(dev_,0xFF, 0x01);
 154:Laser.c       ****     I2C.WriteByte(dev_,DYNAMIC_SPAD_REF_EN_START_OFFSET, 0x00);
 155:Laser.c       ****     I2C.WriteByte(dev_,DYNAMIC_SPAD_NUM_REQUESTED_REF_SPAD, 0x2C);
 156:Laser.c       ****     I2C.WriteByte(dev_,0xFF, 0x00);
 157:Laser.c       ****     I2C.WriteByte(dev_,GLOBAL_CONFIG_REF_EN_START_SELECT, 0xB4);
 158:Laser.c       **** 
 159:Laser.c       ****     uint8_t first_spad_to_enable = spad_type_is_aperture ? 12 : 0; // 12 is the first aperture spad
 160:Laser.c       ****     uint8_t spads_enabled = 0;
 161:Laser.c       ****     
 162:Laser.c       ****     /*this is fucking magic thanks pololu*/
 163:Laser.c       ****     for (uint8_t i = 0; i < 48; i++)
 164:Laser.c       ****     {
 165:Laser.c       ****         if (i < first_spad_to_enable || spads_enabled == spad_count)
 166:Laser.c       ****         {
 167:Laser.c       ****           // This bit is lower than the first one that should be enabled, or
 168:Laser.c       ****           // (reference_spad_count) bits have already been enabled, so zero this bit
 169:Laser.c       ****           ref_spad_map[i / 8] &= ~(1 << (i % 8));
 170:Laser.c       ****         }
 171:Laser.c       ****         else if ((ref_spad_map[i / 8] >> (i % 8)) & 0x1)
 172:Laser.c       ****         {
 173:Laser.c       ****           spads_enabled++;
 174:Laser.c       ****         }
 175:Laser.c       ****     }
 176:Laser.c       ****     
 177:Laser.c       ****     I2C.WriteBytes(dev_,GLOBAL_CONFIG_SPAD_ENABLES_REF_0,6,ref_spad_map);
 178:Laser.c       ****     LoadTuningSettings();
 179:Laser.c       ****     SetGpioConfig();
 180:Laser.c       ****     
 181:Laser.c       ****     uint32_t measurement_timing_budget_us = getMeasurementTimingBudget();
 182:Laser.c       ****     
 183:Laser.c       ****     // "Disable MSRC and TCC by default"
 184:Laser.c       ****     // MSRC = Minimum Signal Rate Check
 185:Laser.c       ****     // TCC = Target CentreCheck
 186:Laser.c       ****     // -- VL53L0X_SetSequenceStepEnable() begin
 187:Laser.c       ****     I2C.WriteByte(dev_,SYSTEM_SEQUENCE_CONFIG, 0xE8);
 188:Laser.c       ****     // -- VL53L0X_SetSequenceStepEnable() end
 189:Laser.c       ****     
 190:Laser.c       ****     // "Recalculate timing budget"
 191:Laser.c       ****     setMeasurementTimingBudget(measurement_timing_budget_us);
ARM GAS  C:\Users\hejmi\AppData\Local\Temp\ccFM6jcL.s 			page 10


 192:Laser.c       ****     
 193:Laser.c       ****     //END
 194:Laser.c       **** }
 195:Laser.c       **** 
 196:Laser.c       **** // Set the measurement timing budget in microseconds, which is the time allowed
 197:Laser.c       **** // for one measurement; the ST API and this library take care of splitting the
 198:Laser.c       **** // timing budget among the sub-steps in the ranging sequence. A longer timing
 199:Laser.c       **** // budget allows for more accurate measurements. Increasing the budget by a
 200:Laser.c       **** // factor of N decreases the range measurement standard deviation by a factor of
 201:Laser.c       **** // sqrt(N). Defaults to about 33 milliseconds; the minimum is 20 ms.
 202:Laser.c       **** // based on VL53L0X_set_measurement_timing_budget_micro_seconds()
 203:Laser.c       **** bool Laser::setMeasurementTimingBudget(uint32_t budget_us)
 204:Laser.c       **** {
 205:Laser.c       ****   SequenceStepEnables enables;
 206:Laser.c       ****   SequenceStepTimeouts timeouts;
 207:Laser.c       **** 
 208:Laser.c       ****   uint16_t const StartOverhead      = 1320; // note that this is different than the value in get_
 209:Laser.c       ****   uint16_t const EndOverhead        = 960;
 210:Laser.c       ****   uint16_t const MsrcOverhead       = 660;
 211:Laser.c       ****   uint16_t const TccOverhead        = 590;
 212:Laser.c       ****   uint16_t const DssOverhead        = 690;
 213:Laser.c       ****   uint16_t const PreRangeOverhead   = 660;
 214:Laser.c       ****   uint16_t const FinalRangeOverhead = 550;
 215:Laser.c       **** 
 216:Laser.c       ****   uint32_t const MinTimingBudget = 20000;
 217:Laser.c       **** 
 218:Laser.c       ****   if (budget_us < MinTimingBudget) { return false; }
 219:Laser.c       **** 
 220:Laser.c       ****   uint32_t used_budget_us = StartOverhead + EndOverhead;
 221:Laser.c       **** 
 222:Laser.c       ****   getSequenceStepEnables(&enables);
 223:Laser.c       ****   getSequenceStepTimeouts(&enables, &timeouts);
 224:Laser.c       **** 
 225:Laser.c       ****   if (enables.tcc)
 226:Laser.c       ****   {
 227:Laser.c       ****     used_budget_us += (timeouts.msrc_dss_tcc_us + TccOverhead);
 228:Laser.c       ****   }
 229:Laser.c       **** 
 230:Laser.c       ****   if (enables.dss)
 231:Laser.c       ****   {
 232:Laser.c       ****     used_budget_us += 2 * (timeouts.msrc_dss_tcc_us + DssOverhead);
 233:Laser.c       ****   }
 234:Laser.c       ****   else if (enables.msrc)
 235:Laser.c       ****   {
 236:Laser.c       ****     used_budget_us += (timeouts.msrc_dss_tcc_us + MsrcOverhead);
 237:Laser.c       ****   }
 238:Laser.c       **** 
 239:Laser.c       ****   if (enables.pre_range)
 240:Laser.c       ****   {
 241:Laser.c       ****     used_budget_us += (timeouts.pre_range_us + PreRangeOverhead);
 242:Laser.c       ****   }
 243:Laser.c       **** 
 244:Laser.c       ****   if (enables.final_range)
 245:Laser.c       ****   {
 246:Laser.c       ****     used_budget_us += FinalRangeOverhead;
 247:Laser.c       **** 
 248:Laser.c       ****     // "Note that the final range timeout is determined by the timing
ARM GAS  C:\Users\hejmi\AppData\Local\Temp\ccFM6jcL.s 			page 11


 249:Laser.c       ****     // budget and the sum of all other timeouts within the sequence.
 250:Laser.c       ****     // If there is no room for the final range timeout, then an error
 251:Laser.c       ****     // will be set. Otherwise the remaining time will be applied to
 252:Laser.c       ****     // the final range."
 253:Laser.c       **** 
 254:Laser.c       ****     if (used_budget_us > budget_us)
 255:Laser.c       ****     {
 256:Laser.c       ****       // "Requested timeout too big."
 257:Laser.c       ****       return false;
 258:Laser.c       ****     }
 259:Laser.c       **** 
 260:Laser.c       ****     uint32_t final_range_timeout_us = budget_us - used_budget_us;
 261:Laser.c       **** 
 262:Laser.c       ****     // set_sequence_step_timeout() begin
 263:Laser.c       ****     // (SequenceStepId == VL53L0X_SEQUENCESTEP_FINAL_RANGE)
 264:Laser.c       **** 
 265:Laser.c       ****     // "For the final range timeout, the pre-range timeout
 266:Laser.c       ****     //  must be added. To do this both final and pre-range
 267:Laser.c       ****     //  timeouts must be expressed in macro periods MClks
 268:Laser.c       ****     //  because they have different vcsel periods."
 269:Laser.c       **** 
 270:Laser.c       ****     uint16_t final_range_timeout_mclks =
 271:Laser.c       ****       timeoutMicrosecondsToMclks(final_range_timeout_us,
 272:Laser.c       ****                                  timeouts.final_range_vcsel_period_pclks);
 273:Laser.c       **** 
 274:Laser.c       ****     if (enables.pre_range)
 275:Laser.c       ****     {
 276:Laser.c       ****       final_range_timeout_mclks += timeouts.pre_range_mclks;
 277:Laser.c       ****     }
 278:Laser.c       **** 
 279:Laser.c       ****     uint8_t tmparray[2]={0,0};
 280:Laser.c       ****     uint16_t tmp = encodeTimeout(final_range_timeout_mclks);
 281:Laser.c       ****     tmparray[0] = tmp & 0xff;   // Low
 282:Laser.c       ****     tmparray[1] = (tmp >> 8);   // High
 283:Laser.c       ****     I2C.WriteBytes(dev_,FINAL_RANGE_CONFIG_TIMEOUT_MACROP_HI,2,tmparray);
 284:Laser.c       ****     
 285:Laser.c       ****     // set_sequence_step_timeout() end
 286:Laser.c       **** 
 287:Laser.c       ****     measurement_timing_budget_us = budget_us; // store for internal reuse
 288:Laser.c       ****   }
 289:Laser.c       ****   return true;
 290:Laser.c       **** }
 291:Laser.c       **** 
 292:Laser.c       **** // Get the measurement timing budget in microseconds
 293:Laser.c       **** // based on VL53L0X_get_measurement_timing_budget_micro_seconds()
 294:Laser.c       **** // in us
 295:Laser.c       **** uint32_t Laser::getMeasurementTimingBudget(void)
 296:Laser.c       **** {
 297:Laser.c       ****   SequenceStepEnables enables;
 298:Laser.c       ****   SequenceStepTimeouts timeouts;
 299:Laser.c       **** 
 300:Laser.c       ****   uint16_t const StartOverhead     = 1910; // note that this is different than the value in set_
 301:Laser.c       ****   uint16_t const EndOverhead        = 960;
 302:Laser.c       ****   uint16_t const MsrcOverhead       = 660;
 303:Laser.c       ****   uint16_t const TccOverhead        = 590;
 304:Laser.c       ****   uint16_t const DssOverhead        = 690;
 305:Laser.c       ****   uint16_t const PreRangeOverhead   = 660;
ARM GAS  C:\Users\hejmi\AppData\Local\Temp\ccFM6jcL.s 			page 12


 306:Laser.c       ****   uint16_t const FinalRangeOverhead = 550;
 307:Laser.c       **** 
 308:Laser.c       ****   // "Start and end overhead times always present"
 309:Laser.c       ****   uint32_t budget_us = StartOverhead + EndOverhead;
 310:Laser.c       **** 
 311:Laser.c       ****   getSequenceStepEnables(&enables);
 312:Laser.c       ****   getSequenceStepTimeouts(&enables, &timeouts);
 313:Laser.c       **** 
 314:Laser.c       ****   if (enables.tcc)
 315:Laser.c       ****   {
 316:Laser.c       ****     budget_us += (timeouts.msrc_dss_tcc_us + TccOverhead);
 317:Laser.c       ****   }
 318:Laser.c       **** 
 319:Laser.c       ****   if (enables.dss)
 320:Laser.c       ****   {
 321:Laser.c       ****     budget_us += 2 * (timeouts.msrc_dss_tcc_us + DssOverhead);
 322:Laser.c       ****   }
 323:Laser.c       ****   else if (enables.msrc)
 324:Laser.c       ****   {
 325:Laser.c       ****     budget_us += (timeouts.msrc_dss_tcc_us + MsrcOverhead);
 326:Laser.c       ****   }
 327:Laser.c       **** 
 328:Laser.c       ****   if (enables.pre_range)
 329:Laser.c       ****   {
 330:Laser.c       ****     budget_us += (timeouts.pre_range_us + PreRangeOverhead);
 331:Laser.c       ****   }
 332:Laser.c       **** 
 333:Laser.c       ****   if (enables.final_range)
 334:Laser.c       ****   {
 335:Laser.c       ****     budget_us += (timeouts.final_range_us + FinalRangeOverhead);
 336:Laser.c       ****   }
 337:Laser.c       **** 
 338:Laser.c       ****   measurement_timing_budget_us = budget_us; // store for internal reuse
 339:Laser.c       ****   return budget_us;
 340:Laser.c       **** }
 341:Laser.c       **** 
 342:Laser.c       **** // Get sequence step enables
 343:Laser.c       **** // based on VL53L0X_GetSequenceStepEnables()
 344:Laser.c       **** void Laser::getSequenceStepEnables(SequenceStepEnables * enables)
 345:Laser.c       **** {
 323              		.loc 1 345 0
 324              		.cfi_startproc
 325              		@ args = 0, pretend = 0, frame = 8
 326              		@ frame_needed = 0, uses_anonymous_args = 0
 327              	.LVL32:
 328 0000 10B5     		push	{r4, lr}
 329              		.save {r4, lr}
 330              		.cfi_def_cfa_offset 8
 331              		.cfi_offset 4, -8
 332              		.cfi_offset 14, -4
 333              		.pad #8
 334 0002 82B0     		sub	sp, sp, #8
 335              		.cfi_def_cfa_offset 16
 336 0004 0C46     		mov	r4, r1
 346:Laser.c       ****     uint8_t sequence_config;
 347:Laser.c       ****     I2C.ReadByte(dev_,SYSTEM_SEQUENCE_CONFIG,&sequence_config);
 337              		.loc 1 347 0
ARM GAS  C:\Users\hejmi\AppData\Local\Temp\ccFM6jcL.s 			page 13


 338 0006 0DF10703 		add	r3, sp, #7
 339 000a 0122     		movs	r2, #1
 340 000c 0179     		ldrb	r1, [r0, #4]	@ zero_extendqisi2
 341              	.LVL33:
 342 000e FFF7FEFF 		bl	_ZN3i2c8ReadByteEhhPh
 343              	.LVL34:
 348:Laser.c       **** 
 349:Laser.c       ****     enables->tcc          = (sequence_config >> 4) & 0x1;
 344              		.loc 1 349 0
 345 0012 9DF80730 		ldrb	r3, [sp, #7]	@ zero_extendqisi2
 346 0016 C3F30012 		ubfx	r2, r3, #4, #1
 347 001a 2270     		strb	r2, [r4]
 350:Laser.c       ****     enables->dss          = (sequence_config >> 3) & 0x1;
 348              		.loc 1 350 0
 349 001c C3F3C002 		ubfx	r2, r3, #3, #1
 350 0020 A270     		strb	r2, [r4, #2]
 351:Laser.c       ****     enables->msrc         = (sequence_config >> 2) & 0x1;
 351              		.loc 1 351 0
 352 0022 C3F38002 		ubfx	r2, r3, #2, #1
 353 0026 6270     		strb	r2, [r4, #1]
 352:Laser.c       ****     enables->pre_range    = (sequence_config >> 6) & 0x1;
 354              		.loc 1 352 0
 355 0028 C3F38012 		ubfx	r2, r3, #6, #1
 356 002c E270     		strb	r2, [r4, #3]
 353:Laser.c       ****     enables->final_range  = (sequence_config >> 7) & 0x1;
 357              		.loc 1 353 0
 358 002e DB09     		lsrs	r3, r3, #7
 359 0030 2371     		strb	r3, [r4, #4]
 354:Laser.c       **** }
 360              		.loc 1 354 0
 361 0032 02B0     		add	sp, sp, #8
 362              		.cfi_def_cfa_offset 8
 363              		@ sp needed
 364 0034 10BD     		pop	{r4, pc}
 365              		.cfi_endproc
 366              	.LFE82:
 367              		.fnend
 368              		.size	_ZN5Laser22getSequenceStepEnablesEP19SequenceStepEnables, .-_ZN5Laser22getSequenceStepEnable
 369 0036 00BF     		.section	.text._ZN5Laser13decodeTimeoutEt,"ax",%progbits
 370              		.align	2
 371              		.global	_ZN5Laser13decodeTimeoutEt
 372              		.thumb
 373              		.thumb_func
 374              		.type	_ZN5Laser13decodeTimeoutEt, %function
 375              	_ZN5Laser13decodeTimeoutEt:
 376              		.fnstart
 377              	.LFB84:
 355:Laser.c       **** 
 356:Laser.c       **** // Get sequence step timeouts
 357:Laser.c       **** // based on get_sequence_step_timeout(),
 358:Laser.c       **** // but gets all timeouts instead of just the requested one, and also stores
 359:Laser.c       **** // intermediate values
 360:Laser.c       **** void Laser::getSequenceStepTimeouts(SequenceStepEnables const * enables, SequenceStepTimeouts * tim
 361:Laser.c       **** {
 362:Laser.c       ****   uint8_t tmpdata;
 363:Laser.c       ****   timeouts->pre_range_vcsel_period_pclks = getVcselPulsePeriod(VcselPeriodPreRange);
 364:Laser.c       **** 
ARM GAS  C:\Users\hejmi\AppData\Local\Temp\ccFM6jcL.s 			page 14


 365:Laser.c       ****   I2C.ReadBytes(dev_,MSRC_CONFIG_TIMEOUT_MACROP,1,&tmpdata);
 366:Laser.c       ****   timeouts->msrc_dss_tcc_mclks = tmpdata + 1;
 367:Laser.c       ****   timeouts->msrc_dss_tcc_us =
 368:Laser.c       ****     timeoutMclksToMicroseconds(timeouts->msrc_dss_tcc_mclks,
 369:Laser.c       ****                                timeouts->pre_range_vcsel_period_pclks);
 370:Laser.c       **** 
 371:Laser.c       ****   uint16_t  tmp16bit = 0;
 372:Laser.c       ****   uint8_t   tmp8bit[2];
 373:Laser.c       ****   I2C.ReadBytes(dev_,PRE_RANGE_CONFIG_TIMEOUT_MACROP_HI,2,tmp8bit);
 374:Laser.c       ****   tmp16bit = (tmp8bit[0] << 8) + tmp8bit[1];
 375:Laser.c       **** 
 376:Laser.c       ****   timeouts->pre_range_mclks =
 377:Laser.c       ****     decodeTimeout(tmp16bit);
 378:Laser.c       ****   timeouts->pre_range_us =
 379:Laser.c       ****     timeoutMclksToMicroseconds(timeouts->pre_range_mclks,
 380:Laser.c       ****                                timeouts->pre_range_vcsel_period_pclks);
 381:Laser.c       **** 
 382:Laser.c       ****   timeouts->final_range_vcsel_period_pclks = getVcselPulsePeriod((vcselPeriodType)VcselPeriodFinalR
 383:Laser.c       **** 
 384:Laser.c       ****   I2C.ReadBytes(dev_,FINAL_RANGE_CONFIG_TIMEOUT_MACROP_HI,2,tmp8bit);
 385:Laser.c       ****   tmp16bit = (tmp8bit[0] << 8) + tmp8bit[1];
 386:Laser.c       ****   timeouts->final_range_mclks =
 387:Laser.c       ****     decodeTimeout(tmp16bit);
 388:Laser.c       **** 
 389:Laser.c       ****   if (enables->pre_range)
 390:Laser.c       ****   {
 391:Laser.c       ****     timeouts->final_range_mclks -= timeouts->pre_range_mclks;
 392:Laser.c       ****   }
 393:Laser.c       **** 
 394:Laser.c       ****   timeouts->final_range_us =
 395:Laser.c       ****     timeoutMclksToMicroseconds(timeouts->final_range_mclks,
 396:Laser.c       ****                                timeouts->final_range_vcsel_period_pclks);
 397:Laser.c       **** }
 398:Laser.c       **** 
 399:Laser.c       **** // Decode sequence step timeout in MCLKs from register value
 400:Laser.c       **** // based on VL53L0X_decode_timeout()
 401:Laser.c       **** // Note: the original function returned a uint32_t, but the return value is
 402:Laser.c       **** // always stored in a uint16_t.
 403:Laser.c       **** uint16_t Laser::decodeTimeout(uint16_t reg_val)
 404:Laser.c       **** {
 378              		.loc 1 404 0
 379              		.cfi_startproc
 380              		@ args = 0, pretend = 0, frame = 0
 381              		@ frame_needed = 0, uses_anonymous_args = 0
 382              		@ link register save eliminated.
 383              	.LVL35:
 405:Laser.c       ****   // format: "(LSByte * 2^MSByte) + 1"
 406:Laser.c       ****   return (uint16_t)((reg_val & 0x00FF) <<
 384              		.loc 1 406 0
 385 0000 CBB2     		uxtb	r3, r1
 386 0002 080A     		lsrs	r0, r1, #8
 387              	.LVL36:
 388 0004 03FA00F0 		lsl	r0, r3, r0
 407:Laser.c       ****          (uint16_t)((reg_val & 0xFF00) >> 8)) + 1;
 389              		.loc 1 407 0
 390 0008 0130     		adds	r0, r0, #1
 408:Laser.c       **** }
ARM GAS  C:\Users\hejmi\AppData\Local\Temp\ccFM6jcL.s 			page 15


 391              		.loc 1 408 0
 392 000a 80B2     		uxth	r0, r0
 393 000c 7047     		bx	lr
 394              		.cfi_endproc
 395              	.LFE84:
 396              		.cantunwind
 397              		.fnend
 398              		.size	_ZN5Laser13decodeTimeoutEt, .-_ZN5Laser13decodeTimeoutEt
 399 000e 00BF     		.section	.text._ZN5Laser19getVcselPulsePeriodE15vcselPeriodType,"ax",%progbits
 400              		.align	2
 401              		.global	_ZN5Laser19getVcselPulsePeriodE15vcselPeriodType
 402              		.thumb
 403              		.thumb_func
 404              		.type	_ZN5Laser19getVcselPulsePeriodE15vcselPeriodType, %function
 405              	_ZN5Laser19getVcselPulsePeriodE15vcselPeriodType:
 406              		.fnstart
 407              	.LFB85:
 409:Laser.c       **** 
 410:Laser.c       **** // Get the VCSEL pulse period in PCLKs for the given period type.
 411:Laser.c       **** // based on VL53L0X_get_vcsel_pulse_period()
 412:Laser.c       **** uint8_t Laser::getVcselPulsePeriod(vcselPeriodType type)
 413:Laser.c       **** {
 408              		.loc 1 413 0
 409              		.cfi_startproc
 410              		@ args = 0, pretend = 0, frame = 8
 411              		@ frame_needed = 0, uses_anonymous_args = 0
 412              	.LVL37:
 413 0000 00B5     		push	{lr}
 414              		.save {lr}
 415              		.cfi_def_cfa_offset 4
 416              		.cfi_offset 14, -4
 417              		.pad #12
 418 0002 83B0     		sub	sp, sp, #12
 419              		.cfi_def_cfa_offset 16
 414:Laser.c       ****     uint8_t tmp = 0;
 420              		.loc 1 414 0
 421 0004 0023     		movs	r3, #0
 422 0006 8DF80730 		strb	r3, [sp, #7]
 415:Laser.c       ****     if (type == VcselPeriodPreRange)
 423              		.loc 1 415 0
 424 000a 59B9     		cbnz	r1, .L16
 416:Laser.c       ****     {
 417:Laser.c       ****         I2C.ReadByte(dev_,PRE_RANGE_CONFIG_VCSEL_PERIOD,&tmp);
 425              		.loc 1 417 0
 426 000c 0DF10703 		add	r3, sp, #7
 427 0010 5022     		movs	r2, #80
 428 0012 0179     		ldrb	r1, [r0, #4]	@ zero_extendqisi2
 429              	.LVL38:
 430 0014 FFF7FEFF 		bl	_ZN3i2c8ReadByteEhhPh
 431              	.LVL39:
 418:Laser.c       ****         return decodeVcselPeriod(tmp);
 432              		.loc 1 418 0
 433 0018 9DF80700 		ldrb	r0, [sp, #7]	@ zero_extendqisi2
 434 001c 0130     		adds	r0, r0, #1
 435 001e 4000     		lsls	r0, r0, #1
 436 0020 C0B2     		uxtb	r0, r0
 437 0022 0EE0     		b	.L17
ARM GAS  C:\Users\hejmi\AppData\Local\Temp\ccFM6jcL.s 			page 16


 438              	.LVL40:
 439              	.L16:
 419:Laser.c       ****     }
 420:Laser.c       ****     else if (type == VcselPeriodFinalRange)
 440              		.loc 1 420 0
 441 0024 0129     		cmp	r1, #1
 442 0026 0BD1     		bne	.L18
 421:Laser.c       ****     {
 422:Laser.c       ****         I2C.ReadByte(dev_,FINAL_RANGE_CONFIG_VCSEL_PERIOD,&tmp);
 443              		.loc 1 422 0
 444 0028 0DF10703 		add	r3, sp, #7
 445 002c 7022     		movs	r2, #112
 446 002e 0179     		ldrb	r1, [r0, #4]	@ zero_extendqisi2
 447              	.LVL41:
 448 0030 FFF7FEFF 		bl	_ZN3i2c8ReadByteEhhPh
 449              	.LVL42:
 423:Laser.c       ****         return decodeVcselPeriod(tmp);
 450              		.loc 1 423 0
 451 0034 9DF80700 		ldrb	r0, [sp, #7]	@ zero_extendqisi2
 452 0038 0130     		adds	r0, r0, #1
 453 003a 4000     		lsls	r0, r0, #1
 454 003c C0B2     		uxtb	r0, r0
 455 003e 00E0     		b	.L17
 456              	.LVL43:
 457              	.L18:
 424:Laser.c       ****     }
 425:Laser.c       ****     else { return 255; }
 458              		.loc 1 425 0
 459 0040 FF20     		movs	r0, #255
 460              	.LVL44:
 461              	.L17:
 426:Laser.c       **** }
 462              		.loc 1 426 0
 463 0042 03B0     		add	sp, sp, #12
 464              		.cfi_def_cfa_offset 4
 465              		@ sp needed
 466 0044 5DF804FB 		ldr	pc, [sp], #4
 467              		.cfi_endproc
 468              	.LFE85:
 469              		.fnend
 470              		.size	_ZN5Laser19getVcselPulsePeriodE15vcselPeriodType, .-_ZN5Laser19getVcselPulsePeriodE15vcselPe
 471              		.section	.text._ZN5Laser18LoadTuningSettingsEv,"ax",%progbits
 472              		.align	2
 473              		.global	_ZN5Laser18LoadTuningSettingsEv
 474              		.thumb
 475              		.thumb_func
 476              		.type	_ZN5Laser18LoadTuningSettingsEv, %function
 477              	_ZN5Laser18LoadTuningSettingsEv:
 478              		.fnstart
 479              	.LFB86:
 427:Laser.c       **** 
 428:Laser.c       **** void Laser::LoadTuningSettings()
 429:Laser.c       **** {
 480              		.loc 1 429 0
 481              		.cfi_startproc
 482              		@ args = 0, pretend = 0, frame = 0
 483              		@ frame_needed = 0, uses_anonymous_args = 0
ARM GAS  C:\Users\hejmi\AppData\Local\Temp\ccFM6jcL.s 			page 17


 484              	.LVL45:
 485 0000 10B5     		push	{r4, lr}
 486              		.save {r4, lr}
 487              		.cfi_def_cfa_offset 8
 488              		.cfi_offset 4, -8
 489              		.cfi_offset 14, -4
 490 0002 0446     		mov	r4, r0
 430:Laser.c       ****   // -- VL53L0X_load_tuning_settings() begin
 431:Laser.c       ****   // DefaultTuningSettings from vl53l0x_tuning.h
 432:Laser.c       ****   I2C.WriteByte(dev_,0xFF, 0x01);
 491              		.loc 1 432 0
 492 0004 0123     		movs	r3, #1
 493 0006 FF22     		movs	r2, #255
 494 0008 0179     		ldrb	r1, [r0, #4]	@ zero_extendqisi2
 495 000a FFF7FEFF 		bl	_ZN3i2c9WriteByteEhhh
 496              	.LVL46:
 433:Laser.c       ****   I2C.WriteByte(dev_,0x00, 0x00);
 497              		.loc 1 433 0
 498 000e 0023     		movs	r3, #0
 499 0010 1A46     		mov	r2, r3
 500 0012 2179     		ldrb	r1, [r4, #4]	@ zero_extendqisi2
 501 0014 2046     		mov	r0, r4
 502 0016 FFF7FEFF 		bl	_ZN3i2c9WriteByteEhhh
 503              	.LVL47:
 434:Laser.c       ****   I2C.WriteByte(dev_,0xFF, 0x00);
 504              		.loc 1 434 0
 505 001a 0023     		movs	r3, #0
 506 001c FF22     		movs	r2, #255
 507 001e 2179     		ldrb	r1, [r4, #4]	@ zero_extendqisi2
 508 0020 2046     		mov	r0, r4
 509 0022 FFF7FEFF 		bl	_ZN3i2c9WriteByteEhhh
 510              	.LVL48:
 435:Laser.c       ****   I2C.WriteByte(dev_,0x09, 0x00);
 511              		.loc 1 435 0
 512 0026 0023     		movs	r3, #0
 513 0028 0922     		movs	r2, #9
 514 002a 2179     		ldrb	r1, [r4, #4]	@ zero_extendqisi2
 515 002c 2046     		mov	r0, r4
 516 002e FFF7FEFF 		bl	_ZN3i2c9WriteByteEhhh
 517              	.LVL49:
 436:Laser.c       ****   I2C.WriteByte(dev_,0x10, 0x00);
 518              		.loc 1 436 0
 519 0032 0023     		movs	r3, #0
 520 0034 1022     		movs	r2, #16
 521 0036 2179     		ldrb	r1, [r4, #4]	@ zero_extendqisi2
 522 0038 2046     		mov	r0, r4
 523 003a FFF7FEFF 		bl	_ZN3i2c9WriteByteEhhh
 524              	.LVL50:
 437:Laser.c       ****   I2C.WriteByte(dev_,0x11, 0x00);
 525              		.loc 1 437 0
 526 003e 0023     		movs	r3, #0
 527 0040 1122     		movs	r2, #17
 528 0042 2179     		ldrb	r1, [r4, #4]	@ zero_extendqisi2
 529 0044 2046     		mov	r0, r4
 530 0046 FFF7FEFF 		bl	_ZN3i2c9WriteByteEhhh
 531              	.LVL51:
 438:Laser.c       ****   I2C.WriteByte(dev_,0x24, 0x01);
ARM GAS  C:\Users\hejmi\AppData\Local\Temp\ccFM6jcL.s 			page 18


 532              		.loc 1 438 0
 533 004a 0123     		movs	r3, #1
 534 004c 2422     		movs	r2, #36
 535 004e 2179     		ldrb	r1, [r4, #4]	@ zero_extendqisi2
 536 0050 2046     		mov	r0, r4
 537 0052 FFF7FEFF 		bl	_ZN3i2c9WriteByteEhhh
 538              	.LVL52:
 439:Laser.c       ****   I2C.WriteByte(dev_,0x25, 0xFF);
 539              		.loc 1 439 0
 540 0056 FF23     		movs	r3, #255
 541 0058 2522     		movs	r2, #37
 542 005a 2179     		ldrb	r1, [r4, #4]	@ zero_extendqisi2
 543 005c 2046     		mov	r0, r4
 544 005e FFF7FEFF 		bl	_ZN3i2c9WriteByteEhhh
 545              	.LVL53:
 440:Laser.c       ****   I2C.WriteByte(dev_,0x75, 0x00);
 546              		.loc 1 440 0
 547 0062 0023     		movs	r3, #0
 548 0064 7522     		movs	r2, #117
 549 0066 2179     		ldrb	r1, [r4, #4]	@ zero_extendqisi2
 550 0068 2046     		mov	r0, r4
 551 006a FFF7FEFF 		bl	_ZN3i2c9WriteByteEhhh
 552              	.LVL54:
 441:Laser.c       ****   I2C.WriteByte(dev_,0xFF, 0x01);
 553              		.loc 1 441 0
 554 006e 0123     		movs	r3, #1
 555 0070 FF22     		movs	r2, #255
 556 0072 2179     		ldrb	r1, [r4, #4]	@ zero_extendqisi2
 557 0074 2046     		mov	r0, r4
 558 0076 FFF7FEFF 		bl	_ZN3i2c9WriteByteEhhh
 559              	.LVL55:
 442:Laser.c       ****   I2C.WriteByte(dev_,0x4E, 0x2C);
 560              		.loc 1 442 0
 561 007a 2C23     		movs	r3, #44
 562 007c 4E22     		movs	r2, #78
 563 007e 2179     		ldrb	r1, [r4, #4]	@ zero_extendqisi2
 564 0080 2046     		mov	r0, r4
 565 0082 FFF7FEFF 		bl	_ZN3i2c9WriteByteEhhh
 566              	.LVL56:
 443:Laser.c       ****   I2C.WriteByte(dev_,0x48, 0x00);
 567              		.loc 1 443 0
 568 0086 0023     		movs	r3, #0
 569 0088 4822     		movs	r2, #72
 570 008a 2179     		ldrb	r1, [r4, #4]	@ zero_extendqisi2
 571 008c 2046     		mov	r0, r4
 572 008e FFF7FEFF 		bl	_ZN3i2c9WriteByteEhhh
 573              	.LVL57:
 444:Laser.c       ****   I2C.WriteByte(dev_,0x30, 0x20);
 574              		.loc 1 444 0
 575 0092 2023     		movs	r3, #32
 576 0094 3022     		movs	r2, #48
 577 0096 2179     		ldrb	r1, [r4, #4]	@ zero_extendqisi2
 578 0098 2046     		mov	r0, r4
 579 009a FFF7FEFF 		bl	_ZN3i2c9WriteByteEhhh
 580              	.LVL58:
 445:Laser.c       ****   I2C.WriteByte(dev_,0xFF, 0x00);
 581              		.loc 1 445 0
ARM GAS  C:\Users\hejmi\AppData\Local\Temp\ccFM6jcL.s 			page 19


 582 009e 0023     		movs	r3, #0
 583 00a0 FF22     		movs	r2, #255
 584 00a2 2179     		ldrb	r1, [r4, #4]	@ zero_extendqisi2
 585 00a4 2046     		mov	r0, r4
 586 00a6 FFF7FEFF 		bl	_ZN3i2c9WriteByteEhhh
 587              	.LVL59:
 446:Laser.c       ****   I2C.WriteByte(dev_,0x30, 0x09);
 588              		.loc 1 446 0
 589 00aa 0923     		movs	r3, #9
 590 00ac 3022     		movs	r2, #48
 591 00ae 2179     		ldrb	r1, [r4, #4]	@ zero_extendqisi2
 592 00b0 2046     		mov	r0, r4
 593 00b2 FFF7FEFF 		bl	_ZN3i2c9WriteByteEhhh
 594              	.LVL60:
 447:Laser.c       ****   I2C.WriteByte(dev_,0x54, 0x00);
 595              		.loc 1 447 0
 596 00b6 0023     		movs	r3, #0
 597 00b8 5422     		movs	r2, #84
 598 00ba 2179     		ldrb	r1, [r4, #4]	@ zero_extendqisi2
 599 00bc 2046     		mov	r0, r4
 600 00be FFF7FEFF 		bl	_ZN3i2c9WriteByteEhhh
 601              	.LVL61:
 448:Laser.c       ****   I2C.WriteByte(dev_,0x31, 0x04);
 602              		.loc 1 448 0
 603 00c2 0423     		movs	r3, #4
 604 00c4 3122     		movs	r2, #49
 605 00c6 2179     		ldrb	r1, [r4, #4]	@ zero_extendqisi2
 606 00c8 2046     		mov	r0, r4
 607 00ca FFF7FEFF 		bl	_ZN3i2c9WriteByteEhhh
 608              	.LVL62:
 449:Laser.c       ****   I2C.WriteByte(dev_,0x32, 0x03);
 609              		.loc 1 449 0
 610 00ce 0323     		movs	r3, #3
 611 00d0 3222     		movs	r2, #50
 612 00d2 2179     		ldrb	r1, [r4, #4]	@ zero_extendqisi2
 613 00d4 2046     		mov	r0, r4
 614 00d6 FFF7FEFF 		bl	_ZN3i2c9WriteByteEhhh
 615              	.LVL63:
 450:Laser.c       ****   I2C.WriteByte(dev_,0x40, 0x83);
 616              		.loc 1 450 0
 617 00da 8323     		movs	r3, #131
 618 00dc 4022     		movs	r2, #64
 619 00de 2179     		ldrb	r1, [r4, #4]	@ zero_extendqisi2
 620 00e0 2046     		mov	r0, r4
 621 00e2 FFF7FEFF 		bl	_ZN3i2c9WriteByteEhhh
 622              	.LVL64:
 451:Laser.c       ****   I2C.WriteByte(dev_,0x46, 0x25);
 623              		.loc 1 451 0
 624 00e6 2523     		movs	r3, #37
 625 00e8 4622     		movs	r2, #70
 626 00ea 2179     		ldrb	r1, [r4, #4]	@ zero_extendqisi2
 627 00ec 2046     		mov	r0, r4
 628 00ee FFF7FEFF 		bl	_ZN3i2c9WriteByteEhhh
 629              	.LVL65:
 452:Laser.c       ****   I2C.WriteByte(dev_,0x60, 0x00);
 630              		.loc 1 452 0
 631 00f2 0023     		movs	r3, #0
ARM GAS  C:\Users\hejmi\AppData\Local\Temp\ccFM6jcL.s 			page 20


 632 00f4 6022     		movs	r2, #96
 633 00f6 2179     		ldrb	r1, [r4, #4]	@ zero_extendqisi2
 634 00f8 2046     		mov	r0, r4
 635 00fa FFF7FEFF 		bl	_ZN3i2c9WriteByteEhhh
 636              	.LVL66:
 453:Laser.c       ****   I2C.WriteByte(dev_,0x27, 0x00);
 637              		.loc 1 453 0
 638 00fe 0023     		movs	r3, #0
 639 0100 2722     		movs	r2, #39
 640 0102 2179     		ldrb	r1, [r4, #4]	@ zero_extendqisi2
 641 0104 2046     		mov	r0, r4
 642 0106 FFF7FEFF 		bl	_ZN3i2c9WriteByteEhhh
 643              	.LVL67:
 454:Laser.c       ****   I2C.WriteByte(dev_,0x50, 0x06);
 644              		.loc 1 454 0
 645 010a 0623     		movs	r3, #6
 646 010c 5022     		movs	r2, #80
 647 010e 2179     		ldrb	r1, [r4, #4]	@ zero_extendqisi2
 648 0110 2046     		mov	r0, r4
 649 0112 FFF7FEFF 		bl	_ZN3i2c9WriteByteEhhh
 650              	.LVL68:
 455:Laser.c       ****   I2C.WriteByte(dev_,0x51, 0x00);
 651              		.loc 1 455 0
 652 0116 0023     		movs	r3, #0
 653 0118 5122     		movs	r2, #81
 654 011a 2179     		ldrb	r1, [r4, #4]	@ zero_extendqisi2
 655 011c 2046     		mov	r0, r4
 656 011e FFF7FEFF 		bl	_ZN3i2c9WriteByteEhhh
 657              	.LVL69:
 456:Laser.c       ****   I2C.WriteByte(dev_,0x52, 0x96);
 658              		.loc 1 456 0
 659 0122 9623     		movs	r3, #150
 660 0124 5222     		movs	r2, #82
 661 0126 2179     		ldrb	r1, [r4, #4]	@ zero_extendqisi2
 662 0128 2046     		mov	r0, r4
 663 012a FFF7FEFF 		bl	_ZN3i2c9WriteByteEhhh
 664              	.LVL70:
 457:Laser.c       ****   I2C.WriteByte(dev_,0x56, 0x08);
 665              		.loc 1 457 0
 666 012e 0823     		movs	r3, #8
 667 0130 5622     		movs	r2, #86
 668 0132 2179     		ldrb	r1, [r4, #4]	@ zero_extendqisi2
 669 0134 2046     		mov	r0, r4
 670 0136 FFF7FEFF 		bl	_ZN3i2c9WriteByteEhhh
 671              	.LVL71:
 458:Laser.c       ****   I2C.WriteByte(dev_,0x57, 0x30);
 672              		.loc 1 458 0
 673 013a 3023     		movs	r3, #48
 674 013c 5722     		movs	r2, #87
 675 013e 2179     		ldrb	r1, [r4, #4]	@ zero_extendqisi2
 676 0140 2046     		mov	r0, r4
 677 0142 FFF7FEFF 		bl	_ZN3i2c9WriteByteEhhh
 678              	.LVL72:
 459:Laser.c       ****   I2C.WriteByte(dev_,0x61, 0x00);
 679              		.loc 1 459 0
 680 0146 0023     		movs	r3, #0
 681 0148 6122     		movs	r2, #97
ARM GAS  C:\Users\hejmi\AppData\Local\Temp\ccFM6jcL.s 			page 21


 682 014a 2179     		ldrb	r1, [r4, #4]	@ zero_extendqisi2
 683 014c 2046     		mov	r0, r4
 684 014e FFF7FEFF 		bl	_ZN3i2c9WriteByteEhhh
 685              	.LVL73:
 460:Laser.c       ****   I2C.WriteByte(dev_,0x62, 0x00);
 686              		.loc 1 460 0
 687 0152 0023     		movs	r3, #0
 688 0154 6222     		movs	r2, #98
 689 0156 2179     		ldrb	r1, [r4, #4]	@ zero_extendqisi2
 690 0158 2046     		mov	r0, r4
 691 015a FFF7FEFF 		bl	_ZN3i2c9WriteByteEhhh
 692              	.LVL74:
 461:Laser.c       ****   I2C.WriteByte(dev_,0x64, 0x00);
 693              		.loc 1 461 0
 694 015e 0023     		movs	r3, #0
 695 0160 6422     		movs	r2, #100
 696 0162 2179     		ldrb	r1, [r4, #4]	@ zero_extendqisi2
 697 0164 2046     		mov	r0, r4
 698 0166 FFF7FEFF 		bl	_ZN3i2c9WriteByteEhhh
 699              	.LVL75:
 462:Laser.c       ****   I2C.WriteByte(dev_,0x65, 0x00);
 700              		.loc 1 462 0
 701 016a 0023     		movs	r3, #0
 702 016c 6522     		movs	r2, #101
 703 016e 2179     		ldrb	r1, [r4, #4]	@ zero_extendqisi2
 704 0170 2046     		mov	r0, r4
 705 0172 FFF7FEFF 		bl	_ZN3i2c9WriteByteEhhh
 706              	.LVL76:
 463:Laser.c       ****   I2C.WriteByte(dev_,0x66, 0xA0);
 707              		.loc 1 463 0
 708 0176 A023     		movs	r3, #160
 709 0178 6622     		movs	r2, #102
 710 017a 2179     		ldrb	r1, [r4, #4]	@ zero_extendqisi2
 711 017c 2046     		mov	r0, r4
 712 017e FFF7FEFF 		bl	_ZN3i2c9WriteByteEhhh
 713              	.LVL77:
 464:Laser.c       ****   I2C.WriteByte(dev_,0xFF, 0x01);
 714              		.loc 1 464 0
 715 0182 0123     		movs	r3, #1
 716 0184 FF22     		movs	r2, #255
 717 0186 2179     		ldrb	r1, [r4, #4]	@ zero_extendqisi2
 718 0188 2046     		mov	r0, r4
 719 018a FFF7FEFF 		bl	_ZN3i2c9WriteByteEhhh
 720              	.LVL78:
 465:Laser.c       ****   I2C.WriteByte(dev_,0x22, 0x32);
 721              		.loc 1 465 0
 722 018e 3223     		movs	r3, #50
 723 0190 2222     		movs	r2, #34
 724 0192 2179     		ldrb	r1, [r4, #4]	@ zero_extendqisi2
 725 0194 2046     		mov	r0, r4
 726 0196 FFF7FEFF 		bl	_ZN3i2c9WriteByteEhhh
 727              	.LVL79:
 466:Laser.c       ****   I2C.WriteByte(dev_,0x47, 0x14);
 728              		.loc 1 466 0
 729 019a 1423     		movs	r3, #20
 730 019c 4722     		movs	r2, #71
 731 019e 2179     		ldrb	r1, [r4, #4]	@ zero_extendqisi2
ARM GAS  C:\Users\hejmi\AppData\Local\Temp\ccFM6jcL.s 			page 22


 732 01a0 2046     		mov	r0, r4
 733 01a2 FFF7FEFF 		bl	_ZN3i2c9WriteByteEhhh
 734              	.LVL80:
 467:Laser.c       ****   I2C.WriteByte(dev_,0x49, 0xFF);
 735              		.loc 1 467 0
 736 01a6 FF23     		movs	r3, #255
 737 01a8 4922     		movs	r2, #73
 738 01aa 2179     		ldrb	r1, [r4, #4]	@ zero_extendqisi2
 739 01ac 2046     		mov	r0, r4
 740 01ae FFF7FEFF 		bl	_ZN3i2c9WriteByteEhhh
 741              	.LVL81:
 468:Laser.c       ****   I2C.WriteByte(dev_,0x4A, 0x00);
 742              		.loc 1 468 0
 743 01b2 0023     		movs	r3, #0
 744 01b4 4A22     		movs	r2, #74
 745 01b6 2179     		ldrb	r1, [r4, #4]	@ zero_extendqisi2
 746 01b8 2046     		mov	r0, r4
 747 01ba FFF7FEFF 		bl	_ZN3i2c9WriteByteEhhh
 748              	.LVL82:
 469:Laser.c       ****   I2C.WriteByte(dev_,0xFF, 0x00);
 749              		.loc 1 469 0
 750 01be 0023     		movs	r3, #0
 751 01c0 FF22     		movs	r2, #255
 752 01c2 2179     		ldrb	r1, [r4, #4]	@ zero_extendqisi2
 753 01c4 2046     		mov	r0, r4
 754 01c6 FFF7FEFF 		bl	_ZN3i2c9WriteByteEhhh
 755              	.LVL83:
 470:Laser.c       ****   I2C.WriteByte(dev_,0x7A, 0x0A);
 756              		.loc 1 470 0
 757 01ca 0A23     		movs	r3, #10
 758 01cc 7A22     		movs	r2, #122
 759 01ce 2179     		ldrb	r1, [r4, #4]	@ zero_extendqisi2
 760 01d0 2046     		mov	r0, r4
 761 01d2 FFF7FEFF 		bl	_ZN3i2c9WriteByteEhhh
 762              	.LVL84:
 471:Laser.c       ****   I2C.WriteByte(dev_,0x7B, 0x00);
 763              		.loc 1 471 0
 764 01d6 0023     		movs	r3, #0
 765 01d8 7B22     		movs	r2, #123
 766 01da 2179     		ldrb	r1, [r4, #4]	@ zero_extendqisi2
 767 01dc 2046     		mov	r0, r4
 768 01de FFF7FEFF 		bl	_ZN3i2c9WriteByteEhhh
 769              	.LVL85:
 472:Laser.c       ****   I2C.WriteByte(dev_,0x78, 0x21);
 770              		.loc 1 472 0
 771 01e2 2123     		movs	r3, #33
 772 01e4 7822     		movs	r2, #120
 773 01e6 2179     		ldrb	r1, [r4, #4]	@ zero_extendqisi2
 774 01e8 2046     		mov	r0, r4
 775 01ea FFF7FEFF 		bl	_ZN3i2c9WriteByteEhhh
 776              	.LVL86:
 473:Laser.c       ****   I2C.WriteByte(dev_,0xFF, 0x01);
 777              		.loc 1 473 0
 778 01ee 0123     		movs	r3, #1
 779 01f0 FF22     		movs	r2, #255
 780 01f2 2179     		ldrb	r1, [r4, #4]	@ zero_extendqisi2
 781 01f4 2046     		mov	r0, r4
ARM GAS  C:\Users\hejmi\AppData\Local\Temp\ccFM6jcL.s 			page 23


 782 01f6 FFF7FEFF 		bl	_ZN3i2c9WriteByteEhhh
 783              	.LVL87:
 474:Laser.c       ****   I2C.WriteByte(dev_,0x23, 0x34);
 784              		.loc 1 474 0
 785 01fa 3423     		movs	r3, #52
 786 01fc 2322     		movs	r2, #35
 787 01fe 2179     		ldrb	r1, [r4, #4]	@ zero_extendqisi2
 788 0200 2046     		mov	r0, r4
 789 0202 FFF7FEFF 		bl	_ZN3i2c9WriteByteEhhh
 790              	.LVL88:
 475:Laser.c       ****   I2C.WriteByte(dev_,0x42, 0x00);
 791              		.loc 1 475 0
 792 0206 0023     		movs	r3, #0
 793 0208 4222     		movs	r2, #66
 794 020a 2179     		ldrb	r1, [r4, #4]	@ zero_extendqisi2
 795 020c 2046     		mov	r0, r4
 796 020e FFF7FEFF 		bl	_ZN3i2c9WriteByteEhhh
 797              	.LVL89:
 476:Laser.c       ****   I2C.WriteByte(dev_,0x44, 0xFF);
 798              		.loc 1 476 0
 799 0212 FF23     		movs	r3, #255
 800 0214 4422     		movs	r2, #68
 801 0216 2179     		ldrb	r1, [r4, #4]	@ zero_extendqisi2
 802 0218 2046     		mov	r0, r4
 803 021a FFF7FEFF 		bl	_ZN3i2c9WriteByteEhhh
 804              	.LVL90:
 477:Laser.c       ****   I2C.WriteByte(dev_,0x45, 0x26);
 805              		.loc 1 477 0
 806 021e 2623     		movs	r3, #38
 807 0220 4522     		movs	r2, #69
 808 0222 2179     		ldrb	r1, [r4, #4]	@ zero_extendqisi2
 809 0224 2046     		mov	r0, r4
 810 0226 FFF7FEFF 		bl	_ZN3i2c9WriteByteEhhh
 811              	.LVL91:
 478:Laser.c       ****   I2C.WriteByte(dev_,0x46, 0x05);
 812              		.loc 1 478 0
 813 022a 0523     		movs	r3, #5
 814 022c 4622     		movs	r2, #70
 815 022e 2179     		ldrb	r1, [r4, #4]	@ zero_extendqisi2
 816 0230 2046     		mov	r0, r4
 817 0232 FFF7FEFF 		bl	_ZN3i2c9WriteByteEhhh
 818              	.LVL92:
 479:Laser.c       ****   I2C.WriteByte(dev_,0x40, 0x40);
 819              		.loc 1 479 0
 820 0236 4023     		movs	r3, #64
 821 0238 1A46     		mov	r2, r3
 822 023a 2179     		ldrb	r1, [r4, #4]	@ zero_extendqisi2
 823 023c 2046     		mov	r0, r4
 824 023e FFF7FEFF 		bl	_ZN3i2c9WriteByteEhhh
 825              	.LVL93:
 480:Laser.c       ****   I2C.WriteByte(dev_,0x0E, 0x06);
 826              		.loc 1 480 0
 827 0242 0623     		movs	r3, #6
 828 0244 0E22     		movs	r2, #14
 829 0246 2179     		ldrb	r1, [r4, #4]	@ zero_extendqisi2
 830 0248 2046     		mov	r0, r4
 831 024a FFF7FEFF 		bl	_ZN3i2c9WriteByteEhhh
ARM GAS  C:\Users\hejmi\AppData\Local\Temp\ccFM6jcL.s 			page 24


 832              	.LVL94:
 481:Laser.c       ****   I2C.WriteByte(dev_,0x20, 0x1A);
 833              		.loc 1 481 0
 834 024e 1A23     		movs	r3, #26
 835 0250 2022     		movs	r2, #32
 836 0252 2179     		ldrb	r1, [r4, #4]	@ zero_extendqisi2
 837 0254 2046     		mov	r0, r4
 838 0256 FFF7FEFF 		bl	_ZN3i2c9WriteByteEhhh
 839              	.LVL95:
 482:Laser.c       ****   I2C.WriteByte(dev_,0x43, 0x40);
 840              		.loc 1 482 0
 841 025a 4023     		movs	r3, #64
 842 025c 4322     		movs	r2, #67
 843 025e 2179     		ldrb	r1, [r4, #4]	@ zero_extendqisi2
 844 0260 2046     		mov	r0, r4
 845 0262 FFF7FEFF 		bl	_ZN3i2c9WriteByteEhhh
 846              	.LVL96:
 483:Laser.c       ****   I2C.WriteByte(dev_,0xFF, 0x00);
 847              		.loc 1 483 0
 848 0266 0023     		movs	r3, #0
 849 0268 FF22     		movs	r2, #255
 850 026a 2179     		ldrb	r1, [r4, #4]	@ zero_extendqisi2
 851 026c 2046     		mov	r0, r4
 852 026e FFF7FEFF 		bl	_ZN3i2c9WriteByteEhhh
 853              	.LVL97:
 484:Laser.c       ****   I2C.WriteByte(dev_,0x34, 0x03);
 854              		.loc 1 484 0
 855 0272 0323     		movs	r3, #3
 856 0274 3422     		movs	r2, #52
 857 0276 2179     		ldrb	r1, [r4, #4]	@ zero_extendqisi2
 858 0278 2046     		mov	r0, r4
 859 027a FFF7FEFF 		bl	_ZN3i2c9WriteByteEhhh
 860              	.LVL98:
 485:Laser.c       ****   I2C.WriteByte(dev_,0x35, 0x44);
 861              		.loc 1 485 0
 862 027e 4423     		movs	r3, #68
 863 0280 3522     		movs	r2, #53
 864 0282 2179     		ldrb	r1, [r4, #4]	@ zero_extendqisi2
 865 0284 2046     		mov	r0, r4
 866 0286 FFF7FEFF 		bl	_ZN3i2c9WriteByteEhhh
 867              	.LVL99:
 486:Laser.c       ****   I2C.WriteByte(dev_,0xFF, 0x01);
 868              		.loc 1 486 0
 869 028a 0123     		movs	r3, #1
 870 028c FF22     		movs	r2, #255
 871 028e 2179     		ldrb	r1, [r4, #4]	@ zero_extendqisi2
 872 0290 2046     		mov	r0, r4
 873 0292 FFF7FEFF 		bl	_ZN3i2c9WriteByteEhhh
 874              	.LVL100:
 487:Laser.c       ****   I2C.WriteByte(dev_,0x31, 0x04);
 875              		.loc 1 487 0
 876 0296 0423     		movs	r3, #4
 877 0298 3122     		movs	r2, #49
 878 029a 2179     		ldrb	r1, [r4, #4]	@ zero_extendqisi2
 879 029c 2046     		mov	r0, r4
 880 029e FFF7FEFF 		bl	_ZN3i2c9WriteByteEhhh
 881              	.LVL101:
ARM GAS  C:\Users\hejmi\AppData\Local\Temp\ccFM6jcL.s 			page 25


 488:Laser.c       ****   I2C.WriteByte(dev_,0x4B, 0x09);
 882              		.loc 1 488 0
 883 02a2 0923     		movs	r3, #9
 884 02a4 4B22     		movs	r2, #75
 885 02a6 2179     		ldrb	r1, [r4, #4]	@ zero_extendqisi2
 886 02a8 2046     		mov	r0, r4
 887 02aa FFF7FEFF 		bl	_ZN3i2c9WriteByteEhhh
 888              	.LVL102:
 489:Laser.c       ****   I2C.WriteByte(dev_,0x4C, 0x05);
 889              		.loc 1 489 0
 890 02ae 0523     		movs	r3, #5
 891 02b0 4C22     		movs	r2, #76
 892 02b2 2179     		ldrb	r1, [r4, #4]	@ zero_extendqisi2
 893 02b4 2046     		mov	r0, r4
 894 02b6 FFF7FEFF 		bl	_ZN3i2c9WriteByteEhhh
 895              	.LVL103:
 490:Laser.c       ****   I2C.WriteByte(dev_,0x4D, 0x04);
 896              		.loc 1 490 0
 897 02ba 0423     		movs	r3, #4
 898 02bc 4D22     		movs	r2, #77
 899 02be 2179     		ldrb	r1, [r4, #4]	@ zero_extendqisi2
 900 02c0 2046     		mov	r0, r4
 901 02c2 FFF7FEFF 		bl	_ZN3i2c9WriteByteEhhh
 902              	.LVL104:
 491:Laser.c       ****   I2C.WriteByte(dev_,0xFF, 0x00);
 903              		.loc 1 491 0
 904 02c6 0023     		movs	r3, #0
 905 02c8 FF22     		movs	r2, #255
 906 02ca 2179     		ldrb	r1, [r4, #4]	@ zero_extendqisi2
 907 02cc 2046     		mov	r0, r4
 908 02ce FFF7FEFF 		bl	_ZN3i2c9WriteByteEhhh
 909              	.LVL105:
 492:Laser.c       ****   I2C.WriteByte(dev_,0x44, 0x00);
 910              		.loc 1 492 0
 911 02d2 0023     		movs	r3, #0
 912 02d4 4422     		movs	r2, #68
 913 02d6 2179     		ldrb	r1, [r4, #4]	@ zero_extendqisi2
 914 02d8 2046     		mov	r0, r4
 915 02da FFF7FEFF 		bl	_ZN3i2c9WriteByteEhhh
 916              	.LVL106:
 493:Laser.c       ****   I2C.WriteByte(dev_,0x45, 0x20);
 917              		.loc 1 493 0
 918 02de 2023     		movs	r3, #32
 919 02e0 4522     		movs	r2, #69
 920 02e2 2179     		ldrb	r1, [r4, #4]	@ zero_extendqisi2
 921 02e4 2046     		mov	r0, r4
 922 02e6 FFF7FEFF 		bl	_ZN3i2c9WriteByteEhhh
 923              	.LVL107:
 494:Laser.c       ****   I2C.WriteByte(dev_,0x47, 0x08);
 924              		.loc 1 494 0
 925 02ea 0823     		movs	r3, #8
 926 02ec 4722     		movs	r2, #71
 927 02ee 2179     		ldrb	r1, [r4, #4]	@ zero_extendqisi2
 928 02f0 2046     		mov	r0, r4
 929 02f2 FFF7FEFF 		bl	_ZN3i2c9WriteByteEhhh
 930              	.LVL108:
 495:Laser.c       ****   I2C.WriteByte(dev_,0x48, 0x28);
ARM GAS  C:\Users\hejmi\AppData\Local\Temp\ccFM6jcL.s 			page 26


 931              		.loc 1 495 0
 932 02f6 2823     		movs	r3, #40
 933 02f8 4822     		movs	r2, #72
 934 02fa 2179     		ldrb	r1, [r4, #4]	@ zero_extendqisi2
 935 02fc 2046     		mov	r0, r4
 936 02fe FFF7FEFF 		bl	_ZN3i2c9WriteByteEhhh
 937              	.LVL109:
 496:Laser.c       ****   I2C.WriteByte(dev_,0x67, 0x00);
 938              		.loc 1 496 0
 939 0302 0023     		movs	r3, #0
 940 0304 6722     		movs	r2, #103
 941 0306 2179     		ldrb	r1, [r4, #4]	@ zero_extendqisi2
 942 0308 2046     		mov	r0, r4
 943 030a FFF7FEFF 		bl	_ZN3i2c9WriteByteEhhh
 944              	.LVL110:
 497:Laser.c       ****   I2C.WriteByte(dev_,0x70, 0x04);
 945              		.loc 1 497 0
 946 030e 0423     		movs	r3, #4
 947 0310 7022     		movs	r2, #112
 948 0312 2179     		ldrb	r1, [r4, #4]	@ zero_extendqisi2
 949 0314 2046     		mov	r0, r4
 950 0316 FFF7FEFF 		bl	_ZN3i2c9WriteByteEhhh
 951              	.LVL111:
 498:Laser.c       ****   I2C.WriteByte(dev_,0x71, 0x01);
 952              		.loc 1 498 0
 953 031a 0123     		movs	r3, #1
 954 031c 7122     		movs	r2, #113
 955 031e 2179     		ldrb	r1, [r4, #4]	@ zero_extendqisi2
 956 0320 2046     		mov	r0, r4
 957 0322 FFF7FEFF 		bl	_ZN3i2c9WriteByteEhhh
 958              	.LVL112:
 499:Laser.c       ****   I2C.WriteByte(dev_,0x72, 0xFE);
 959              		.loc 1 499 0
 960 0326 FE23     		movs	r3, #254
 961 0328 7222     		movs	r2, #114
 962 032a 2179     		ldrb	r1, [r4, #4]	@ zero_extendqisi2
 963 032c 2046     		mov	r0, r4
 964 032e FFF7FEFF 		bl	_ZN3i2c9WriteByteEhhh
 965              	.LVL113:
 500:Laser.c       ****   I2C.WriteByte(dev_,0x76, 0x00);
 966              		.loc 1 500 0
 967 0332 0023     		movs	r3, #0
 968 0334 7622     		movs	r2, #118
 969 0336 2179     		ldrb	r1, [r4, #4]	@ zero_extendqisi2
 970 0338 2046     		mov	r0, r4
 971 033a FFF7FEFF 		bl	_ZN3i2c9WriteByteEhhh
 972              	.LVL114:
 501:Laser.c       ****   I2C.WriteByte(dev_,0x77, 0x00);
 973              		.loc 1 501 0
 974 033e 0023     		movs	r3, #0
 975 0340 7722     		movs	r2, #119
 976 0342 2179     		ldrb	r1, [r4, #4]	@ zero_extendqisi2
 977 0344 2046     		mov	r0, r4
 978 0346 FFF7FEFF 		bl	_ZN3i2c9WriteByteEhhh
 979              	.LVL115:
 502:Laser.c       ****   I2C.WriteByte(dev_,0xFF, 0x01);
 980              		.loc 1 502 0
ARM GAS  C:\Users\hejmi\AppData\Local\Temp\ccFM6jcL.s 			page 27


 981 034a 0123     		movs	r3, #1
 982 034c FF22     		movs	r2, #255
 983 034e 2179     		ldrb	r1, [r4, #4]	@ zero_extendqisi2
 984 0350 2046     		mov	r0, r4
 985 0352 FFF7FEFF 		bl	_ZN3i2c9WriteByteEhhh
 986              	.LVL116:
 503:Laser.c       ****   I2C.WriteByte(dev_,0x0D, 0x01);
 987              		.loc 1 503 0
 988 0356 0123     		movs	r3, #1
 989 0358 0D22     		movs	r2, #13
 990 035a 2179     		ldrb	r1, [r4, #4]	@ zero_extendqisi2
 991 035c 2046     		mov	r0, r4
 992 035e FFF7FEFF 		bl	_ZN3i2c9WriteByteEhhh
 993              	.LVL117:
 504:Laser.c       ****   I2C.WriteByte(dev_,0xFF, 0x00);
 994              		.loc 1 504 0
 995 0362 0023     		movs	r3, #0
 996 0364 FF22     		movs	r2, #255
 997 0366 2179     		ldrb	r1, [r4, #4]	@ zero_extendqisi2
 998 0368 2046     		mov	r0, r4
 999 036a FFF7FEFF 		bl	_ZN3i2c9WriteByteEhhh
 1000              	.LVL118:
 505:Laser.c       ****   I2C.WriteByte(dev_,0x80, 0x01);
 1001              		.loc 1 505 0
 1002 036e 0123     		movs	r3, #1
 1003 0370 8022     		movs	r2, #128
 1004 0372 2179     		ldrb	r1, [r4, #4]	@ zero_extendqisi2
 1005 0374 2046     		mov	r0, r4
 1006 0376 FFF7FEFF 		bl	_ZN3i2c9WriteByteEhhh
 1007              	.LVL119:
 506:Laser.c       ****   I2C.WriteByte(dev_,0x01, 0xF8);
 1008              		.loc 1 506 0
 1009 037a F823     		movs	r3, #248
 1010 037c 0122     		movs	r2, #1
 1011 037e 2179     		ldrb	r1, [r4, #4]	@ zero_extendqisi2
 1012 0380 2046     		mov	r0, r4
 1013 0382 FFF7FEFF 		bl	_ZN3i2c9WriteByteEhhh
 1014              	.LVL120:
 507:Laser.c       ****   I2C.WriteByte(dev_,0xFF, 0x01);
 1015              		.loc 1 507 0
 1016 0386 0123     		movs	r3, #1
 1017 0388 FF22     		movs	r2, #255
 1018 038a 2179     		ldrb	r1, [r4, #4]	@ zero_extendqisi2
 1019 038c 2046     		mov	r0, r4
 1020 038e FFF7FEFF 		bl	_ZN3i2c9WriteByteEhhh
 1021              	.LVL121:
 508:Laser.c       ****   I2C.WriteByte(dev_,0x8E, 0x01);
 1022              		.loc 1 508 0
 1023 0392 0123     		movs	r3, #1
 1024 0394 8E22     		movs	r2, #142
 1025 0396 2179     		ldrb	r1, [r4, #4]	@ zero_extendqisi2
 1026 0398 2046     		mov	r0, r4
 1027 039a FFF7FEFF 		bl	_ZN3i2c9WriteByteEhhh
 1028              	.LVL122:
 509:Laser.c       ****   I2C.WriteByte(dev_,0x00, 0x01);
 1029              		.loc 1 509 0
 1030 039e 0123     		movs	r3, #1
ARM GAS  C:\Users\hejmi\AppData\Local\Temp\ccFM6jcL.s 			page 28


 1031 03a0 0022     		movs	r2, #0
 1032 03a2 2179     		ldrb	r1, [r4, #4]	@ zero_extendqisi2
 1033 03a4 2046     		mov	r0, r4
 1034 03a6 FFF7FEFF 		bl	_ZN3i2c9WriteByteEhhh
 1035              	.LVL123:
 510:Laser.c       ****   I2C.WriteByte(dev_,0xFF, 0x00);
 1036              		.loc 1 510 0
 1037 03aa 0023     		movs	r3, #0
 1038 03ac FF22     		movs	r2, #255
 1039 03ae 2179     		ldrb	r1, [r4, #4]	@ zero_extendqisi2
 1040 03b0 2046     		mov	r0, r4
 1041 03b2 FFF7FEFF 		bl	_ZN3i2c9WriteByteEhhh
 1042              	.LVL124:
 511:Laser.c       ****   I2C.WriteByte(dev_,0x80, 0x00);
 1043              		.loc 1 511 0
 1044 03b6 0023     		movs	r3, #0
 1045 03b8 8022     		movs	r2, #128
 1046 03ba 2179     		ldrb	r1, [r4, #4]	@ zero_extendqisi2
 1047 03bc 2046     		mov	r0, r4
 1048 03be FFF7FEFF 		bl	_ZN3i2c9WriteByteEhhh
 1049              	.LVL125:
 1050 03c2 10BD     		pop	{r4, pc}
 1051              		.cfi_endproc
 1052              	.LFE86:
 1053              		.fnend
 1054              		.size	_ZN5Laser18LoadTuningSettingsEv, .-_ZN5Laser18LoadTuningSettingsEv
 1055              		.section	.text._ZN5Laser13SetGpioConfigEv,"ax",%progbits
 1056              		.align	2
 1057              		.global	_ZN5Laser13SetGpioConfigEv
 1058              		.thumb
 1059              		.thumb_func
 1060              		.type	_ZN5Laser13SetGpioConfigEv, %function
 1061              	_ZN5Laser13SetGpioConfigEv:
 1062              		.fnstart
 1063              	.LFB87:
 512:Laser.c       **** }
 513:Laser.c       **** 
 514:Laser.c       **** void Laser::SetGpioConfig()
 515:Laser.c       **** {
 1064              		.loc 1 515 0
 1065              		.cfi_startproc
 1066              		@ args = 0, pretend = 0, frame = 8
 1067              		@ frame_needed = 0, uses_anonymous_args = 0
 1068              	.LVL126:
 1069 0000 10B5     		push	{r4, lr}
 1070              		.save {r4, lr}
 1071              		.cfi_def_cfa_offset 8
 1072              		.cfi_offset 4, -8
 1073              		.cfi_offset 14, -4
 1074              		.pad #8
 1075 0002 82B0     		sub	sp, sp, #8
 1076              		.cfi_def_cfa_offset 16
 1077 0004 0446     		mov	r4, r0
 516:Laser.c       ****     // "Set interrupt config to new sample ready"
 517:Laser.c       ****     I2C.WriteByte(dev_,SYSTEM_INTERRUPT_CONFIG_GPIO, 0x04);
 1078              		.loc 1 517 0
 1079 0006 0423     		movs	r3, #4
ARM GAS  C:\Users\hejmi\AppData\Local\Temp\ccFM6jcL.s 			page 29


 1080 0008 0A22     		movs	r2, #10
 1081 000a 0179     		ldrb	r1, [r0, #4]	@ zero_extendqisi2
 1082 000c FFF7FEFF 		bl	_ZN3i2c9WriteByteEhhh
 1083              	.LVL127:
 518:Laser.c       ****     uint8_t tmpdata;
 519:Laser.c       ****     I2C.ReadByte(dev_,GPIO_HV_MUX_ACTIVE_HIGH,&tmpdata);
 1084              		.loc 1 519 0
 1085 0010 0DF10703 		add	r3, sp, #7
 1086 0014 8422     		movs	r2, #132
 1087 0016 2179     		ldrb	r1, [r4, #4]	@ zero_extendqisi2
 1088 0018 2046     		mov	r0, r4
 1089 001a FFF7FEFF 		bl	_ZN3i2c8ReadByteEhhPh
 1090              	.LVL128:
 520:Laser.c       ****     I2C.WriteByte(dev_,GPIO_HV_MUX_ACTIVE_HIGH, tmpdata & ~0x10); // active low
 1091              		.loc 1 520 0
 1092 001e 9DF80730 		ldrb	r3, [sp, #7]	@ zero_extendqisi2
 1093 0022 03F0EF03 		and	r3, r3, #239
 1094 0026 8422     		movs	r2, #132
 1095 0028 2179     		ldrb	r1, [r4, #4]	@ zero_extendqisi2
 1096 002a 2046     		mov	r0, r4
 1097 002c FFF7FEFF 		bl	_ZN3i2c9WriteByteEhhh
 1098              	.LVL129:
 521:Laser.c       ****     I2C.WriteByte(dev_,SYSTEM_INTERRUPT_CLEAR, 0x01);
 1099              		.loc 1 521 0
 1100 0030 0123     		movs	r3, #1
 1101 0032 0B22     		movs	r2, #11
 1102 0034 2179     		ldrb	r1, [r4, #4]	@ zero_extendqisi2
 1103 0036 2046     		mov	r0, r4
 1104 0038 FFF7FEFF 		bl	_ZN3i2c9WriteByteEhhh
 1105              	.LVL130:
 522:Laser.c       **** }
 1106              		.loc 1 522 0
 1107 003c 02B0     		add	sp, sp, #8
 1108              		.cfi_def_cfa_offset 8
 1109              		@ sp needed
 1110 003e 10BD     		pop	{r4, pc}
 1111              		.cfi_endproc
 1112              	.LFE87:
 1113              		.fnend
 1114              		.size	_ZN5Laser13SetGpioConfigEv, .-_ZN5Laser13SetGpioConfigEv
 1115              		.section	.text._ZN5Laser7I2CInitEv,"ax",%progbits
 1116              		.align	2
 1117              		.global	_ZN5Laser7I2CInitEv
 1118              		.thumb
 1119              		.thumb_func
 1120              		.type	_ZN5Laser7I2CInitEv, %function
 1121              	_ZN5Laser7I2CInitEv:
 1122              		.fnstart
 1123              	.LFB89:
 523:Laser.c       **** 
 524:Laser.c       **** void Laser::DataInit(bool io_2v8)
 525:Laser.c       **** {
 526:Laser.c       ****     // sensor uses 1V8 mode for I/O by default; switch to 2V8 mode if necessary
 527:Laser.c       ****     if (io_2v8)
 528:Laser.c       ****     {
 529:Laser.c       ****         uint8_t tmp;
 530:Laser.c       ****         I2C.ReadByte(dev_,VHV_CONFIG_PAD_SCL_SDA__EXTSUP_HV,&tmp);
ARM GAS  C:\Users\hejmi\AppData\Local\Temp\ccFM6jcL.s 			page 30


 531:Laser.c       ****         I2C.WriteByte(dev_,VHV_CONFIG_PAD_SCL_SDA__EXTSUP_HV,
 532:Laser.c       ****         tmp | 0x01); // set bit 0
 533:Laser.c       ****     }
 534:Laser.c       ****     
 535:Laser.c       ****     /*Initiate I2C-Communication*/
 536:Laser.c       ****     I2CInit();
 537:Laser.c       ****     
 538:Laser.c       ****     // disable SIGNAL_RATE_MSRC (bit 1) and SIGNAL_RATE_PRE_RANGE (bit 4) limit checks
 539:Laser.c       ****     uint8_t data;
 540:Laser.c       ****     I2C.ReadByte(dev_,MSRC_CONFIG_CONTROL,&data);
 541:Laser.c       ****     I2C.WriteByte(dev_,MSRC_CONFIG_CONTROL, data | 0x12);
 542:Laser.c       **** 
 543:Laser.c       ****     // set final range signal rate limit to 0.25 MCPS (million counts per second)
 544:Laser.c       ****     setSignalRateLimit(0.25);
 545:Laser.c       ****     I2C.WriteByte(dev_,SYSTEM_SEQUENCE_CONFIG, 0xFF);
 546:Laser.c       **** }
 547:Laser.c       **** 
 548:Laser.c       **** void Laser::I2CInit()
 549:Laser.c       **** {
 1124              		.loc 1 549 0
 1125              		.cfi_startproc
 1126              		@ args = 0, pretend = 0, frame = 0
 1127              		@ frame_needed = 0, uses_anonymous_args = 0
 1128              	.LVL131:
 1129 0000 10B5     		push	{r4, lr}
 1130              		.save {r4, lr}
 1131              		.cfi_def_cfa_offset 8
 1132              		.cfi_offset 4, -8
 1133              		.cfi_offset 14, -4
 1134 0002 0446     		mov	r4, r0
 550:Laser.c       ****     // "Set I2C standard mode"
 551:Laser.c       ****     I2C.WriteByte(dev_,0x88, 0x00);
 1135              		.loc 1 551 0
 1136 0004 0023     		movs	r3, #0
 1137 0006 8822     		movs	r2, #136
 1138 0008 0179     		ldrb	r1, [r0, #4]	@ zero_extendqisi2
 1139 000a FFF7FEFF 		bl	_ZN3i2c9WriteByteEhhh
 1140              	.LVL132:
 552:Laser.c       ****     I2C.WriteByte(dev_,0x80, 0x01);
 1141              		.loc 1 552 0
 1142 000e 0123     		movs	r3, #1
 1143 0010 8022     		movs	r2, #128
 1144 0012 2179     		ldrb	r1, [r4, #4]	@ zero_extendqisi2
 1145 0014 2046     		mov	r0, r4
 1146 0016 FFF7FEFF 		bl	_ZN3i2c9WriteByteEhhh
 1147              	.LVL133:
 553:Laser.c       ****     I2C.WriteByte(dev_,0xFF, 0x01);
 1148              		.loc 1 553 0
 1149 001a 0123     		movs	r3, #1
 1150 001c FF22     		movs	r2, #255
 1151 001e 2179     		ldrb	r1, [r4, #4]	@ zero_extendqisi2
 1152 0020 2046     		mov	r0, r4
 1153 0022 FFF7FEFF 		bl	_ZN3i2c9WriteByteEhhh
 1154              	.LVL134:
 554:Laser.c       ****     I2C.WriteByte(dev_,0x00, 0x00);
 1155              		.loc 1 554 0
 1156 0026 0023     		movs	r3, #0
ARM GAS  C:\Users\hejmi\AppData\Local\Temp\ccFM6jcL.s 			page 31


 1157 0028 1A46     		mov	r2, r3
 1158 002a 2179     		ldrb	r1, [r4, #4]	@ zero_extendqisi2
 1159 002c 2046     		mov	r0, r4
 1160 002e FFF7FEFF 		bl	_ZN3i2c9WriteByteEhhh
 1161              	.LVL135:
 555:Laser.c       ****     I2C.ReadByte(dev_,0x91,&stop_variable);
 1162              		.loc 1 555 0
 1163 0032 04F10E03 		add	r3, r4, #14
 1164 0036 9122     		movs	r2, #145
 1165 0038 2179     		ldrb	r1, [r4, #4]	@ zero_extendqisi2
 1166 003a 2046     		mov	r0, r4
 1167 003c FFF7FEFF 		bl	_ZN3i2c8ReadByteEhhPh
 1168              	.LVL136:
 556:Laser.c       ****     I2C.WriteByte(dev_,0x00, 0x01);
 1169              		.loc 1 556 0
 1170 0040 0123     		movs	r3, #1
 1171 0042 0022     		movs	r2, #0
 1172 0044 2179     		ldrb	r1, [r4, #4]	@ zero_extendqisi2
 1173 0046 2046     		mov	r0, r4
 1174 0048 FFF7FEFF 		bl	_ZN3i2c9WriteByteEhhh
 1175              	.LVL137:
 557:Laser.c       ****     I2C.WriteByte(dev_,0xFF, 0x00);
 1176              		.loc 1 557 0
 1177 004c 0023     		movs	r3, #0
 1178 004e FF22     		movs	r2, #255
 1179 0050 2179     		ldrb	r1, [r4, #4]	@ zero_extendqisi2
 1180 0052 2046     		mov	r0, r4
 1181 0054 FFF7FEFF 		bl	_ZN3i2c9WriteByteEhhh
 1182              	.LVL138:
 558:Laser.c       ****     I2C.WriteByte(dev_,0x80, 0x00);
 1183              		.loc 1 558 0
 1184 0058 0023     		movs	r3, #0
 1185 005a 8022     		movs	r2, #128
 1186 005c 2179     		ldrb	r1, [r4, #4]	@ zero_extendqisi2
 1187 005e 2046     		mov	r0, r4
 1188 0060 FFF7FEFF 		bl	_ZN3i2c9WriteByteEhhh
 1189              	.LVL139:
 1190 0064 10BD     		pop	{r4, pc}
 1191              		.cfi_endproc
 1192              	.LFE89:
 1193              		.fnend
 1194              		.size	_ZN5Laser7I2CInitEv, .-_ZN5Laser7I2CInitEv
 1195              		.global	__aeabi_fcmplt
 1196              		.global	__aeabi_f2d
 1197              		.global	__aeabi_dcmpgt
 1198              		.global	__aeabi_fmul
 1199              		.global	__aeabi_f2uiz
 1200 0066 00BF     		.section	.text._ZN5Laser18setSignalRateLimitEf,"ax",%progbits
 1201              		.align	2
 1202              		.global	_ZN5Laser18setSignalRateLimitEf
 1203              		.thumb
 1204              		.thumb_func
 1205              		.type	_ZN5Laser18setSignalRateLimitEf, %function
 1206              	_ZN5Laser18setSignalRateLimitEf:
 1207              		.fnstart
 1208              	.LFB90:
 559:Laser.c       **** }
ARM GAS  C:\Users\hejmi\AppData\Local\Temp\ccFM6jcL.s 			page 32


 560:Laser.c       **** /************************************************
 561:Laser.c       **** // Set the return signal rate limit check value in units of MCPS (mega counts
 562:Laser.c       **** // per second). "This represents the amplitude of the signal reflected from the
 563:Laser.c       **** // target and detected by the device"; setting this limit presumably determines
 564:Laser.c       **** // the minimum measurement necessary for the sensor to report a valid reading.
 565:Laser.c       **** // Setting a lower limit increases the potential range of the sensor but also
 566:Laser.c       **** // seems to increase the likelihood of getting an inaccurate reading because of
 567:Laser.c       **** // unwanted reflections from objects other than the intended target.
 568:Laser.c       **** // Defaults to 0.25 MCPS as initialized by the ST API and this library.
 569:Laser.c       **** *************************************************/
 570:Laser.c       **** bool Laser::setSignalRateLimit(float limit_Mcps)
 571:Laser.c       **** {
 1209              		.loc 1 571 0
 1210              		.cfi_startproc
 1211              		@ args = 0, pretend = 0, frame = 8
 1212              		@ frame_needed = 0, uses_anonymous_args = 0
 1213              	.LVL140:
 1214 0000 30B5     		push	{r4, r5, lr}
 1215              		.save {r4, r5, lr}
 1216              		.cfi_def_cfa_offset 12
 1217              		.cfi_offset 4, -12
 1218              		.cfi_offset 5, -8
 1219              		.cfi_offset 14, -4
 1220              		.pad #20
 1221 0002 85B0     		sub	sp, sp, #20
 1222              		.cfi_def_cfa_offset 32
 1223 0004 0546     		mov	r5, r0
 1224 0006 0C46     		mov	r4, r1
 572:Laser.c       ****     if (limit_Mcps < 0 || limit_Mcps > 511.99) { return false; }
 1225              		.loc 1 572 0
 1226 0008 0021     		movs	r1, #0
 1227              	.LVL141:
 1228 000a 2046     		mov	r0, r4
 1229              	.LVL142:
 1230 000c FFF7FEFF 		bl	__aeabi_fcmplt
 1231              	.LVL143:
 1232 0010 F8B9     		cbnz	r0, .L28
 1233              		.loc 1 572 0 is_stmt 0 discriminator 2
 1234 0012 2046     		mov	r0, r4
 1235 0014 FFF7FEFF 		bl	__aeabi_f2d
 1236              	.LVL144:
 1237 0018 11A3     		adr	r3, .L31
 1238 001a D3E90023 		ldrd	r2, [r3]
 1239 001e FFF7FEFF 		bl	__aeabi_dcmpgt
 1240              	.LVL145:
 1241 0022 C0B9     		cbnz	r0, .L29
 573:Laser.c       **** 
 574:Laser.c       ****     // Q9.7 fixed point format (9 integer bits, 7 fractional bits)
 575:Laser.c       ****     uint8_t tmparray[2]={0,0};
 576:Laser.c       ****     uint16_t tmp = limit_Mcps * (1 << 7);
 1242              		.loc 1 576 0 is_stmt 1
 1243 0024 4FF08641 		mov	r1, #1124073472
 1244 0028 2046     		mov	r0, r4
 1245 002a FFF7FEFF 		bl	__aeabi_fmul
 1246              	.LVL146:
 1247 002e FFF7FEFF 		bl	__aeabi_f2uiz
 1248              	.LVL147:
ARM GAS  C:\Users\hejmi\AppData\Local\Temp\ccFM6jcL.s 			page 33


 1249 0032 80B2     		uxth	r0, r0
 1250              	.LVL148:
 577:Laser.c       ****     tmparray[0] = tmp & 0xff;   // Low
 1251              		.loc 1 577 0
 1252 0034 8DF80C00 		strb	r0, [sp, #12]
 578:Laser.c       ****     tmparray[1] = (tmp >> 8);   // High
 1253              		.loc 1 578 0
 1254 0038 0012     		asrs	r0, r0, #8
 1255              	.LVL149:
 1256 003a 8DF80D00 		strb	r0, [sp, #13]
 579:Laser.c       ****     I2C.WriteBytes(dev_,68,2,tmparray);
 1257              		.loc 1 579 0
 1258 003e 2979     		ldrb	r1, [r5, #4]	@ zero_extendqisi2
 1259 0040 03AB     		add	r3, sp, #12
 1260 0042 0093     		str	r3, [sp]
 1261 0044 0223     		movs	r3, #2
 1262 0046 4422     		movs	r2, #68
 1263 0048 2846     		mov	r0, r5
 1264 004a FFF7FEFF 		bl	_ZN3i2c10WriteBytesEhhhPh
 1265              	.LVL150:
 580:Laser.c       ****     
 581:Laser.c       ****     return true;
 1266              		.loc 1 581 0
 1267 004e 0120     		movs	r0, #1
 1268 0050 02E0     		b	.L27
 1269              	.L28:
 572:Laser.c       **** 
 1270              		.loc 1 572 0
 1271 0052 0020     		movs	r0, #0
 1272 0054 00E0     		b	.L27
 1273              	.L29:
 1274 0056 0020     		movs	r0, #0
 1275              	.L27:
 582:Laser.c       **** }
 1276              		.loc 1 582 0
 1277 0058 05B0     		add	sp, sp, #20
 1278              		.cfi_def_cfa_offset 12
 1279              		@ sp needed
 1280 005a 30BD     		pop	{r4, r5, pc}
 1281              	.LVL151:
 1282              	.L32:
 1283 005c AFF30080 		.align	3
 1284              	.L31:
 1285 0060 A4703D0A 		.word	171798692
 1286 0064 D7FF7F40 		.word	1082130391
 1287              		.cfi_endproc
 1288              	.LFE90:
 1289              		.fnend
 1290              		.size	_ZN5Laser18setSignalRateLimitEf, .-_ZN5Laser18setSignalRateLimitEf
 1291              		.section	.text._ZN5Laser8DataInitEb,"ax",%progbits
 1292              		.align	2
 1293              		.global	_ZN5Laser8DataInitEb
 1294              		.thumb
 1295              		.thumb_func
 1296              		.type	_ZN5Laser8DataInitEb, %function
 1297              	_ZN5Laser8DataInitEb:
 1298              		.fnstart
ARM GAS  C:\Users\hejmi\AppData\Local\Temp\ccFM6jcL.s 			page 34


 1299              	.LFB88:
 525:Laser.c       ****     // sensor uses 1V8 mode for I/O by default; switch to 2V8 mode if necessary
 1300              		.loc 1 525 0
 1301              		.cfi_startproc
 1302              		@ args = 0, pretend = 0, frame = 8
 1303              		@ frame_needed = 0, uses_anonymous_args = 0
 1304              	.LVL152:
 1305 0000 10B5     		push	{r4, lr}
 1306              		.save {r4, lr}
 1307              		.cfi_def_cfa_offset 8
 1308              		.cfi_offset 4, -8
 1309              		.cfi_offset 14, -4
 1310              		.pad #8
 1311 0002 82B0     		sub	sp, sp, #8
 1312              		.cfi_def_cfa_offset 16
 1313 0004 0446     		mov	r4, r0
 1314              	.LBB4:
 527:Laser.c       ****     {
 1315              		.loc 1 527 0
 1316 0006 71B1     		cbz	r1, .L34
 1317              	.LBB5:
 530:Laser.c       ****         I2C.WriteByte(dev_,VHV_CONFIG_PAD_SCL_SDA__EXTSUP_HV,
 1318              		.loc 1 530 0
 1319 0008 0DF10603 		add	r3, sp, #6
 1320 000c 8922     		movs	r2, #137
 1321 000e 0179     		ldrb	r1, [r0, #4]	@ zero_extendqisi2
 1322              	.LVL153:
 1323 0010 FFF7FEFF 		bl	_ZN3i2c8ReadByteEhhPh
 1324              	.LVL154:
 531:Laser.c       ****         tmp | 0x01); // set bit 0
 1325              		.loc 1 531 0
 1326 0014 9DF80630 		ldrb	r3, [sp, #6]	@ zero_extendqisi2
 532:Laser.c       ****     }
 1327              		.loc 1 532 0
 1328 0018 43F00103 		orr	r3, r3, #1
 1329 001c 8922     		movs	r2, #137
 1330 001e 2179     		ldrb	r1, [r4, #4]	@ zero_extendqisi2
 1331 0020 2046     		mov	r0, r4
 1332 0022 FFF7FEFF 		bl	_ZN3i2c9WriteByteEhhh
 1333              	.LVL155:
 1334              	.L34:
 1335              	.LBE5:
 1336              	.LBE4:
 536:Laser.c       ****     
 1337              		.loc 1 536 0
 1338 0026 2046     		mov	r0, r4
 1339 0028 FFF7FEFF 		bl	_ZN5Laser7I2CInitEv
 1340              	.LVL156:
 540:Laser.c       ****     I2C.WriteByte(dev_,MSRC_CONFIG_CONTROL, data | 0x12);
 1341              		.loc 1 540 0
 1342 002c 0DF10703 		add	r3, sp, #7
 1343 0030 6022     		movs	r2, #96
 1344 0032 2179     		ldrb	r1, [r4, #4]	@ zero_extendqisi2
 1345 0034 2046     		mov	r0, r4
 1346 0036 FFF7FEFF 		bl	_ZN3i2c8ReadByteEhhPh
 1347              	.LVL157:
 541:Laser.c       **** 
ARM GAS  C:\Users\hejmi\AppData\Local\Temp\ccFM6jcL.s 			page 35


 1348              		.loc 1 541 0
 1349 003a 9DF80730 		ldrb	r3, [sp, #7]	@ zero_extendqisi2
 1350 003e 43F01203 		orr	r3, r3, #18
 1351 0042 6022     		movs	r2, #96
 1352 0044 2179     		ldrb	r1, [r4, #4]	@ zero_extendqisi2
 1353 0046 2046     		mov	r0, r4
 1354 0048 FFF7FEFF 		bl	_ZN3i2c9WriteByteEhhh
 1355              	.LVL158:
 544:Laser.c       ****     I2C.WriteByte(dev_,SYSTEM_SEQUENCE_CONFIG, 0xFF);
 1356              		.loc 1 544 0
 1357 004c 4FF07A51 		mov	r1, #1048576000
 1358 0050 2046     		mov	r0, r4
 1359 0052 FFF7FEFF 		bl	_ZN5Laser18setSignalRateLimitEf
 1360              	.LVL159:
 545:Laser.c       **** }
 1361              		.loc 1 545 0
 1362 0056 FF23     		movs	r3, #255
 1363 0058 0122     		movs	r2, #1
 1364 005a 2179     		ldrb	r1, [r4, #4]	@ zero_extendqisi2
 1365 005c 2046     		mov	r0, r4
 1366 005e FFF7FEFF 		bl	_ZN3i2c9WriteByteEhhh
 1367              	.LVL160:
 546:Laser.c       **** 
 1368              		.loc 1 546 0
 1369 0062 02B0     		add	sp, sp, #8
 1370              		.cfi_def_cfa_offset 8
 1371              		@ sp needed
 1372 0064 10BD     		pop	{r4, pc}
 1373              		.cfi_endproc
 1374              	.LFE88:
 1375              		.fnend
 1376              		.size	_ZN5Laser8DataInitEb, .-_ZN5Laser8DataInitEb
 1377 0066 00BF     		.section	.text._ZN5Laser11getSpadInfoEPhPb,"ax",%progbits
 1378              		.align	2
 1379              		.global	_ZN5Laser11getSpadInfoEPhPb
 1380              		.thumb
 1381              		.thumb_func
 1382              		.type	_ZN5Laser11getSpadInfoEPhPb, %function
 1383              	_ZN5Laser11getSpadInfoEPhPb:
 1384              		.fnstart
 1385              	.LFB91:
 583:Laser.c       **** 
 584:Laser.c       **** // Get reference SPAD (single photon avalanche diode) count and type
 585:Laser.c       **** // based on VL53L0X_get_info_from_device(),
 586:Laser.c       **** // but only gets reference SPAD count and type
 587:Laser.c       **** bool Laser::getSpadInfo(uint8_t * count, bool * type_is_aperture)
 588:Laser.c       **** {
 1386              		.loc 1 588 0
 1387              		.cfi_startproc
 1388              		@ args = 0, pretend = 0, frame = 8
 1389              		@ frame_needed = 0, uses_anonymous_args = 0
 1390              	.LVL161:
 1391 0000 F0B5     		push	{r4, r5, r6, r7, lr}
 1392              		.save {r4, r5, r6, r7, lr}
 1393              		.cfi_def_cfa_offset 20
 1394              		.cfi_offset 4, -20
 1395              		.cfi_offset 5, -16
ARM GAS  C:\Users\hejmi\AppData\Local\Temp\ccFM6jcL.s 			page 36


 1396              		.cfi_offset 6, -12
 1397              		.cfi_offset 7, -8
 1398              		.cfi_offset 14, -4
 1399              		.pad #12
 1400 0002 83B0     		sub	sp, sp, #12
 1401              		.cfi_def_cfa_offset 32
 1402 0004 0446     		mov	r4, r0
 1403 0006 0F46     		mov	r7, r1
 1404 0008 1646     		mov	r6, r2
 589:Laser.c       ****   uint8_t tmp;
 590:Laser.c       **** 
 591:Laser.c       ****   I2C.WriteByte(dev_,0x80, 0x01);
 1405              		.loc 1 591 0
 1406 000a 0546     		mov	r5, r0
 1407 000c 0123     		movs	r3, #1
 1408 000e 8022     		movs	r2, #128
 1409              	.LVL162:
 1410 0010 0179     		ldrb	r1, [r0, #4]	@ zero_extendqisi2
 1411              	.LVL163:
 1412 0012 FFF7FEFF 		bl	_ZN3i2c9WriteByteEhhh
 1413              	.LVL164:
 592:Laser.c       ****   I2C.WriteByte(dev_,0xFF, 0x01);
 1414              		.loc 1 592 0
 1415 0016 0123     		movs	r3, #1
 1416 0018 FF22     		movs	r2, #255
 1417 001a 2179     		ldrb	r1, [r4, #4]	@ zero_extendqisi2
 1418 001c 2046     		mov	r0, r4
 1419 001e FFF7FEFF 		bl	_ZN3i2c9WriteByteEhhh
 1420              	.LVL165:
 593:Laser.c       ****   I2C.WriteByte(dev_,0x00, 0x00);
 1421              		.loc 1 593 0
 1422 0022 0023     		movs	r3, #0
 1423 0024 1A46     		mov	r2, r3
 1424 0026 2179     		ldrb	r1, [r4, #4]	@ zero_extendqisi2
 1425 0028 2046     		mov	r0, r4
 1426 002a FFF7FEFF 		bl	_ZN3i2c9WriteByteEhhh
 1427              	.LVL166:
 594:Laser.c       **** 
 595:Laser.c       ****   I2C.WriteByte(dev_,0xFF, 0x06);
 1428              		.loc 1 595 0
 1429 002e 0623     		movs	r3, #6
 1430 0030 FF22     		movs	r2, #255
 1431 0032 2179     		ldrb	r1, [r4, #4]	@ zero_extendqisi2
 1432 0034 2046     		mov	r0, r4
 1433 0036 FFF7FEFF 		bl	_ZN3i2c9WriteByteEhhh
 1434              	.LVL167:
 596:Laser.c       ****   I2C.ReadByte(dev_,0x83,&tmp);
 1435              		.loc 1 596 0
 1436 003a 0DF10703 		add	r3, sp, #7
 1437 003e 8322     		movs	r2, #131
 1438 0040 2179     		ldrb	r1, [r4, #4]	@ zero_extendqisi2
 1439 0042 2046     		mov	r0, r4
 1440 0044 FFF7FEFF 		bl	_ZN3i2c8ReadByteEhhPh
 1441              	.LVL168:
 597:Laser.c       ****   I2C.WriteByte(dev_,0x83, tmp | 0x04);
 1442              		.loc 1 597 0
 1443 0048 9DF80730 		ldrb	r3, [sp, #7]	@ zero_extendqisi2
ARM GAS  C:\Users\hejmi\AppData\Local\Temp\ccFM6jcL.s 			page 37


 1444 004c 43F00403 		orr	r3, r3, #4
 1445 0050 8322     		movs	r2, #131
 1446 0052 2179     		ldrb	r1, [r4, #4]	@ zero_extendqisi2
 1447 0054 2046     		mov	r0, r4
 1448 0056 FFF7FEFF 		bl	_ZN3i2c9WriteByteEhhh
 1449              	.LVL169:
 598:Laser.c       ****   I2C.WriteByte(dev_,0xFF, 0x07);
 1450              		.loc 1 598 0
 1451 005a 0723     		movs	r3, #7
 1452 005c FF22     		movs	r2, #255
 1453 005e 2179     		ldrb	r1, [r4, #4]	@ zero_extendqisi2
 1454 0060 2046     		mov	r0, r4
 1455 0062 FFF7FEFF 		bl	_ZN3i2c9WriteByteEhhh
 1456              	.LVL170:
 599:Laser.c       ****   I2C.WriteByte(dev_,0x81, 0x01);
 1457              		.loc 1 599 0
 1458 0066 0123     		movs	r3, #1
 1459 0068 8122     		movs	r2, #129
 1460 006a 2179     		ldrb	r1, [r4, #4]	@ zero_extendqisi2
 1461 006c 2046     		mov	r0, r4
 1462 006e FFF7FEFF 		bl	_ZN3i2c9WriteByteEhhh
 1463              	.LVL171:
 600:Laser.c       **** 
 601:Laser.c       ****   I2C.WriteByte(dev_,0x80, 0x01);
 1464              		.loc 1 601 0
 1465 0072 0123     		movs	r3, #1
 1466 0074 8022     		movs	r2, #128
 1467 0076 2179     		ldrb	r1, [r4, #4]	@ zero_extendqisi2
 1468 0078 2046     		mov	r0, r4
 1469 007a FFF7FEFF 		bl	_ZN3i2c9WriteByteEhhh
 1470              	.LVL172:
 602:Laser.c       **** 
 603:Laser.c       ****   I2C.WriteByte(dev_,0x94, 0x6b);
 1471              		.loc 1 603 0
 1472 007e 6B23     		movs	r3, #107
 1473 0080 9422     		movs	r2, #148
 1474 0082 2179     		ldrb	r1, [r4, #4]	@ zero_extendqisi2
 1475 0084 2046     		mov	r0, r4
 1476 0086 FFF7FEFF 		bl	_ZN3i2c9WriteByteEhhh
 1477              	.LVL173:
 604:Laser.c       ****   I2C.WriteByte(dev_,0x83, 0x00);
 1478              		.loc 1 604 0
 1479 008a 0023     		movs	r3, #0
 1480 008c 8322     		movs	r2, #131
 1481 008e 2179     		ldrb	r1, [r4, #4]	@ zero_extendqisi2
 1482 0090 2046     		mov	r0, r4
 1483 0092 FFF7FEFF 		bl	_ZN3i2c9WriteByteEhhh
 1484              	.LVL174:
 605:Laser.c       ****   //startTimeout(); Most likely a failswitch for deadlock
 606:Laser.c       ****   tmp = 0x00;
 1485              		.loc 1 606 0
 1486 0096 0023     		movs	r3, #0
 1487 0098 8DF80730 		strb	r3, [sp, #7]
 1488              	.L38:
 607:Laser.c       ****   while (tmp == 0x00)
 1489              		.loc 1 607 0
 1490 009c 9DF80730 		ldrb	r3, [sp, #7]	@ zero_extendqisi2
ARM GAS  C:\Users\hejmi\AppData\Local\Temp\ccFM6jcL.s 			page 38


 1491 00a0 3BB9     		cbnz	r3, .L37
 608:Laser.c       ****   {
 609:Laser.c       ****     I2C.ReadByte(dev_,0x83,&tmp);
 1492              		.loc 1 609 0
 1493 00a2 0DF10703 		add	r3, sp, #7
 1494 00a6 8322     		movs	r2, #131
 1495 00a8 2179     		ldrb	r1, [r4, #4]	@ zero_extendqisi2
 1496 00aa 2846     		mov	r0, r5
 1497 00ac FFF7FEFF 		bl	_ZN3i2c8ReadByteEhhPh
 1498              	.LVL175:
 1499 00b0 F4E7     		b	.L38
 1500              	.L37:
 610:Laser.c       ****     //if (checkTimeoutExpired()) { return false; }
 611:Laser.c       ****   }
 612:Laser.c       ****   I2C.WriteByte(dev_,0x83, 0x01);
 1501              		.loc 1 612 0
 1502 00b2 0123     		movs	r3, #1
 1503 00b4 8322     		movs	r2, #131
 1504 00b6 2179     		ldrb	r1, [r4, #4]	@ zero_extendqisi2
 1505 00b8 2046     		mov	r0, r4
 1506 00ba FFF7FEFF 		bl	_ZN3i2c9WriteByteEhhh
 1507              	.LVL176:
 613:Laser.c       ****   I2C.ReadByte(dev_,0x92,&tmp);
 1508              		.loc 1 613 0
 1509 00be 0DF10703 		add	r3, sp, #7
 1510 00c2 9222     		movs	r2, #146
 1511 00c4 2179     		ldrb	r1, [r4, #4]	@ zero_extendqisi2
 1512 00c6 2046     		mov	r0, r4
 1513 00c8 FFF7FEFF 		bl	_ZN3i2c8ReadByteEhhPh
 1514              	.LVL177:
 614:Laser.c       ****   //tmp = readReg(0x92); ^
 615:Laser.c       **** 
 616:Laser.c       ****   *count = tmp & 0x7f;
 1515              		.loc 1 616 0
 1516 00cc 9DF80730 		ldrb	r3, [sp, #7]	@ zero_extendqisi2
 1517 00d0 03F07F02 		and	r2, r3, #127
 1518 00d4 3A70     		strb	r2, [r7]
 617:Laser.c       ****   *type_is_aperture = (tmp >> 7) & 0x01;
 1519              		.loc 1 617 0
 1520 00d6 DB09     		lsrs	r3, r3, #7
 1521 00d8 3370     		strb	r3, [r6]
 618:Laser.c       **** 
 619:Laser.c       ****   I2C.WriteByte(dev_,0x81, 0x00);
 1522              		.loc 1 619 0
 1523 00da 0023     		movs	r3, #0
 1524 00dc 8122     		movs	r2, #129
 1525 00de 2179     		ldrb	r1, [r4, #4]	@ zero_extendqisi2
 1526 00e0 2046     		mov	r0, r4
 1527 00e2 FFF7FEFF 		bl	_ZN3i2c9WriteByteEhhh
 1528              	.LVL178:
 620:Laser.c       ****   I2C.WriteByte(dev_,0xFF, 0x06);
 1529              		.loc 1 620 0
 1530 00e6 0623     		movs	r3, #6
 1531 00e8 FF22     		movs	r2, #255
 1532 00ea 2179     		ldrb	r1, [r4, #4]	@ zero_extendqisi2
 1533 00ec 2046     		mov	r0, r4
 1534 00ee FFF7FEFF 		bl	_ZN3i2c9WriteByteEhhh
ARM GAS  C:\Users\hejmi\AppData\Local\Temp\ccFM6jcL.s 			page 39


 1535              	.LVL179:
 621:Laser.c       ****   I2C.ReadByte(dev_,0x83,&tmp);
 1536              		.loc 1 621 0
 1537 00f2 0DF10703 		add	r3, sp, #7
 1538 00f6 8322     		movs	r2, #131
 1539 00f8 2179     		ldrb	r1, [r4, #4]	@ zero_extendqisi2
 1540 00fa 2046     		mov	r0, r4
 1541 00fc FFF7FEFF 		bl	_ZN3i2c8ReadByteEhhPh
 1542              	.LVL180:
 622:Laser.c       ****   I2C.WriteByte(dev_,0x83, tmp  & ~0x04);
 1543              		.loc 1 622 0
 1544 0100 9DF80730 		ldrb	r3, [sp, #7]	@ zero_extendqisi2
 1545 0104 03F0FB03 		and	r3, r3, #251
 1546 0108 8322     		movs	r2, #131
 1547 010a 2179     		ldrb	r1, [r4, #4]	@ zero_extendqisi2
 1548 010c 2046     		mov	r0, r4
 1549 010e FFF7FEFF 		bl	_ZN3i2c9WriteByteEhhh
 1550              	.LVL181:
 623:Laser.c       ****   I2C.WriteByte(dev_,0xFF, 0x01);
 1551              		.loc 1 623 0
 1552 0112 0123     		movs	r3, #1
 1553 0114 FF22     		movs	r2, #255
 1554 0116 2179     		ldrb	r1, [r4, #4]	@ zero_extendqisi2
 1555 0118 2046     		mov	r0, r4
 1556 011a FFF7FEFF 		bl	_ZN3i2c9WriteByteEhhh
 1557              	.LVL182:
 624:Laser.c       ****   I2C.WriteByte(dev_,0x00, 0x01);
 1558              		.loc 1 624 0
 1559 011e 0123     		movs	r3, #1
 1560 0120 0022     		movs	r2, #0
 1561 0122 2179     		ldrb	r1, [r4, #4]	@ zero_extendqisi2
 1562 0124 2046     		mov	r0, r4
 1563 0126 FFF7FEFF 		bl	_ZN3i2c9WriteByteEhhh
 1564              	.LVL183:
 625:Laser.c       **** 
 626:Laser.c       ****   I2C.WriteByte(dev_,0xFF, 0x00);
 1565              		.loc 1 626 0
 1566 012a 0023     		movs	r3, #0
 1567 012c FF22     		movs	r2, #255
 1568 012e 2179     		ldrb	r1, [r4, #4]	@ zero_extendqisi2
 1569 0130 2046     		mov	r0, r4
 1570 0132 FFF7FEFF 		bl	_ZN3i2c9WriteByteEhhh
 1571              	.LVL184:
 627:Laser.c       ****   I2C.WriteByte(dev_,0x80, 0x00);
 1572              		.loc 1 627 0
 1573 0136 0023     		movs	r3, #0
 1574 0138 8022     		movs	r2, #128
 1575 013a 2179     		ldrb	r1, [r4, #4]	@ zero_extendqisi2
 1576 013c 2046     		mov	r0, r4
 1577 013e FFF7FEFF 		bl	_ZN3i2c9WriteByteEhhh
 1578              	.LVL185:
 628:Laser.c       **** 
 629:Laser.c       ****   return true;
 630:Laser.c       **** }
 1579              		.loc 1 630 0
 1580 0142 0120     		movs	r0, #1
 1581 0144 03B0     		add	sp, sp, #12
ARM GAS  C:\Users\hejmi\AppData\Local\Temp\ccFM6jcL.s 			page 40


 1582              		.cfi_def_cfa_offset 20
 1583              		@ sp needed
 1584 0146 F0BD     		pop	{r4, r5, r6, r7, pc}
 1585              		.cfi_endproc
 1586              	.LFE91:
 1587              		.fnend
 1588              		.size	_ZN5Laser11getSpadInfoEPhPb, .-_ZN5Laser11getSpadInfoEPhPb
 1589              		.section	.text._ZN5Laser26timeoutMclksToMicrosecondsEth,"ax",%progbits
 1590              		.align	2
 1591              		.global	_ZN5Laser26timeoutMclksToMicrosecondsEth
 1592              		.thumb
 1593              		.thumb_func
 1594              		.type	_ZN5Laser26timeoutMclksToMicrosecondsEth, %function
 1595              	_ZN5Laser26timeoutMclksToMicrosecondsEth:
 1596              		.fnstart
 1597              	.LFB92:
 631:Laser.c       **** 
 632:Laser.c       **** // Convert sequence step timeout from MCLKs to microseconds with given VCSEL period in PCLKs
 633:Laser.c       **** // based on VL53L0X_calc_timeout_us()
 634:Laser.c       **** uint32_t Laser::timeoutMclksToMicroseconds(uint16_t timeout_period_mclks, uint8_t vcsel_period_pclk
 635:Laser.c       **** {
 1598              		.loc 1 635 0
 1599              		.cfi_startproc
 1600              		@ args = 0, pretend = 0, frame = 0
 1601              		@ frame_needed = 0, uses_anonymous_args = 0
 1602              		@ link register save eliminated.
 1603              	.LVL186:
 636:Laser.c       ****   uint32_t macro_period_ns = calcMacroPeriod(vcsel_period_pclks);
 1604              		.loc 1 636 0
 1605 0000 074B     		ldr	r3, .L41
 1606 0002 03FB02F2 		mul	r2, r3, r2
 1607              	.LVL187:
 1608 0006 02F5FA72 		add	r2, r2, #500
 1609 000a 0648     		ldr	r0, .L41+4
 1610              	.LVL188:
 1611 000c A0FB0232 		umull	r3, r2, r0, r2
 1612 0010 9309     		lsrs	r3, r2, #6
 1613              	.LVL189:
 637:Laser.c       ****   return ((timeout_period_mclks * macro_period_ns) + (macro_period_ns / 2)) / 1000;
 1614              		.loc 1 637 0
 1615 0012 D209     		lsrs	r2, r2, #7
 1616 0014 03FB0121 		mla	r1, r3, r1, r2
 1617              	.LVL190:
 1618 0018 A0FB0130 		umull	r3, r0, r0, r1
 1619              	.LVL191:
 638:Laser.c       **** }
 1620              		.loc 1 638 0
 1621 001c 8009     		lsrs	r0, r0, #6
 1622 001e 7047     		bx	lr
 1623              	.L42:
 1624              		.align	2
 1625              	.L41:
 1626 0020 002F3A00 		.word	3813120
 1627 0024 D34D6210 		.word	274877907
 1628              		.cfi_endproc
 1629              	.LFE92:
 1630              		.cantunwind
ARM GAS  C:\Users\hejmi\AppData\Local\Temp\ccFM6jcL.s 			page 41


 1631              		.fnend
 1632              		.size	_ZN5Laser26timeoutMclksToMicrosecondsEth, .-_ZN5Laser26timeoutMclksToMicrosecondsEth
 1633              		.section	.text._ZN5Laser23getSequenceStepTimeoutsEPK19SequenceStepEnablesP20SequenceStepTimeouts,"
 1634              		.align	2
 1635              		.global	_ZN5Laser23getSequenceStepTimeoutsEPK19SequenceStepEnablesP20SequenceStepTimeouts
 1636              		.thumb
 1637              		.thumb_func
 1638              		.type	_ZN5Laser23getSequenceStepTimeoutsEPK19SequenceStepEnablesP20SequenceStepTimeouts, %function
 1639              	_ZN5Laser23getSequenceStepTimeoutsEPK19SequenceStepEnablesP20SequenceStepTimeouts:
 1640              		.fnstart
 1641              	.LFB83:
 361:Laser.c       ****   uint8_t tmpdata;
 1642              		.loc 1 361 0
 1643              		.cfi_startproc
 1644              		@ args = 0, pretend = 0, frame = 8
 1645              		@ frame_needed = 0, uses_anonymous_args = 0
 1646              	.LVL192:
 1647 0000 F0B5     		push	{r4, r5, r6, r7, lr}
 1648              		.save {r4, r5, r6, r7, lr}
 1649              		.cfi_def_cfa_offset 20
 1650              		.cfi_offset 4, -20
 1651              		.cfi_offset 5, -16
 1652              		.cfi_offset 6, -12
 1653              		.cfi_offset 7, -8
 1654              		.cfi_offset 14, -4
 1655              		.pad #20
 1656 0002 85B0     		sub	sp, sp, #20
 1657              		.cfi_def_cfa_offset 40
 1658 0004 0546     		mov	r5, r0
 1659 0006 0F46     		mov	r7, r1
 1660 0008 1446     		mov	r4, r2
 363:Laser.c       **** 
 1661              		.loc 1 363 0
 1662 000a 0021     		movs	r1, #0
 1663              	.LVL193:
 1664 000c FFF7FEFF 		bl	_ZN5Laser19getVcselPulsePeriodE15vcselPeriodType
 1665              	.LVL194:
 1666 0010 2080     		strh	r0, [r4]	@ movhi
 365:Laser.c       ****   timeouts->msrc_dss_tcc_mclks = tmpdata + 1;
 1667              		.loc 1 365 0
 1668 0012 2979     		ldrb	r1, [r5, #4]	@ zero_extendqisi2
 1669 0014 0DF10F03 		add	r3, sp, #15
 1670 0018 0093     		str	r3, [sp]
 1671 001a 0123     		movs	r3, #1
 1672 001c 4622     		movs	r2, #70
 1673 001e 2846     		mov	r0, r5
 1674 0020 FFF7FEFF 		bl	_ZN3i2c9ReadBytesEhhhPh
 1675              	.LVL195:
 366:Laser.c       ****   timeouts->msrc_dss_tcc_us =
 1676              		.loc 1 366 0
 1677 0024 9DF80F10 		ldrb	r1, [sp, #15]	@ zero_extendqisi2
 1678 0028 0131     		adds	r1, r1, #1
 1679 002a A180     		strh	r1, [r4, #4]	@ movhi
 368:Laser.c       ****                                timeouts->pre_range_vcsel_period_pclks);
 1680              		.loc 1 368 0
 1681 002c 2278     		ldrb	r2, [r4]	@ zero_extendqisi2
 1682 002e 2846     		mov	r0, r5
ARM GAS  C:\Users\hejmi\AppData\Local\Temp\ccFM6jcL.s 			page 42


 1683 0030 FFF7FEFF 		bl	_ZN5Laser26timeoutMclksToMicrosecondsEth
 1684              	.LVL196:
 369:Laser.c       **** 
 1685              		.loc 1 369 0
 1686 0034 E060     		str	r0, [r4, #12]
 1687              	.LVL197:
 373:Laser.c       ****   tmp16bit = (tmp8bit[0] << 8) + tmp8bit[1];
 1688              		.loc 1 373 0
 1689 0036 2979     		ldrb	r1, [r5, #4]	@ zero_extendqisi2
 1690 0038 03AE     		add	r6, sp, #12
 1691 003a 0096     		str	r6, [sp]
 1692 003c 0223     		movs	r3, #2
 1693 003e 5122     		movs	r2, #81
 1694 0040 2846     		mov	r0, r5
 1695 0042 FFF7FEFF 		bl	_ZN3i2c9ReadBytesEhhhPh
 1696              	.LVL198:
 374:Laser.c       **** 
 1697              		.loc 1 374 0
 1698 0046 9DF80C10 		ldrb	r1, [sp, #12]	@ zero_extendqisi2
 1699 004a 9DF80D30 		ldrb	r3, [sp, #13]	@ zero_extendqisi2
 1700 004e 03EB0121 		add	r1, r3, r1, lsl #8
 1701              	.LVL199:
 377:Laser.c       ****   timeouts->pre_range_us =
 1702              		.loc 1 377 0
 1703 0052 89B2     		uxth	r1, r1
 1704 0054 2846     		mov	r0, r5
 1705 0056 FFF7FEFF 		bl	_ZN5Laser13decodeTimeoutEt
 1706              	.LVL200:
 1707 005a 0146     		mov	r1, r0
 1708 005c E080     		strh	r0, [r4, #6]	@ movhi
 379:Laser.c       ****                                timeouts->pre_range_vcsel_period_pclks);
 1709              		.loc 1 379 0
 1710 005e 2278     		ldrb	r2, [r4]	@ zero_extendqisi2
 1711 0060 2846     		mov	r0, r5
 1712 0062 FFF7FEFF 		bl	_ZN5Laser26timeoutMclksToMicrosecondsEth
 1713              	.LVL201:
 380:Laser.c       **** 
 1714              		.loc 1 380 0
 1715 0066 2061     		str	r0, [r4, #16]
 382:Laser.c       **** 
 1716              		.loc 1 382 0
 1717 0068 0121     		movs	r1, #1
 1718 006a 2846     		mov	r0, r5
 1719 006c FFF7FEFF 		bl	_ZN5Laser19getVcselPulsePeriodE15vcselPeriodType
 1720              	.LVL202:
 1721 0070 6080     		strh	r0, [r4, #2]	@ movhi
 384:Laser.c       ****   tmp16bit = (tmp8bit[0] << 8) + tmp8bit[1];
 1722              		.loc 1 384 0
 1723 0072 2979     		ldrb	r1, [r5, #4]	@ zero_extendqisi2
 1724 0074 0096     		str	r6, [sp]
 1725 0076 0223     		movs	r3, #2
 1726 0078 7122     		movs	r2, #113
 1727 007a 2846     		mov	r0, r5
 1728 007c FFF7FEFF 		bl	_ZN3i2c9ReadBytesEhhhPh
 1729              	.LVL203:
 385:Laser.c       ****   timeouts->final_range_mclks =
 1730              		.loc 1 385 0
ARM GAS  C:\Users\hejmi\AppData\Local\Temp\ccFM6jcL.s 			page 43


 1731 0080 9DF80C10 		ldrb	r1, [sp, #12]	@ zero_extendqisi2
 1732 0084 9DF80D30 		ldrb	r3, [sp, #13]	@ zero_extendqisi2
 1733 0088 03EB0121 		add	r1, r3, r1, lsl #8
 1734              	.LVL204:
 387:Laser.c       **** 
 1735              		.loc 1 387 0
 1736 008c 89B2     		uxth	r1, r1
 1737 008e 2846     		mov	r0, r5
 1738 0090 FFF7FEFF 		bl	_ZN5Laser13decodeTimeoutEt
 1739              	.LVL205:
 1740 0094 2081     		strh	r0, [r4, #8]	@ movhi
 389:Laser.c       ****   {
 1741              		.loc 1 389 0
 1742 0096 FB78     		ldrb	r3, [r7, #3]	@ zero_extendqisi2
 1743 0098 13B1     		cbz	r3, .L44
 391:Laser.c       ****   }
 1744              		.loc 1 391 0
 1745 009a E388     		ldrh	r3, [r4, #6]
 1746 009c C01A     		subs	r0, r0, r3
 1747 009e 2081     		strh	r0, [r4, #8]	@ movhi
 1748              	.L44:
 395:Laser.c       ****                                timeouts->final_range_vcsel_period_pclks);
 1749              		.loc 1 395 0
 1750 00a0 A278     		ldrb	r2, [r4, #2]	@ zero_extendqisi2
 1751 00a2 2189     		ldrh	r1, [r4, #8]
 1752 00a4 2846     		mov	r0, r5
 1753 00a6 FFF7FEFF 		bl	_ZN5Laser26timeoutMclksToMicrosecondsEth
 1754              	.LVL206:
 396:Laser.c       **** }
 1755              		.loc 1 396 0
 1756 00aa 6061     		str	r0, [r4, #20]
 397:Laser.c       **** 
 1757              		.loc 1 397 0
 1758 00ac 05B0     		add	sp, sp, #20
 1759              		.cfi_def_cfa_offset 20
 1760              		@ sp needed
 1761 00ae F0BD     		pop	{r4, r5, r6, r7, pc}
 1762              		.cfi_endproc
 1763              	.LFE83:
 1764              		.fnend
 1765              		.size	_ZN5Laser23getSequenceStepTimeoutsEPK19SequenceStepEnablesP20SequenceStepTimeouts, .-_ZN5Las
 1766              		.section	.text._ZN5Laser26getMeasurementTimingBudgetEv,"ax",%progbits
 1767              		.align	2
 1768              		.global	_ZN5Laser26getMeasurementTimingBudgetEv
 1769              		.thumb
 1770              		.thumb_func
 1771              		.type	_ZN5Laser26getMeasurementTimingBudgetEv, %function
 1772              	_ZN5Laser26getMeasurementTimingBudgetEv:
 1773              		.fnstart
 1774              	.LFB81:
 296:Laser.c       ****   SequenceStepEnables enables;
 1775              		.loc 1 296 0
 1776              		.cfi_startproc
 1777              		@ args = 0, pretend = 0, frame = 32
 1778              		@ frame_needed = 0, uses_anonymous_args = 0
 1779              	.LVL207:
 1780 0000 10B5     		push	{r4, lr}
ARM GAS  C:\Users\hejmi\AppData\Local\Temp\ccFM6jcL.s 			page 44


 1781              		.save {r4, lr}
 1782              		.cfi_def_cfa_offset 8
 1783              		.cfi_offset 4, -8
 1784              		.cfi_offset 14, -4
 1785              		.pad #32
 1786 0002 88B0     		sub	sp, sp, #32
 1787              		.cfi_def_cfa_offset 40
 1788 0004 0446     		mov	r4, r0
 1789              	.LVL208:
 311:Laser.c       ****   getSequenceStepTimeouts(&enables, &timeouts);
 1790              		.loc 1 311 0
 1791 0006 06A9     		add	r1, sp, #24
 1792 0008 FFF7FEFF 		bl	_ZN5Laser22getSequenceStepEnablesEP19SequenceStepEnables
 1793              	.LVL209:
 312:Laser.c       **** 
 1794              		.loc 1 312 0
 1795 000c 6A46     		mov	r2, sp
 1796 000e 06A9     		add	r1, sp, #24
 1797 0010 2046     		mov	r0, r4
 1798 0012 FFF7FEFF 		bl	_ZN5Laser23getSequenceStepTimeoutsEPK19SequenceStepEnablesP20SequenceStepTimeouts
 1799              	.LVL210:
 314:Laser.c       ****   {
 1800              		.loc 1 314 0
 1801 0016 9DF81830 		ldrb	r3, [sp, #24]	@ zero_extendqisi2
 1802 001a 1BB1     		cbz	r3, .L52
 316:Laser.c       ****   }
 1803              		.loc 1 316 0
 1804 001c 0398     		ldr	r0, [sp, #12]
 1805 001e 00F68450 		addw	r0, r0, #3460
 1806              	.LVL211:
 1807 0022 01E0     		b	.L47
 1808              	.LVL212:
 1809              	.L52:
 309:Laser.c       **** 
 1810              		.loc 1 309 0
 1811 0024 40F63630 		movw	r0, #2870
 1812              	.LVL213:
 1813              	.L47:
 319:Laser.c       ****   {
 1814              		.loc 1 319 0
 1815 0028 9DF81A30 		ldrb	r3, [sp, #26]	@ zero_extendqisi2
 1816 002c 2BB1     		cbz	r3, .L48
 321:Laser.c       ****   }
 1817              		.loc 1 321 0
 1818 002e 039B     		ldr	r3, [sp, #12]
 1819 0030 03F2B223 		addw	r3, r3, #690
 1820 0034 00EB4300 		add	r0, r0, r3, lsl #1
 1821              	.LVL214:
 1822 0038 06E0     		b	.L49
 1823              	.L48:
 323:Laser.c       ****   {
 1824              		.loc 1 323 0
 1825 003a 9DF81930 		ldrb	r3, [sp, #25]	@ zero_extendqisi2
 1826 003e 1BB1     		cbz	r3, .L49
 325:Laser.c       ****   }
 1827              		.loc 1 325 0
 1828 0040 039B     		ldr	r3, [sp, #12]
ARM GAS  C:\Users\hejmi\AppData\Local\Temp\ccFM6jcL.s 			page 45


 1829 0042 1844     		add	r0, r0, r3
 1830              	.LVL215:
 1831 0044 00F52570 		add	r0, r0, #660
 1832              	.LVL216:
 1833              	.L49:
 328:Laser.c       ****   {
 1834              		.loc 1 328 0
 1835 0048 9DF81B30 		ldrb	r3, [sp, #27]	@ zero_extendqisi2
 1836 004c 1BB1     		cbz	r3, .L50
 330:Laser.c       ****   }
 1837              		.loc 1 330 0
 1838 004e 049B     		ldr	r3, [sp, #16]
 1839 0050 1844     		add	r0, r0, r3
 1840              	.LVL217:
 1841 0052 00F52570 		add	r0, r0, #660
 1842              	.LVL218:
 1843              	.L50:
 333:Laser.c       ****   {
 1844              		.loc 1 333 0
 1845 0056 9DF81C30 		ldrb	r3, [sp, #28]	@ zero_extendqisi2
 1846 005a 1BB1     		cbz	r3, .L51
 335:Laser.c       ****   }
 1847              		.loc 1 335 0
 1848 005c 059B     		ldr	r3, [sp, #20]
 1849 005e 1844     		add	r0, r0, r3
 1850              	.LVL219:
 1851 0060 00F22620 		addw	r0, r0, #550
 1852              	.LVL220:
 1853              	.L51:
 338:Laser.c       ****   return budget_us;
 1854              		.loc 1 338 0
 1855 0064 A060     		str	r0, [r4, #8]
 340:Laser.c       **** 
 1856              		.loc 1 340 0
 1857 0066 08B0     		add	sp, sp, #32
 1858              		.cfi_def_cfa_offset 8
 1859              		@ sp needed
 1860 0068 10BD     		pop	{r4, pc}
 1861              		.cfi_endproc
 1862              	.LFE81:
 1863              		.fnend
 1864              		.size	_ZN5Laser26getMeasurementTimingBudgetEv, .-_ZN5Laser26getMeasurementTimingBudgetEv
 1865 006a 00BF     		.section	.text._ZN5Laser26timeoutMicrosecondsToMclksEmh,"ax",%progbits
 1866              		.align	2
 1867              		.global	_ZN5Laser26timeoutMicrosecondsToMclksEmh
 1868              		.thumb
 1869              		.thumb_func
 1870              		.type	_ZN5Laser26timeoutMicrosecondsToMclksEmh, %function
 1871              	_ZN5Laser26timeoutMicrosecondsToMclksEmh:
 1872              		.fnstart
 1873              	.LFB93:
 639:Laser.c       **** 
 640:Laser.c       **** // Convert sequence step timeout from microseconds to MCLKs with given VCSEL period in PCLKs
 641:Laser.c       **** // based on VL53L0X_calc_timeout_mclks()
 642:Laser.c       **** uint32_t Laser::timeoutMicrosecondsToMclks(uint32_t timeout_period_us, uint8_t vcsel_period_pclks)
 643:Laser.c       **** {
 1874              		.loc 1 643 0
ARM GAS  C:\Users\hejmi\AppData\Local\Temp\ccFM6jcL.s 			page 46


 1875              		.cfi_startproc
 1876              		@ args = 0, pretend = 0, frame = 0
 1877              		@ frame_needed = 0, uses_anonymous_args = 0
 1878              		@ link register save eliminated.
 1879              	.LVL221:
 644:Laser.c       ****   uint32_t macro_period_ns = calcMacroPeriod(vcsel_period_pclks);
 1880              		.loc 1 644 0
 1881 0000 084B     		ldr	r3, .L55
 1882 0002 03FB02F2 		mul	r2, r3, r2
 1883              	.LVL222:
 1884 0006 02F5FA72 		add	r2, r2, #500
 1885 000a 0748     		ldr	r0, .L55+4
 1886              	.LVL223:
 1887 000c A0FB0232 		umull	r3, r2, r0, r2
 1888 0010 9009     		lsrs	r0, r2, #6
 1889              	.LVL224:
 645:Laser.c       **** 
 646:Laser.c       ****   return (((timeout_period_us * 1000) + (macro_period_ns / 2)) / macro_period_ns);
 1890              		.loc 1 646 0
 1891 0012 D209     		lsrs	r2, r2, #7
 1892 0014 4FF47A73 		mov	r3, #1000
 1893 0018 03FB0121 		mla	r1, r3, r1, r2
 1894              	.LVL225:
 647:Laser.c       **** }
 1895              		.loc 1 647 0
 1896 001c B1FBF0F0 		udiv	r0, r1, r0
 1897              	.LVL226:
 1898 0020 7047     		bx	lr
 1899              	.L56:
 1900 0022 00BF     		.align	2
 1901              	.L55:
 1902 0024 002F3A00 		.word	3813120
 1903 0028 D34D6210 		.word	274877907
 1904              		.cfi_endproc
 1905              	.LFE93:
 1906              		.cantunwind
 1907              		.fnend
 1908              		.size	_ZN5Laser26timeoutMicrosecondsToMclksEmh, .-_ZN5Laser26timeoutMicrosecondsToMclksEmh
 1909              		.section	.text._ZN5Laser27performSingleRefCalibrationEh,"ax",%progbits
 1910              		.align	2
 1911              		.global	_ZN5Laser27performSingleRefCalibrationEh
 1912              		.thumb
 1913              		.thumb_func
 1914              		.type	_ZN5Laser27performSingleRefCalibrationEh, %function
 1915              	_ZN5Laser27performSingleRefCalibrationEh:
 1916              		.fnstart
 1917              	.LFB94:
 648:Laser.c       **** 
 649:Laser.c       **** // based on VL53L0X_perform_single_ref_calibration()
 650:Laser.c       **** bool Laser::performSingleRefCalibration(uint8_t vhv_init_byte)
 651:Laser.c       **** {
 1918              		.loc 1 651 0
 1919              		.cfi_startproc
 1920              		@ args = 0, pretend = 0, frame = 8
 1921              		@ frame_needed = 0, uses_anonymous_args = 0
 1922              	.LVL227:
 1923 0000 30B5     		push	{r4, r5, lr}
ARM GAS  C:\Users\hejmi\AppData\Local\Temp\ccFM6jcL.s 			page 47


 1924              		.save {r4, r5, lr}
 1925              		.cfi_def_cfa_offset 12
 1926              		.cfi_offset 4, -12
 1927              		.cfi_offset 5, -8
 1928              		.cfi_offset 14, -4
 1929              		.pad #12
 1930 0002 83B0     		sub	sp, sp, #12
 1931              		.cfi_def_cfa_offset 24
 1932 0004 0446     		mov	r4, r0
 652:Laser.c       ****   I2C.WriteByte(dev_,SYSRANGE_START, 0x01 | vhv_init_byte); // VL53L0X_REG_SYSRANGE_MODE_START_STOP
 1933              		.loc 1 652 0
 1934 0006 0546     		mov	r5, r0
 1935 0008 41F00103 		orr	r3, r1, #1
 1936 000c 0022     		movs	r2, #0
 1937 000e 0179     		ldrb	r1, [r0, #4]	@ zero_extendqisi2
 1938              	.LVL228:
 1939 0010 FFF7FEFF 		bl	_ZN3i2c9WriteByteEhhh
 1940              	.LVL229:
 653:Laser.c       **** 
 654:Laser.c       ****   //startTimeout();
 655:Laser.c       ****   uint8_t tmp = 0;
 1941              		.loc 1 655 0
 1942 0014 0023     		movs	r3, #0
 1943 0016 8DF80730 		strb	r3, [sp, #7]
 1944              	.L59:
 656:Laser.c       ****   while ((tmp & 0x07) == 0)
 1945              		.loc 1 656 0
 1946 001a 9DF80730 		ldrb	r3, [sp, #7]	@ zero_extendqisi2
 1947 001e 13F0070F 		tst	r3, #7
 1948 0022 07D1     		bne	.L58
 657:Laser.c       ****   {
 658:Laser.c       ****     I2C.ReadByte(dev_,RESULT_INTERRUPT_STATUS,&tmp);
 1949              		.loc 1 658 0
 1950 0024 0DF10703 		add	r3, sp, #7
 1951 0028 1322     		movs	r2, #19
 1952 002a 2179     		ldrb	r1, [r4, #4]	@ zero_extendqisi2
 1953 002c 2846     		mov	r0, r5
 1954 002e FFF7FEFF 		bl	_ZN3i2c8ReadByteEhhPh
 1955              	.LVL230:
 1956 0032 F2E7     		b	.L59
 1957              	.L58:
 659:Laser.c       ****     //if (checkTimeoutExpired()) { return false; }
 660:Laser.c       ****   }
 661:Laser.c       **** 
 662:Laser.c       ****   I2C.WriteByte(dev_,SYSTEM_INTERRUPT_CLEAR, 0x01);
 1958              		.loc 1 662 0
 1959 0034 0123     		movs	r3, #1
 1960 0036 0B22     		movs	r2, #11
 1961 0038 2179     		ldrb	r1, [r4, #4]	@ zero_extendqisi2
 1962 003a 2046     		mov	r0, r4
 1963 003c FFF7FEFF 		bl	_ZN3i2c9WriteByteEhhh
 1964              	.LVL231:
 663:Laser.c       **** 
 664:Laser.c       ****   I2C.WriteByte(dev_,SYSRANGE_START, 0x00);
 1965              		.loc 1 664 0
 1966 0040 0023     		movs	r3, #0
 1967 0042 1A46     		mov	r2, r3
ARM GAS  C:\Users\hejmi\AppData\Local\Temp\ccFM6jcL.s 			page 48


 1968 0044 2179     		ldrb	r1, [r4, #4]	@ zero_extendqisi2
 1969 0046 2046     		mov	r0, r4
 1970 0048 FFF7FEFF 		bl	_ZN3i2c9WriteByteEhhh
 1971              	.LVL232:
 665:Laser.c       **** 
 666:Laser.c       ****   return true;
 667:Laser.c       **** }
 1972              		.loc 1 667 0
 1973 004c 0120     		movs	r0, #1
 1974 004e 03B0     		add	sp, sp, #12
 1975              		.cfi_def_cfa_offset 12
 1976              		@ sp needed
 1977 0050 30BD     		pop	{r4, r5, pc}
 1978              		.cfi_endproc
 1979              	.LFE94:
 1980              		.fnend
 1981              		.size	_ZN5Laser27performSingleRefCalibrationEh, .-_ZN5Laser27performSingleRefCalibrationEh
 1982 0052 00BF     		.section	.text._ZN5Laser21PerformRefCalibrationEv,"ax",%progbits
 1983              		.align	2
 1984              		.global	_ZN5Laser21PerformRefCalibrationEv
 1985              		.thumb
 1986              		.thumb_func
 1987              		.type	_ZN5Laser21PerformRefCalibrationEv, %function
 1988              	_ZN5Laser21PerformRefCalibrationEv:
 1989              		.fnstart
 1990              	.LFB78:
 124:Laser.c       ****     // -- VL53L0X_perform_vhv_calibration() begin
 1991              		.loc 1 124 0
 1992              		.cfi_startproc
 1993              		@ args = 0, pretend = 0, frame = 0
 1994              		@ frame_needed = 0, uses_anonymous_args = 0
 1995              	.LVL233:
 1996 0000 38B5     		push	{r3, r4, r5, lr}
 1997              		.save {r3, r4, r5, lr}
 1998              		.cfi_def_cfa_offset 16
 1999              		.cfi_offset 3, -16
 2000              		.cfi_offset 4, -12
 2001              		.cfi_offset 5, -8
 2002              		.cfi_offset 14, -4
 2003 0002 0446     		mov	r4, r0
 126:Laser.c       ****     if (!performSingleRefCalibration(0x40)) { return false; }
 2004              		.loc 1 126 0
 2005 0004 0123     		movs	r3, #1
 2006 0006 1A46     		mov	r2, r3
 2007 0008 0179     		ldrb	r1, [r0, #4]	@ zero_extendqisi2
 2008 000a FFF7FEFF 		bl	_ZN3i2c9WriteByteEhhh
 2009              	.LVL234:
 127:Laser.c       ****     // -- VL53L0X_perform_vhv_calibration() end
 2010              		.loc 1 127 0
 2011 000e 4021     		movs	r1, #64
 2012 0010 2046     		mov	r0, r4
 2013 0012 FFF7FEFF 		bl	_ZN5Laser27performSingleRefCalibrationEh
 2014              	.LVL235:
 2015 0016 0546     		mov	r5, r0
 2016 0018 88B1     		cbz	r0, .L62
 131:Laser.c       ****     if (!performSingleRefCalibration(0x00)) { return false; }
 2017              		.loc 1 131 0
ARM GAS  C:\Users\hejmi\AppData\Local\Temp\ccFM6jcL.s 			page 49


 2018 001a 0223     		movs	r3, #2
 2019 001c 0122     		movs	r2, #1
 2020 001e 2179     		ldrb	r1, [r4, #4]	@ zero_extendqisi2
 2021 0020 2046     		mov	r0, r4
 2022 0022 FFF7FEFF 		bl	_ZN3i2c9WriteByteEhhh
 2023              	.LVL236:
 132:Laser.c       ****     // -- VL53L0X_perform_phase_calibration() end
 2024              		.loc 1 132 0
 2025 0026 0021     		movs	r1, #0
 2026 0028 2046     		mov	r0, r4
 2027 002a FFF7FEFF 		bl	_ZN5Laser27performSingleRefCalibrationEh
 2028              	.LVL237:
 2029 002e 0546     		mov	r5, r0
 2030 0030 28B1     		cbz	r0, .L62
 136:Laser.c       ****     return true;
 2031              		.loc 1 136 0
 2032 0032 E823     		movs	r3, #232
 2033 0034 0122     		movs	r2, #1
 2034 0036 2179     		ldrb	r1, [r4, #4]	@ zero_extendqisi2
 2035 0038 2046     		mov	r0, r4
 2036 003a FFF7FEFF 		bl	_ZN3i2c9WriteByteEhhh
 2037              	.LVL238:
 2038              	.L62:
 138:Laser.c       **** 
 2039              		.loc 1 138 0
 2040 003e 2846     		mov	r0, r5
 2041 0040 38BD     		pop	{r3, r4, r5, pc}
 2042              		.cfi_endproc
 2043              	.LFE78:
 2044              		.fnend
 2045              		.size	_ZN5Laser21PerformRefCalibrationEv, .-_ZN5Laser21PerformRefCalibrationEv
 2046 0042 00BF     		.section	.text._ZN5Laser13encodeTimeoutEt,"ax",%progbits
 2047              		.align	2
 2048              		.global	_ZN5Laser13encodeTimeoutEt
 2049              		.thumb
 2050              		.thumb_func
 2051              		.type	_ZN5Laser13encodeTimeoutEt, %function
 2052              	_ZN5Laser13encodeTimeoutEt:
 2053              		.fnstart
 2054              	.LFB95:
 668:Laser.c       **** 
 669:Laser.c       **** // Encode sequence step timeout register value from timeout in MCLKs
 670:Laser.c       **** // based on VL53L0X_encode_timeout()
 671:Laser.c       **** // Note: the original function took a uint16_t, but the argument passed to it
 672:Laser.c       **** // is always a uint16_t.
 673:Laser.c       **** uint16_t Laser::encodeTimeout(uint16_t timeout_mclks)
 674:Laser.c       **** {
 2055              		.loc 1 674 0
 2056              		.cfi_startproc
 2057              		@ args = 0, pretend = 0, frame = 0
 2058              		@ frame_needed = 0, uses_anonymous_args = 0
 2059              		@ link register save eliminated.
 2060              	.LVL239:
 675:Laser.c       ****   // format: "(LSByte * 2^MSByte) + 1"
 676:Laser.c       **** 
 677:Laser.c       ****   uint32_t ls_byte = 0;
 678:Laser.c       ****   uint16_t ms_byte = 0;
ARM GAS  C:\Users\hejmi\AppData\Local\Temp\ccFM6jcL.s 			page 50


 679:Laser.c       **** 
 680:Laser.c       ****   if (timeout_mclks > 0)
 2061              		.loc 1 680 0
 2062 0000 69B1     		cbz	r1, .L68
 681:Laser.c       ****   {
 682:Laser.c       ****     ls_byte = timeout_mclks - 1;
 2063              		.loc 1 682 0
 2064 0002 0139     		subs	r1, r1, #1
 2065              	.LVL240:
 678:Laser.c       **** 
 2066              		.loc 1 678 0
 2067 0004 0020     		movs	r0, #0
 2068              	.LVL241:
 2069              	.L67:
 683:Laser.c       **** 
 684:Laser.c       ****     while ((ls_byte & 0xFFFFFF00) > 0)
 2070              		.loc 1 684 0
 2071 0006 31F0FF03 		bics	r3, r1, #255
 2072 000a 03D0     		beq	.L66
 685:Laser.c       ****     {
 686:Laser.c       ****       ls_byte >>= 1;
 2073              		.loc 1 686 0
 2074 000c 4908     		lsrs	r1, r1, #1
 2075              	.LVL242:
 687:Laser.c       ****       ms_byte++;
 2076              		.loc 1 687 0
 2077 000e 0130     		adds	r0, r0, #1
 2078              	.LVL243:
 2079 0010 80B2     		uxth	r0, r0
 2080              	.LVL244:
 684:Laser.c       ****     {
 2081              		.loc 1 684 0
 2082 0012 F8E7     		b	.L67
 2083              	.L66:
 688:Laser.c       ****     }
 689:Laser.c       **** 
 690:Laser.c       ****     return (ms_byte << 8) | (ls_byte & 0xFF);
 2084              		.loc 1 690 0
 2085 0014 C9B2     		uxtb	r1, r1
 2086              	.LVL245:
 2087 0016 41EA0020 		orr	r0, r1, r0, lsl #8
 2088              	.LVL246:
 2089 001a 80B2     		uxth	r0, r0
 2090 001c 7047     		bx	lr
 2091              	.LVL247:
 2092              	.L68:
 691:Laser.c       ****   }
 692:Laser.c       ****   else { return 0; }
 2093              		.loc 1 692 0
 2094 001e 0020     		movs	r0, #0
 2095              	.LVL248:
 693:Laser.c       **** }
 2096              		.loc 1 693 0
 2097 0020 7047     		bx	lr
 2098              		.cfi_endproc
 2099              	.LFE95:
 2100              		.cantunwind
ARM GAS  C:\Users\hejmi\AppData\Local\Temp\ccFM6jcL.s 			page 51


 2101              		.fnend
 2102              		.size	_ZN5Laser13encodeTimeoutEt, .-_ZN5Laser13encodeTimeoutEt
 2103 0022 00BF     		.section	.text._ZN5Laser26setMeasurementTimingBudgetEm,"ax",%progbits
 2104              		.align	2
 2105              		.global	_ZN5Laser26setMeasurementTimingBudgetEm
 2106              		.thumb
 2107              		.thumb_func
 2108              		.type	_ZN5Laser26setMeasurementTimingBudgetEm, %function
 2109              	_ZN5Laser26setMeasurementTimingBudgetEm:
 2110              		.fnstart
 2111              	.LFB80:
 204:Laser.c       ****   SequenceStepEnables enables;
 2112              		.loc 1 204 0
 2113              		.cfi_startproc
 2114              		@ args = 0, pretend = 0, frame = 40
 2115              		@ frame_needed = 0, uses_anonymous_args = 0
 2116              	.LVL249:
 2117 0000 F0B5     		push	{r4, r5, r6, r7, lr}
 2118              		.save {r4, r5, r6, r7, lr}
 2119              		.cfi_def_cfa_offset 20
 2120              		.cfi_offset 4, -20
 2121              		.cfi_offset 5, -16
 2122              		.cfi_offset 6, -12
 2123              		.cfi_offset 7, -8
 2124              		.cfi_offset 14, -4
 2125              		.pad #52
 2126 0002 8DB0     		sub	sp, sp, #52
 2127              		.cfi_def_cfa_offset 72
 2128              	.LVL250:
 218:Laser.c       **** 
 2129              		.loc 1 218 0
 2130 0004 44F61F63 		movw	r3, #19999
 2131 0008 9942     		cmp	r1, r3
 2132 000a 50D9     		bls	.L77
 2133 000c 0E46     		mov	r6, r1
 2134 000e 0446     		mov	r4, r0
 2135              	.LVL251:
 222:Laser.c       ****   getSequenceStepTimeouts(&enables, &timeouts);
 2136              		.loc 1 222 0
 2137 0010 0AA9     		add	r1, sp, #40
 2138              	.LVL252:
 2139 0012 FFF7FEFF 		bl	_ZN5Laser22getSequenceStepEnablesEP19SequenceStepEnables
 2140              	.LVL253:
 223:Laser.c       **** 
 2141              		.loc 1 223 0
 2142 0016 04AA     		add	r2, sp, #16
 2143 0018 0AA9     		add	r1, sp, #40
 2144 001a 2046     		mov	r0, r4
 2145 001c FFF7FEFF 		bl	_ZN5Laser23getSequenceStepTimeoutsEPK19SequenceStepEnablesP20SequenceStepTimeouts
 2146              	.LVL254:
 225:Laser.c       ****   {
 2147              		.loc 1 225 0
 2148 0020 9DF82830 		ldrb	r3, [sp, #40]	@ zero_extendqisi2
 2149 0024 1BB1     		cbz	r3, .L78
 227:Laser.c       ****   }
 2150              		.loc 1 227 0
 2151 0026 079B     		ldr	r3, [sp, #28]
ARM GAS  C:\Users\hejmi\AppData\Local\Temp\ccFM6jcL.s 			page 52


 2152 0028 03F63633 		addw	r3, r3, #2870
 2153              	.LVL255:
 2154 002c 01E0     		b	.L71
 2155              	.LVL256:
 2156              	.L78:
 220:Laser.c       **** 
 2157              		.loc 1 220 0
 2158 002e 40F6E803 		movw	r3, #2280
 2159              	.LVL257:
 2160              	.L71:
 230:Laser.c       ****   {
 2161              		.loc 1 230 0
 2162 0032 9DF82A20 		ldrb	r2, [sp, #42]	@ zero_extendqisi2
 2163 0036 2AB1     		cbz	r2, .L72
 232:Laser.c       ****   }
 2164              		.loc 1 232 0
 2165 0038 079A     		ldr	r2, [sp, #28]
 2166 003a 02F2B222 		addw	r2, r2, #690
 2167 003e 03EB4203 		add	r3, r3, r2, lsl #1
 2168              	.LVL258:
 2169 0042 06E0     		b	.L73
 2170              	.L72:
 234:Laser.c       ****   {
 2171              		.loc 1 234 0
 2172 0044 9DF82920 		ldrb	r2, [sp, #41]	@ zero_extendqisi2
 2173 0048 1AB1     		cbz	r2, .L73
 236:Laser.c       ****   }
 2174              		.loc 1 236 0
 2175 004a 0799     		ldr	r1, [sp, #28]
 2176 004c 0B44     		add	r3, r3, r1
 2177              	.LVL259:
 2178 004e 03F52573 		add	r3, r3, #660
 2179              	.LVL260:
 2180              	.L73:
 239:Laser.c       ****   {
 2181              		.loc 1 239 0
 2182 0052 9DF82B70 		ldrb	r7, [sp, #43]	@ zero_extendqisi2
 2183 0056 1FB1     		cbz	r7, .L74
 241:Laser.c       ****   }
 2184              		.loc 1 241 0
 2185 0058 0899     		ldr	r1, [sp, #32]
 2186 005a 0B44     		add	r3, r3, r1
 2187              	.LVL261:
 2188 005c 03F52573 		add	r3, r3, #660
 2189              	.LVL262:
 2190              	.L74:
 2191              	.LBB6:
 244:Laser.c       ****   {
 2192              		.loc 1 244 0
 2193 0060 9DF82C50 		ldrb	r5, [sp, #44]	@ zero_extendqisi2
 2194 0064 2DB3     		cbz	r5, .L79
 2195              	.LBB7:
 246:Laser.c       **** 
 2196              		.loc 1 246 0
 2197 0066 03F22621 		addw	r1, r3, #550
 2198              	.LVL263:
 254:Laser.c       ****     {
ARM GAS  C:\Users\hejmi\AppData\Local\Temp\ccFM6jcL.s 			page 53


 2199              		.loc 1 254 0
 2200 006a 8E42     		cmp	r6, r1
 2201 006c 01D2     		bcs	.L75
 257:Laser.c       ****     }
 2202              		.loc 1 257 0
 2203 006e 0025     		movs	r5, #0
 2204 0070 20E0     		b	.L70
 2205              	.L75:
 2206              	.LVL264:
 271:Laser.c       ****                                  timeouts.final_range_vcsel_period_pclks);
 2207              		.loc 1 271 0
 2208 0072 9DF81220 		ldrb	r2, [sp, #18]	@ zero_extendqisi2
 2209 0076 711A     		subs	r1, r6, r1
 2210              	.LVL265:
 2211 0078 2046     		mov	r0, r4
 2212 007a FFF7FEFF 		bl	_ZN5Laser26timeoutMicrosecondsToMclksEmh
 2213              	.LVL266:
 272:Laser.c       **** 
 2214              		.loc 1 272 0
 2215 007e 81B2     		uxth	r1, r0
 2216              	.LVL267:
 274:Laser.c       ****     {
 2217              		.loc 1 274 0
 2218 0080 1FB1     		cbz	r7, .L76
 276:Laser.c       ****     }
 2219              		.loc 1 276 0
 2220 0082 BDF81600 		ldrh	r0, [sp, #22]
 2221 0086 0144     		add	r1, r1, r0
 2222              	.LVL268:
 2223 0088 89B2     		uxth	r1, r1
 2224              	.LVL269:
 2225              	.L76:
 280:Laser.c       ****     tmparray[0] = tmp & 0xff;   // Low
 2226              		.loc 1 280 0
 2227 008a 2046     		mov	r0, r4
 2228 008c FFF7FEFF 		bl	_ZN5Laser13encodeTimeoutEt
 2229              	.LVL270:
 281:Laser.c       ****     tmparray[1] = (tmp >> 8);   // High
 2230              		.loc 1 281 0
 2231 0090 8DF80C00 		strb	r0, [sp, #12]
 282:Laser.c       ****     I2C.WriteBytes(dev_,FINAL_RANGE_CONFIG_TIMEOUT_MACROP_HI,2,tmparray);
 2232              		.loc 1 282 0
 2233 0094 0012     		asrs	r0, r0, #8
 2234              	.LVL271:
 2235 0096 8DF80D00 		strb	r0, [sp, #13]
 283:Laser.c       ****     
 2236              		.loc 1 283 0
 2237 009a 2179     		ldrb	r1, [r4, #4]	@ zero_extendqisi2
 2238 009c 03AB     		add	r3, sp, #12
 2239 009e 0093     		str	r3, [sp]
 2240 00a0 0223     		movs	r3, #2
 2241 00a2 7122     		movs	r2, #113
 2242 00a4 2046     		mov	r0, r4
 2243 00a6 FFF7FEFF 		bl	_ZN3i2c10WriteBytesEhhhPh
 2244              	.LVL272:
 287:Laser.c       ****   }
 2245              		.loc 1 287 0
ARM GAS  C:\Users\hejmi\AppData\Local\Temp\ccFM6jcL.s 			page 54


 2246 00aa A660     		str	r6, [r4, #8]
 2247              	.LBE7:
 2248 00ac 02E0     		b	.L70
 2249              	.LVL273:
 2250              	.L77:
 2251              	.LBE6:
 218:Laser.c       **** 
 2252              		.loc 1 218 0
 2253 00ae 0025     		movs	r5, #0
 2254 00b0 00E0     		b	.L70
 2255              	.LVL274:
 2256              	.L79:
 289:Laser.c       **** }
 2257              		.loc 1 289 0
 2258 00b2 0125     		movs	r5, #1
 2259              	.LVL275:
 2260              	.L70:
 290:Laser.c       **** 
 2261              		.loc 1 290 0
 2262 00b4 2846     		mov	r0, r5
 2263 00b6 0DB0     		add	sp, sp, #52
 2264              		.cfi_def_cfa_offset 20
 2265              		@ sp needed
 2266 00b8 F0BD     		pop	{r4, r5, r6, r7, pc}
 2267              		.cfi_endproc
 2268              	.LFE80:
 2269              		.fnend
 2270              		.size	_ZN5Laser26setMeasurementTimingBudgetEm, .-_ZN5Laser26setMeasurementTimingBudgetEm
 2271 00ba 00BF     		.section	.text._ZN5Laser10StaticInitEv,"ax",%progbits
 2272              		.align	2
 2273              		.global	_ZN5Laser10StaticInitEv
 2274              		.thumb
 2275              		.thumb_func
 2276              		.type	_ZN5Laser10StaticInitEv, %function
 2277              	_ZN5Laser10StaticInitEv:
 2278              		.fnstart
 2279              	.LFB79:
 141:Laser.c       ****     uint8_t spad_count;
 2280              		.loc 1 141 0
 2281              		.cfi_startproc
 2282              		@ args = 0, pretend = 0, frame = 8
 2283              		@ frame_needed = 0, uses_anonymous_args = 0
 2284              	.LVL276:
 2285 0000 70B5     		push	{r4, r5, r6, lr}
 2286              		.save {r4, r5, r6, lr}
 2287              		.cfi_def_cfa_offset 16
 2288              		.cfi_offset 4, -16
 2289              		.cfi_offset 5, -12
 2290              		.cfi_offset 6, -8
 2291              		.cfi_offset 14, -4
 2292              		.pad #16
 2293 0002 84B0     		sub	sp, sp, #16
 2294              		.cfi_def_cfa_offset 32
 2295 0004 0446     		mov	r4, r0
 144:Laser.c       ****     
 2296              		.loc 1 144 0
 2297 0006 0DF10E02 		add	r2, sp, #14
ARM GAS  C:\Users\hejmi\AppData\Local\Temp\ccFM6jcL.s 			page 55


 2298 000a 0DF10F01 		add	r1, sp, #15
 2299 000e FFF7FEFF 		bl	_ZN5Laser11getSpadInfoEPhPb
 2300              	.LVL277:
 2301 0012 0028     		cmp	r0, #0
 2302 0014 70D0     		beq	.L81
 150:Laser.c       **** 
 2303              		.loc 1 150 0
 2304 0016 2179     		ldrb	r1, [r4, #4]	@ zero_extendqisi2
 2305 0018 02AB     		add	r3, sp, #8
 2306 001a 0093     		str	r3, [sp]
 2307 001c 0623     		movs	r3, #6
 2308 001e B022     		movs	r2, #176
 2309 0020 2046     		mov	r0, r4
 2310 0022 FFF7FEFF 		bl	_ZN3i2c9ReadBytesEhhhPh
 2311              	.LVL278:
 153:Laser.c       ****     I2C.WriteByte(dev_,DYNAMIC_SPAD_REF_EN_START_OFFSET, 0x00);
 2312              		.loc 1 153 0
 2313 0026 0123     		movs	r3, #1
 2314 0028 FF22     		movs	r2, #255
 2315 002a 2179     		ldrb	r1, [r4, #4]	@ zero_extendqisi2
 2316 002c 2046     		mov	r0, r4
 2317 002e FFF7FEFF 		bl	_ZN3i2c9WriteByteEhhh
 2318              	.LVL279:
 154:Laser.c       ****     I2C.WriteByte(dev_,DYNAMIC_SPAD_NUM_REQUESTED_REF_SPAD, 0x2C);
 2319              		.loc 1 154 0
 2320 0032 0023     		movs	r3, #0
 2321 0034 4F22     		movs	r2, #79
 2322 0036 2179     		ldrb	r1, [r4, #4]	@ zero_extendqisi2
 2323 0038 2046     		mov	r0, r4
 2324 003a FFF7FEFF 		bl	_ZN3i2c9WriteByteEhhh
 2325              	.LVL280:
 155:Laser.c       ****     I2C.WriteByte(dev_,0xFF, 0x00);
 2326              		.loc 1 155 0
 2327 003e 2C23     		movs	r3, #44
 2328 0040 4E22     		movs	r2, #78
 2329 0042 2179     		ldrb	r1, [r4, #4]	@ zero_extendqisi2
 2330 0044 2046     		mov	r0, r4
 2331 0046 FFF7FEFF 		bl	_ZN3i2c9WriteByteEhhh
 2332              	.LVL281:
 156:Laser.c       ****     I2C.WriteByte(dev_,GLOBAL_CONFIG_REF_EN_START_SELECT, 0xB4);
 2333              		.loc 1 156 0
 2334 004a 0023     		movs	r3, #0
 2335 004c FF22     		movs	r2, #255
 2336 004e 2179     		ldrb	r1, [r4, #4]	@ zero_extendqisi2
 2337 0050 2046     		mov	r0, r4
 2338 0052 FFF7FEFF 		bl	_ZN3i2c9WriteByteEhhh
 2339              	.LVL282:
 157:Laser.c       **** 
 2340              		.loc 1 157 0
 2341 0056 B423     		movs	r3, #180
 2342 0058 B622     		movs	r2, #182
 2343 005a 2179     		ldrb	r1, [r4, #4]	@ zero_extendqisi2
 2344 005c 2046     		mov	r0, r4
 2345 005e FFF7FEFF 		bl	_ZN3i2c9WriteByteEhhh
 2346              	.LVL283:
 159:Laser.c       ****     uint8_t spads_enabled = 0;
 2347              		.loc 1 159 0
ARM GAS  C:\Users\hejmi\AppData\Local\Temp\ccFM6jcL.s 			page 56


 2348 0062 9DF80E30 		ldrb	r3, [sp, #14]	@ zero_extendqisi2
 2349 0066 0BB1     		cbz	r3, .L90
 2350 0068 0C26     		movs	r6, #12
 2351 006a 00E0     		b	.L83
 2352              	.L90:
 2353 006c 0026     		movs	r6, #0
 2354              	.L83:
 2355              	.LVL284:
 2356              	.LBB8:
 163:Laser.c       ****     {
 2357              		.loc 1 163 0 discriminator 4
 2358 006e 0023     		movs	r3, #0
 2359              	.LBE8:
 160:Laser.c       ****     
 2360              		.loc 1 160 0 discriminator 4
 2361 0070 1D46     		mov	r5, r3
 2362              	.LVL285:
 2363              	.L88:
 2364              	.LBB9:
 163:Laser.c       ****     {
 2365              		.loc 1 163 0 discriminator 1
 2366 0072 2F2B     		cmp	r3, #47
 2367 0074 24D8     		bhi	.L84
 165:Laser.c       ****         {
 2368              		.loc 1 165 0
 2369 0076 B342     		cmp	r3, r6
 2370 0078 03D3     		bcc	.L85
 165:Laser.c       ****         {
 2371              		.loc 1 165 0 is_stmt 0 discriminator 1
 2372 007a 9DF80F20 		ldrb	r2, [sp, #15]	@ zero_extendqisi2
 2373 007e 9542     		cmp	r5, r2
 2374 0080 0ED1     		bne	.L86
 2375              	.L85:
 169:Laser.c       ****         }
 2376              		.loc 1 169 0 is_stmt 1
 2377 0082 03F00701 		and	r1, r3, #7
 2378 0086 0122     		movs	r2, #1
 2379 0088 02FA01F1 		lsl	r1, r2, r1
 2380 008c 04AA     		add	r2, sp, #16
 2381 008e 02EBD300 		add	r0, r2, r3, lsr #3
 2382 0092 10F8082C 		ldrb	r2, [r0, #-8]	@ zero_extendqisi2
 2383 0096 22EA0102 		bic	r2, r2, r1
 2384 009a 00F8082C 		strb	r2, [r0, #-8]
 2385 009e 0CE0     		b	.L87
 2386              	.L86:
 171:Laser.c       ****         {
 2387              		.loc 1 171 0
 2388 00a0 04AA     		add	r2, sp, #16
 2389 00a2 02EBD302 		add	r2, r2, r3, lsr #3
 2390 00a6 12F8082C 		ldrb	r2, [r2, #-8]	@ zero_extendqisi2
 2391 00aa 03F00701 		and	r1, r3, #7
 2392 00ae 0A41     		asrs	r2, r2, r1
 2393 00b0 12F0010F 		tst	r2, #1
 2394 00b4 01D0     		beq	.L87
 173:Laser.c       ****         }
 2395              		.loc 1 173 0
 2396 00b6 0135     		adds	r5, r5, #1
ARM GAS  C:\Users\hejmi\AppData\Local\Temp\ccFM6jcL.s 			page 57


 2397              	.LVL286:
 2398 00b8 EDB2     		uxtb	r5, r5
 2399              	.LVL287:
 2400              	.L87:
 163:Laser.c       ****     {
 2401              		.loc 1 163 0 discriminator 2
 2402 00ba 0133     		adds	r3, r3, #1
 2403              	.LVL288:
 2404 00bc DBB2     		uxtb	r3, r3
 2405              	.LVL289:
 2406 00be D8E7     		b	.L88
 2407              	.L84:
 2408              	.LBE9:
 177:Laser.c       ****     LoadTuningSettings();
 2409              		.loc 1 177 0
 2410 00c0 2179     		ldrb	r1, [r4, #4]	@ zero_extendqisi2
 2411 00c2 02AB     		add	r3, sp, #8
 2412              	.LVL290:
 2413 00c4 0093     		str	r3, [sp]
 2414 00c6 0623     		movs	r3, #6
 2415 00c8 B022     		movs	r2, #176
 2416 00ca 2046     		mov	r0, r4
 2417 00cc FFF7FEFF 		bl	_ZN3i2c10WriteBytesEhhhPh
 2418              	.LVL291:
 178:Laser.c       ****     SetGpioConfig();
 2419              		.loc 1 178 0
 2420 00d0 2046     		mov	r0, r4
 2421 00d2 FFF7FEFF 		bl	_ZN5Laser18LoadTuningSettingsEv
 2422              	.LVL292:
 179:Laser.c       ****     
 2423              		.loc 1 179 0
 2424 00d6 2046     		mov	r0, r4
 2425 00d8 FFF7FEFF 		bl	_ZN5Laser13SetGpioConfigEv
 2426              	.LVL293:
 181:Laser.c       ****     
 2427              		.loc 1 181 0
 2428 00dc 2046     		mov	r0, r4
 2429 00de FFF7FEFF 		bl	_ZN5Laser26getMeasurementTimingBudgetEv
 2430              	.LVL294:
 2431 00e2 0546     		mov	r5, r0
 2432              	.LVL295:
 187:Laser.c       ****     // -- VL53L0X_SetSequenceStepEnable() end
 2433              		.loc 1 187 0
 2434 00e4 E823     		movs	r3, #232
 2435 00e6 0122     		movs	r2, #1
 2436 00e8 2179     		ldrb	r1, [r4, #4]	@ zero_extendqisi2
 2437 00ea 2046     		mov	r0, r4
 2438              	.LVL296:
 2439 00ec FFF7FEFF 		bl	_ZN3i2c9WriteByteEhhh
 2440              	.LVL297:
 191:Laser.c       ****     
 2441              		.loc 1 191 0
 2442 00f0 2946     		mov	r1, r5
 2443 00f2 2046     		mov	r0, r4
 2444 00f4 FFF7FEFF 		bl	_ZN5Laser26setMeasurementTimingBudgetEm
 2445              	.LVL298:
 2446              	.L81:
ARM GAS  C:\Users\hejmi\AppData\Local\Temp\ccFM6jcL.s 			page 58


 194:Laser.c       **** 
 2447              		.loc 1 194 0
 2448 00f8 04B0     		add	sp, sp, #16
 2449              		.cfi_def_cfa_offset 16
 2450              		@ sp needed
 2451 00fa 70BD     		pop	{r4, r5, r6, pc}
 2452              		.cfi_endproc
 2453              	.LFE79:
 2454              		.fnend
 2455              		.size	_ZN5Laser10StaticInitEv, .-_ZN5Laser10StaticInitEv
 2456              		.section	.text._ZN5Laser4InitEb,"ax",%progbits
 2457              		.align	2
 2458              		.global	_ZN5Laser4InitEb
 2459              		.thumb
 2460              		.thumb_func
 2461              		.type	_ZN5Laser4InitEb, %function
 2462              	_ZN5Laser4InitEb:
 2463              		.fnstart
 2464              	.LFB77:
 115:Laser.c       ****     I2CInit();
 2465              		.loc 1 115 0
 2466              		.cfi_startproc
 2467              		@ args = 0, pretend = 0, frame = 0
 2468              		@ frame_needed = 0, uses_anonymous_args = 0
 2469              	.LVL299:
 2470 0000 38B5     		push	{r3, r4, r5, lr}
 2471              		.save {r3, r4, r5, lr}
 2472              		.cfi_def_cfa_offset 16
 2473              		.cfi_offset 3, -16
 2474              		.cfi_offset 4, -12
 2475              		.cfi_offset 5, -8
 2476              		.cfi_offset 14, -4
 2477 0002 0446     		mov	r4, r0
 2478 0004 0D46     		mov	r5, r1
 116:Laser.c       ****     DataInit(io_2v8);
 2479              		.loc 1 116 0
 2480 0006 FFF7FEFF 		bl	_ZN5Laser7I2CInitEv
 2481              	.LVL300:
 117:Laser.c       ****     StaticInit();
 2482              		.loc 1 117 0
 2483 000a 2946     		mov	r1, r5
 2484 000c 2046     		mov	r0, r4
 2485 000e FFF7FEFF 		bl	_ZN5Laser8DataInitEb
 2486              	.LVL301:
 118:Laser.c       ****     PerformRefCalibration();
 2487              		.loc 1 118 0
 2488 0012 2046     		mov	r0, r4
 2489 0014 FFF7FEFF 		bl	_ZN5Laser10StaticInitEv
 2490              	.LVL302:
 119:Laser.c       ****     return true;
 2491              		.loc 1 119 0
 2492 0018 2046     		mov	r0, r4
 2493 001a FFF7FEFF 		bl	_ZN5Laser21PerformRefCalibrationEv
 2494              	.LVL303:
 121:Laser.c       **** 
 2495              		.loc 1 121 0
 2496 001e 0120     		movs	r0, #1
ARM GAS  C:\Users\hejmi\AppData\Local\Temp\ccFM6jcL.s 			page 59


 2497 0020 38BD     		pop	{r3, r4, r5, pc}
 2498              		.cfi_endproc
 2499              	.LFE77:
 2500              		.fnend
 2501              		.size	_ZN5Laser4InitEb, .-_ZN5Laser4InitEb
 2502 0022 00BF     		.text
 2503              	.Letext0:
 2504              		.file 2 "c:\\program files (x86)\\cypress\\psoc creator\\4.2\\psoc creator\\import\\gnu\\arm\\5.4.
 2505              		.file 3 "c:\\program files (x86)\\cypress\\psoc creator\\4.2\\psoc creator\\import\\gnu\\arm\\5.4.
 2506              		.file 4 "i2c.h"
 2507              		.file 5 "Laser_def.h"
 2508              		.file 6 "Laser.h"
 2509              		.file 7 "Generated_Source\\PSoC5/core_cm3.h"