ARM GAS  C:\Users\hejmi\AppData\Local\Temp\ccFM6jcL.s 			page 1


   1              		.syntax unified
   2              		.cpu cortex-m3
   3              		.fpu softvfp
   4              		.eabi_attribute 20, 1
   5              		.eabi_attribute 21, 1
   6              		.eabi_attribute 23, 3
   7              		.eabi_attribute 24, 1
   8              		.eabi_attribute 25, 1
   9              		.eabi_attribute 26, 1
  10              		.eabi_attribute 30, 1
  11              		.eabi_attribute 34, 1
  12              		.eabi_attribute 18, 4
  13              		.thumb
  14              		.syntax unified
  15              		.file	"Laser.c"
  16              		.text
  17              	.Ltext0:
  18              		.cfi_sections	.debug_frame
  19              		.section	.text._ZN5Laser15StartContinuousEm,"ax",%progbits
  20              		.align	2
  21              		.global	_ZN5Laser15StartContinuousEm
  22              		.thumb
  23              		.thumb_func
  24              		.type	_ZN5Laser15StartContinuousEm, %function
  25              	_ZN5Laser15StartContinuousEm:
  26              		.fnstart
  27              	.LFB74:
  28              		.file 1 "Laser.c"
   1:Laser.c       **** /* ========================================
   2:Laser.c       ****  *
   3:Laser.c       ****  * Copyright Nicklas Grunert, 2019
   4:Laser.c       ****  * All Rights Reserved
   5:Laser.c       ****  * UNPUBLISHED, LICENSED SOFTWARE.
   6:Laser.c       ****  *
   7:Laser.c       ****  * CONFIDENTIAL AND PROPRIETARY INFORMATION
   8:Laser.c       ****  * WHICH IS THE PROPERTY OF Nicklas Grunert.
   9:Laser.c       ****  *
  10:Laser.c       ****  * ========================================
  11:Laser.c       **** */
  12:Laser.c       **** #include "Laser.h"
  13:Laser.c       **** #include "Laser_def.h"
  14:Laser.c       **** 
  15:Laser.c       **** /******* I/O Functions **********/
  16:Laser.c       **** 
  17:Laser.c       **** // Start continuous ranging measurements. If period_ms (optional) is 0 or not
  18:Laser.c       **** // given, continuous back-to-back mode is used (the sensor takes measurements as
  19:Laser.c       **** // often as possible); otherwise, continuous timed mode is used, with the given
  20:Laser.c       **** // inter-measurement period in milliseconds determining how often the sensor
  21:Laser.c       **** // takes a measurement.
  22:Laser.c       **** // based on VL53L0X_StartMeasurement()
  23:Laser.c       **** void Laser::StartContinuous(uint32_t period_ms)
  24:Laser.c       **** {
  29              		.loc 1 24 0
  30              		.cfi_startproc
  31              		@ args = 0, pretend = 0, frame = 8
  32              		@ frame_needed = 0, uses_anonymous_args = 0
  33              	.LVL0:
ARM GAS  C:\Users\hejmi\AppData\Local\Temp\ccFM6jcL.s 			page 2


  34 0000 30B5     		push	{r4, r5, lr}
  35              		.save {r4, r5, lr}
  36              		.cfi_def_cfa_offset 12
  37              		.cfi_offset 4, -12
  38              		.cfi_offset 5, -8
  39              		.cfi_offset 14, -4
  40              		.pad #20
  41 0002 85B0     		sub	sp, sp, #20
  42              		.cfi_def_cfa_offset 32
  43 0004 0446     		mov	r4, r0
  44 0006 0D46     		mov	r5, r1
  25:Laser.c       ****     I2C.WriteByte(dev_,0x80, 0x01);
  45              		.loc 1 25 0
  46 0008 0123     		movs	r3, #1
  47 000a 8022     		movs	r2, #128
  48 000c 0179     		ldrb	r1, [r0, #4]	@ zero_extendqisi2
  49              	.LVL1:
  50 000e FFF7FEFF 		bl	_ZN3i2c9WriteByteEhhh
  51              	.LVL2:
  26:Laser.c       ****     I2C.WriteByte(dev_,0xFF, 0x01);
  52              		.loc 1 26 0
  53 0012 0123     		movs	r3, #1
  54 0014 FF22     		movs	r2, #255
  55 0016 2179     		ldrb	r1, [r4, #4]	@ zero_extendqisi2
  56 0018 2046     		mov	r0, r4
  57 001a FFF7FEFF 		bl	_ZN3i2c9WriteByteEhhh
  58              	.LVL3:
  27:Laser.c       ****     I2C.WriteByte(dev_,0x00, 0x00);
  59              		.loc 1 27 0
  60 001e 0023     		movs	r3, #0
  61 0020 1A46     		mov	r2, r3
  62 0022 2179     		ldrb	r1, [r4, #4]	@ zero_extendqisi2
  63 0024 2046     		mov	r0, r4
  64 0026 FFF7FEFF 		bl	_ZN3i2c9WriteByteEhhh
  65              	.LVL4:
  28:Laser.c       ****     I2C.WriteByte(dev_,0x91, stop_variable);
  66              		.loc 1 28 0
  67 002a A37B     		ldrb	r3, [r4, #14]	@ zero_extendqisi2
  68 002c 9122     		movs	r2, #145
  69 002e 2179     		ldrb	r1, [r4, #4]	@ zero_extendqisi2
  70 0030 2046     		mov	r0, r4
  71 0032 FFF7FEFF 		bl	_ZN3i2c9WriteByteEhhh
  72              	.LVL5:
  29:Laser.c       ****     I2C.WriteByte(dev_,0x00, 0x01);
  73              		.loc 1 29 0
  74 0036 0123     		movs	r3, #1
  75 0038 0022     		movs	r2, #0
  76 003a 2179     		ldrb	r1, [r4, #4]	@ zero_extendqisi2
  77 003c 2046     		mov	r0, r4
  78 003e FFF7FEFF 		bl	_ZN3i2c9WriteByteEhhh
  79              	.LVL6:
  30:Laser.c       ****     I2C.WriteByte(dev_,0xFF, 0x00);
  80              		.loc 1 30 0
  81 0042 0023     		movs	r3, #0
  82 0044 FF22     		movs	r2, #255
  83 0046 2179     		ldrb	r1, [r4, #4]	@ zero_extendqisi2
  84 0048 2046     		mov	r0, r4
ARM GAS  C:\Users\hejmi\AppData\Local\Temp\ccFM6jcL.s 			page 3


  85 004a FFF7FEFF 		bl	_ZN3i2c9WriteByteEhhh
  86              	.LVL7:
  31:Laser.c       ****     I2C.WriteByte(dev_,0x80, 0x00);
  87              		.loc 1 31 0
  88 004e 0023     		movs	r3, #0
  89 0050 8022     		movs	r2, #128
  90 0052 2179     		ldrb	r1, [r4, #4]	@ zero_extendqisi2
  91 0054 2046     		mov	r0, r4
  92 0056 FFF7FEFF 		bl	_ZN3i2c9WriteByteEhhh
  93              	.LVL8:
  94              	.LBB2:
  32:Laser.c       **** 
  33:Laser.c       ****     if (period_ms != 0)
  95              		.loc 1 33 0
  96 005a 75B3     		cbz	r5, .L2
  97              	.LBB3:
  34:Laser.c       ****     {
  35:Laser.c       ****         // continuous timed mode
  36:Laser.c       ****         uint8_t tmparr[4]={0,0,0,0};
  98              		.loc 1 36 0
  99 005c 04AB     		add	r3, sp, #16
 100 005e 0022     		movs	r2, #0
 101 0060 43F8042D 		str	r2, [r3, #-4]!
  37:Laser.c       ****         
  38:Laser.c       ****         // VL53L0X_SetInterMeasurementPeriodMilliSeconds() begin
  39:Laser.c       ****         I2C.ReadBytes(dev_,OSC_CALIBRATE_VAL,2,tmparr); //readReg16Bit(OSC_CALIBRATE_VAL);
 102              		.loc 1 39 0
 103 0064 2179     		ldrb	r1, [r4, #4]	@ zero_extendqisi2
 104 0066 0093     		str	r3, [sp]
 105 0068 0223     		movs	r3, #2
 106 006a F822     		movs	r2, #248
 107 006c 2046     		mov	r0, r4
 108 006e FFF7FEFF 		bl	_ZN3i2c9ReadBytesEhhhPh
 109              	.LVL9:
  40:Laser.c       ****         uint16_t osc_calibrate_val = (tmparr[0]<<8) + tmparr[1];
 110              		.loc 1 40 0
 111 0072 9DF80C20 		ldrb	r2, [sp, #12]	@ zero_extendqisi2
 112 0076 9DF80D30 		ldrb	r3, [sp, #13]	@ zero_extendqisi2
 113 007a 03EB0223 		add	r3, r3, r2, lsl #8
 114 007e 9BB2     		uxth	r3, r3
 115              	.LVL10:
  41:Laser.c       ****         tmparr[0]=0;tmparr[1]=0;tmparr[2]=0;tmparr[3]=0; // Might be useless
  42:Laser.c       ****         
  43:Laser.c       ****         if (osc_calibrate_val != 0)
 116              		.loc 1 43 0
 117 0080 0BB1     		cbz	r3, .L3
  44:Laser.c       ****         {
  45:Laser.c       ****             period_ms *= osc_calibrate_val;
 118              		.loc 1 45 0
 119 0082 03FB05F5 		mul	r5, r3, r5
 120              	.LVL11:
 121              	.L3:
  46:Laser.c       ****         }
  47:Laser.c       **** 
  48:Laser.c       ****         //writeReg32Bit(SYSTEM_INTERMEASUREMENT_PERIOD, period_ms);
  49:Laser.c       ****         /*Make 32Bit into 4 8Bit*/
  50:Laser.c       ****         /*https://www.edaboard.com/showthread.php?60002-How-to-efficiently-convert-the-32-bit-data-
ARM GAS  C:\Users\hejmi\AppData\Local\Temp\ccFM6jcL.s 			page 4


  51:Laser.c       ****         tmparr[0] = period_ms;      // Lower order
 122              		.loc 1 51 0
 123 0086 8DF80C50 		strb	r5, [sp, #12]
  52:Laser.c       ****         tmparr[1] = period_ms >> 8;
 124              		.loc 1 52 0
 125 008a 2B0A     		lsrs	r3, r5, #8
 126              	.LVL12:
 127 008c 8DF80D30 		strb	r3, [sp, #13]
 128              	.LVL13:
  53:Laser.c       ****         tmparr[2] = period_ms >> 16;
 129              		.loc 1 53 0
 130 0090 2B0C     		lsrs	r3, r5, #16
 131 0092 8DF80E30 		strb	r3, [sp, #14]
  54:Laser.c       ****         tmparr[3] = period_ms >> 24;// Higher order
 132              		.loc 1 54 0
 133 0096 2D0E     		lsrs	r5, r5, #24
 134              	.LVL14:
 135 0098 8DF80F50 		strb	r5, [sp, #15]
  55:Laser.c       ****         
  56:Laser.c       ****         I2C.WriteBytes(dev_,SYSTEM_INTERMEASUREMENT_PERIOD, 4, tmparr);
 136              		.loc 1 56 0
 137 009c 2179     		ldrb	r1, [r4, #4]	@ zero_extendqisi2
 138 009e 03AB     		add	r3, sp, #12
 139 00a0 0093     		str	r3, [sp]
 140 00a2 0423     		movs	r3, #4
 141 00a4 1A46     		mov	r2, r3
 142 00a6 2046     		mov	r0, r4
 143 00a8 FFF7FEFF 		bl	_ZN3i2c10WriteBytesEhhhPh
 144              	.LVL15:
  57:Laser.c       ****         
  58:Laser.c       ****         
  59:Laser.c       ****         // VL53L0X_SetInterMeasurementPeriodMilliSeconds() end
  60:Laser.c       **** 
  61:Laser.c       ****         I2C.WriteByte(dev_,SYSRANGE_START, 0x04); // VL53L0X_REG_SYSRANGE_MODE_TIMED
 145              		.loc 1 61 0
 146 00ac 0423     		movs	r3, #4
 147 00ae 0022     		movs	r2, #0
 148 00b0 2179     		ldrb	r1, [r4, #4]	@ zero_extendqisi2
 149 00b2 2046     		mov	r0, r4
 150 00b4 FFF7FEFF 		bl	_ZN3i2c9WriteByteEhhh
 151              	.LVL16:
 152              	.LBE3:
 153 00b8 05E0     		b	.L1
 154              	.LVL17:
 155              	.L2:
  62:Laser.c       ****     }
  63:Laser.c       ****     else
  64:Laser.c       ****     {
  65:Laser.c       ****         // continuous back-to-back mode
  66:Laser.c       ****         I2C.WriteByte(dev_,SYSRANGE_START, 0x02); // VL53L0X_REG_SYSRANGE_MODE_BACKTOBACK
 156              		.loc 1 66 0
 157 00ba 0223     		movs	r3, #2
 158 00bc 0022     		movs	r2, #0
 159 00be 2179     		ldrb	r1, [r4, #4]	@ zero_extendqisi2
 160 00c0 2046     		mov	r0, r4
 161 00c2 FFF7FEFF 		bl	_ZN3i2c9WriteByteEhhh
 162              	.LVL18:
ARM GAS  C:\Users\hejmi\AppData\Local\Temp\ccFM6jcL.s 			page 5


 163              	.L1:
 164              	.LBE2:
  67:Laser.c       ****     }
  68:Laser.c       **** }
 165              		.loc 1 68 0
 166 00c6 05B0     		add	sp, sp, #20
 167              		.cfi_def_cfa_offset 12
 168              		@ sp needed
 169 00c8 30BD     		pop	{r4, r5, pc}
 170              		.cfi_endproc
 171              	.LFE74:
 172              		.fnend
 173              		.size	_ZN5Laser15StartContinuousEm, .-_ZN5Laser15StartContinuousEm
 174 00ca 00BF     		.section	.text._ZN5Laser14StopContinuousEv,"ax",%progbits
 175              		.align	2
 176              		.global	_ZN5Laser14StopContinuousEv
 177              		.thumb
 178              		.thumb_func
 179              		.type	_ZN5Laser14StopContinuousEv, %function
 180              	_ZN5Laser14StopContinuousEv:
 181              		.fnstart
 182              	.LFB75:
  69:Laser.c       **** 
  70:Laser.c       **** // Stop continuous measurements
  71:Laser.c       **** // based on VL53L0X_StopMeasurement()
  72:Laser.c       **** void Laser::StopContinuous(void)
  73:Laser.c       **** {
 183              		.loc 1 73 0
 184              		.cfi_startproc
 185              		@ args = 0, pretend = 0, frame = 0
 186              		@ frame_needed = 0, uses_anonymous_args = 0
 187              	.LVL19:
 188 0000 10B5     		push	{r4, lr}
 189              		.save {r4, lr}
 190              		.cfi_def_cfa_offset 8
 191              		.cfi_offset 4, -8
 192              		.cfi_offset 14, -4
 193 0002 0446     		mov	r4, r0
  74:Laser.c       ****   I2C.WriteByte(dev_,SYSRANGE_START, 0x01); // VL53L0X_REG_SYSRANGE_MODE_SINGLESHOT
 194              		.loc 1 74 0
 195 0004 0123     		movs	r3, #1
 196 0006 0022     		movs	r2, #0
 197 0008 0179     		ldrb	r1, [r0, #4]	@ zero_extendqisi2
 198 000a FFF7FEFF 		bl	_ZN3i2c9WriteByteEhhh
 199              	.LVL20:
  75:Laser.c       **** 
  76:Laser.c       ****   I2C.WriteByte(dev_,0xFF, 0x01);
 200              		.loc 1 76 0
 201 000e 0123     		movs	r3, #1
 202 0010 FF22     		movs	r2, #255
 203 0012 2179     		ldrb	r1, [r4, #4]	@ zero_extendqisi2
 204 0014 2046     		mov	r0, r4
 205 0016 FFF7FEFF 		bl	_ZN3i2c9WriteByteEhhh
 206              	.LVL21:
  77:Laser.c       ****   I2C.WriteByte(dev_,0x00, 0x00);
 207              		.loc 1 77 0
 208 001a 0023     		movs	r3, #0
ARM GAS  C:\Users\hejmi\AppData\Local\Temp\ccFM6jcL.s 			page 6


 209 001c 1A46     		mov	r2, r3
 210 001e 2179     		ldrb	r1, [r4, #4]	@ zero_extendqisi2
 211 0020 2046     		mov	r0, r4
 212 0022 FFF7FEFF 		bl	_ZN3i2c9WriteByteEhhh
 213              	.LVL22:
  78:Laser.c       ****   I2C.WriteByte(dev_,0x91, 0x00);
 214              		.loc 1 78 0
 215 0026 0023     		movs	r3, #0
 216 0028 9122     		movs	r2, #145
 217 002a 2179     		ldrb	r1, [r4, #4]	@ zero_extendqisi2
 218 002c 2046     		mov	r0, r4
 219 002e FFF7FEFF 		bl	_ZN3i2c9WriteByteEhhh
 220              	.LVL23:
  79:Laser.c       ****   I2C.WriteByte(dev_,0x00, 0x01);
 221              		.loc 1 79 0
 222 0032 0123     		movs	r3, #1
 223 0034 0022     		movs	r2, #0
 224 0036 2179     		ldrb	r1, [r4, #4]	@ zero_extendqisi2
 225 0038 2046     		mov	r0, r4
 226 003a FFF7FEFF 		bl	_ZN3i2c9WriteByteEhhh
 227              	.LVL24:
  80:Laser.c       ****   I2C.WriteByte(dev_,0xFF, 0x00);
 228              		.loc 1 80 0
 229 003e 0023     		movs	r3, #0
 230 0040 FF22     		movs	r2, #255
 231 0042 2179     		ldrb	r1, [r4, #4]	@ zero_extendqisi2
 232 0044 2046     		mov	r0, r4
 233 0046 FFF7FEFF 		bl	_ZN3i2c9WriteByteEhhh
 234              	.LVL25:
 235 004a 10BD     		pop	{r4, pc}
 236              		.cfi_endproc
 237              	.LFE75:
 238              		.fnend
 239              		.size	_ZN5Laser14StopContinuousEv, .-_ZN5Laser14StopContinuousEv
 240              		.section	.text._ZN5Laser30ReadRangeContinuousMillimetersEv,"ax",%progbits
 241              		.align	2
 242              		.global	_ZN5Laser30ReadRangeContinuousMillimetersEv
 243              		.thumb
 244              		.thumb_func
 245              		.type	_ZN5Laser30ReadRangeContinuousMillimetersEv, %function
 246              	_ZN5Laser30ReadRangeContinuousMillimetersEv:
 247              		.fnstart
 248              	.LFB76:
  81:Laser.c       **** }
  82:Laser.c       **** 
  83:Laser.c       **** // Returns a range reading in millimeters when continuous mode is active
  84:Laser.c       **** // (readRangeSingleMillimeters() also calls this function after starting a
  85:Laser.c       **** // single-shot range measurement)
  86:Laser.c       **** uint16_t Laser::ReadRangeContinuousMillimeters(void)
  87:Laser.c       **** {
 249              		.loc 1 87 0
 250              		.cfi_startproc
 251              		@ args = 0, pretend = 0, frame = 8
 252              		@ frame_needed = 0, uses_anonymous_args = 0
 253              	.LVL26:
 254 0000 30B5     		push	{r4, r5, lr}
 255              		.save {r4, r5, lr}
ARM GAS  C:\Users\hejmi\AppData\Local\Temp\ccFM6jcL.s 			page 7


 256              		.cfi_def_cfa_offset 12
 257              		.cfi_offset 4, -12
 258              		.cfi_offset 5, -8
 259              		.cfi_offset 14, -4
 260              		.pad #20
 261 0002 85B0     		sub	sp, sp, #20
 262              		.cfi_def_cfa_offset 32
 263 0004 0446     		mov	r4, r0
  88:Laser.c       ****     //TODO: Fix timeouts to avoid deadlocking etc.
  89:Laser.c       ****     //startTimeout();
  90:Laser.c       ****     uint8_t tmp = 0;
 264              		.loc 1 90 0
 265 0006 0023     		movs	r3, #0
 266 0008 8DF80F30 		strb	r3, [sp, #15]
 267              	.LVL27:
 268              	.L10:
  91:Laser.c       ****     while ((tmp & 0x07) == 0)
 269              		.loc 1 91 0
 270 000c 9DF80F30 		ldrb	r3, [sp, #15]	@ zero_extendqisi2
 271 0010 13F0070F 		tst	r3, #7
 272 0014 07D1     		bne	.L9
  92:Laser.c       ****     {
  93:Laser.c       ****         if (/*checkTimeoutExpired()*/0)
  94:Laser.c       ****         {
  95:Laser.c       ****         //did_timeout = true;
  96:Laser.c       ****         return 65535;   // Probably returns max-range if there was an error
  97:Laser.c       ****         }
  98:Laser.c       ****         I2C.ReadByte(dev_,RESULT_INTERRUPT_STATUS,&tmp); //readReg(RESULT_INTERRUPT_STATUS)
 273              		.loc 1 98 0
 274 0016 0DF10F03 		add	r3, sp, #15
 275 001a 1322     		movs	r2, #19
 276 001c 2179     		ldrb	r1, [r4, #4]	@ zero_extendqisi2
 277 001e 2046     		mov	r0, r4
 278 0020 FFF7FEFF 		bl	_ZN3i2c8ReadByteEhhPh
 279              	.LVL28:
 280 0024 F2E7     		b	.L10
 281              	.L9:
  99:Laser.c       ****     }
 100:Laser.c       **** 
 101:Laser.c       ****     // assumptions: Linearity Corrective Gain is 1000 (default);
 102:Laser.c       ****     // fractional ranging is not enabled
 103:Laser.c       ****     // readReg16Bit with PSoC
 104:Laser.c       ****     uint8_t range8bit[2];
 105:Laser.c       ****     I2C.ReadBytes(dev_,RESULT_RANGE_STATUS+10,2,range8bit);
 282              		.loc 1 105 0
 283 0026 2179     		ldrb	r1, [r4, #4]	@ zero_extendqisi2
 284 0028 03AB     		add	r3, sp, #12
 285 002a 0093     		str	r3, [sp]
 286 002c 0223     		movs	r3, #2
 287 002e 1E22     		movs	r2, #30
 288 0030 2046     		mov	r0, r4
 289 0032 FFF7FEFF 		bl	_ZN3i2c9ReadBytesEhhhPh
 290              	.LVL29:
 106:Laser.c       ****     uint16_t range = (range8bit[0]<<8) + range8bit[1];
 291              		.loc 1 106 0
 292 0036 9DF80C50 		ldrb	r5, [sp, #12]	@ zero_extendqisi2
 293 003a 9DF80D30 		ldrb	r3, [sp, #13]	@ zero_extendqisi2
ARM GAS  C:\Users\hejmi\AppData\Local\Temp\ccFM6jcL.s 			page 8


 294 003e 03EB0525 		add	r5, r3, r5, lsl #8
 295 0042 ADB2     		uxth	r5, r5
 296              	.LVL30:
 107:Laser.c       ****     
 108:Laser.c       ****     //writeReg(SYSTEM_INTERRUPT_CLEAR, 0x01);
 109:Laser.c       ****     I2C.WriteByte(dev_,SYSTEM_INTERRUPT_CLEAR,0x01);
 297              		.loc 1 109 0
 298 0044 0123     		movs	r3, #1
 299 0046 0B22     		movs	r2, #11
 300 0048 2179     		ldrb	r1, [r4, #4]	@ zero_extendqisi2
 301 004a 2046     		mov	r0, r4
 302 004c FFF7FEFF 		bl	_ZN3i2c9WriteByteEhhh
 303              	.LVL31:
 110:Laser.c       ****     return range;
 111:Laser.c       **** }
 304              		.loc 1 111 0
 305 0050 2846     		mov	r0, r5
 306 0052 05B0     		add	sp, sp, #20
 307              		.cfi_def_cfa_offset 12
 308              		@ sp needed
 309 0054 30BD     		pop	{r4, r5, pc}
 310              		.cfi_endproc
 311              	.LFE76:
 312              		.fnend
 313              		.size	_ZN5Laser30ReadRangeContinuousMillimetersEv, .-_ZN5Laser30ReadRangeContinuousMillimetersEv
 314 0056 00BF     		.section	.text._ZN5Laser22getSequenceStepEnablesEP19SequenceStepEnables,"ax",%progbits
 315              		.align	2
 316              		.global	_ZN5Laser22getSequenceStepEnablesEP19SequenceStepEnables
 317              		.thumb
 318              		.thumb_func
 319              		.type	_ZN5Laser22getSequenceStepEnablesEP19SequenceStepEnables, %function
 320              	_ZN5Laser22getSequenceStepEnablesEP19SequenceStepEnables:
 321              		.fnstart
 322              	.LFB82:
 112:Laser.c       **** 
 113:Laser.c       **** /******* Init functions *********/
 114:Laser.c       **** bool Laser::Init(bool io_2v8)
 115:Laser.c       **** { 
 116:Laser.c       ****     I2CInit();
 117:Laser.c       ****     DataInit(io_2v8);
 118:Laser.c       ****     StaticInit();
 119:Laser.c       ****     PerformRefCalibration();
 120:Laser.c       ****     return true;
 121:Laser.c       **** }
 122:Laser.c       **** 
 123:Laser.c       **** bool Laser::PerformRefCalibration()
 124:Laser.c       **** {
 125:Laser.c       ****     // -- VL53L0X_perform_vhv_calibration() begin
 126:Laser.c       ****     I2C.WriteByte(dev_,SYSTEM_SEQUENCE_CONFIG, 0x01);
 127:Laser.c       ****     if (!performSingleRefCalibration(0x40)) { return false; }
 128:Laser.c       ****     // -- VL53L0X_perform_vhv_calibration() end
 129:Laser.c       **** 
 130:Laser.c       ****     // -- VL53L0X_perform_phase_calibration() begin
 131:Laser.c       ****     I2C.WriteByte(dev_,SYSTEM_SEQUENCE_CONFIG, 0x02);
 132:Laser.c       ****     if (!performSingleRefCalibration(0x00)) { return false; }
 133:Laser.c       ****     // -- VL53L0X_perform_phase_calibration() end
 134:Laser.c       **** 
ARM GAS  C:\Users\hejmi\AppData\Local\Temp\ccFM6jcL.s 			page 9


 135:Laser.c       ****     // "restore the previous Sequence Config"
 136:Laser.c       ****     I2C.WriteByte(dev_,SYSTEM_SEQUENCE_CONFIG, 0xE8);
 137:Laser.c       ****     return true;
 138:Laser.c       **** }
 139:Laser.c       **** 
 140:Laser.c       **** void Laser::StaticInit()
 141:Laser.c       **** {
 142:Laser.c       ****     uint8_t spad_count;
 143:Laser.c       ****     bool spad_type_is_aperture;
 144:Laser.c       ****     if (!getSpadInfo(&spad_count, &spad_type_is_aperture)) { return; }
 145:Laser.c       ****     
 146:Laser.c       ****     // The SPAD map (RefGoodSpadMap) is read by VL53L0X_get_info_from_device() in
 147:Laser.c       ****     // the API, but the same data seems to be more easily readable from
 148:Laser.c       ****     // GLOBAL_CONFIG_SPAD_ENABLES_REF_0 through _6, so read it from there
 149:Laser.c       ****     uint8_t ref_spad_map[6];
 150:Laser.c       ****     I2C.ReadBytes(dev_,GLOBAL_CONFIG_SPAD_ENABLES_REF_0, 6,ref_spad_map);
 151:Laser.c       **** 
 152:Laser.c       ****     // -- VL53L0X_set_reference_spads() begin (assume NVM values are valid)
 153:Laser.c       ****     I2C.WriteByte(dev_,0xFF, 0x01);
 154:Laser.c       ****     I2C.WriteByte(dev_,DYNAMIC_SPAD_REF_EN_START_OFFSET, 0x00);
 155:Laser.c       ****     I2C.WriteByte(dev_,DYNAMIC_SPAD_NUM_REQUESTED_REF_SPAD, 0x2C);
 156:Laser.c       ****     I2C.WriteByte(dev_,0xFF, 0x00);
 157:Laser.c       ****     I2C.WriteByte(dev_,GLOBAL_CONFIG_REF_EN_START_SELECT, 0xB4);
 158:Laser.c       **** 
 159:Laser.c       ****     uint8_t first_spad_to_enable = spad_type_is_aperture ? 12 : 0; // 12 is the first aperture spad
 160:Laser.c       ****     uint8_t spads_enabled = 0;
 161:Laser.c       ****     
 162:Laser.c       ****     /*this is fucking magic thanks pololu*/
 163:Laser.c       ****     for (uint8_t i = 0; i < 48; i++)
 164:Laser.c       ****     {
 165:Laser.c       ****         if (i < first_spad_to_enable || spads_enabled == spad_count)
 166:Laser.c       ****         {
 167:Laser.c       ****           // This bit is lower than the first one that should be enabled, or
 168:Laser.c       ****           // (reference_spad_count) bits have already been enabled, so zero this bit
 169:Laser.c       ****           ref_spad_map[i / 8] &= ~(1 << (i % 8));
 170:Laser.c       ****         }
 171:Laser.c       ****         else if ((ref_spad_map[i / 8] >> (i % 8)) & 0x1)
 172:Laser.c       ****         {
 173:Laser.c       ****           spads_enabled++;
 174:Laser.c       ****         }
 175:Laser.c       ****     }
 176:Laser.c       ****     
 177:Laser.c       ****     I2C.WriteBytes(dev_,GLOBAL_CONFIG_SPAD_ENABLES_REF_0,6,ref_spad_map);
 178:Laser.c       ****     LoadTuningSettings();
 179:Laser.c       ****     SetGpioConfig();
 180:Laser.c       ****     
 181:Laser.c       ****     uint32_t measurement_timing_budget_us = getMeasurementTimingBudget();
 182:Laser.c       ****     
 183:Laser.c       ****     // "Disable MSRC and TCC by default"
 184:Laser.c       ****     // MSRC = Minimum Signal Rate Check
 185:Laser.c       ****     // TCC = Target CentreCheck
 186:Laser.c       ****     // -- VL53L0X_SetSequenceStepEnable() begin
 187:Laser.c       ****     I2C.WriteByte(dev_,SYSTEM_SEQUENCE_CONFIG, 0xE8);
 188:Laser.c       ****     // -- VL53L0X_SetSequenceStepEnable() end
 189:Laser.c       ****     
 190:Laser.c       ****     // "Recalculate timing budget"
 191:Laser.c       ****     setMeasurementTimingBudget(measurement_timing_budget_us);
ARM GAS  C:\Users\hejmi\AppData\Local\Temp\ccFM6jcL.s 			page 10


 192:Laser.c       ****     
 193:Laser.c       ****     //END
 194:Laser.c       **** }
 195:Laser.c       **** 
 196:Laser.c       **** // Set the measurement timing budget in microseconds, which is the time allowed
 197:Laser.c       **** // for one measurement; the ST API and this library take care of splitting the
 198:Laser.c       **** // timing budget among the sub-steps in the ranging sequence. A longer timing
 199:Laser.c       **** // budget allows for more accurate measurements. Increasing the budget by a
 200:Laser.c       **** // factor of N decreases the range measurement standard deviation by a factor of
 201:Laser.c       **** // sqrt(N). Defaults to about 33 milliseconds; the minimum is 20 ms.
 202:Laser.c       **** // based on VL53L0X_set_measurement_timing_budget_micro_seconds()
 203:Laser.c       **** bool Laser::setMeasurementTimingBudget(uint32_t budget_us)
 204:Laser.c       **** {
 205:Laser.c       ****   SequenceStepEnables enables;
 206:Laser.c       ****   SequenceStepTimeouts timeouts;
 207:Laser.c       **** 
 208:Laser.c       ****   uint16_t const StartOverhead      = 1320; // note that this is different than the value in get_
 209:Laser.c       ****   uint16_t const EndOverhead        = 960;
 210:Laser.c       ****   uint16_t const MsrcOverhead       = 660;
 211:Laser.c       ****   uint16_t const TccOverhead        = 590;
 212:Laser.c       ****   uint16_t const DssOverhead        = 690;
 213:Laser.c       ****   uint16_t const PreRangeOverhead   = 660;
 214:Laser.c       ****   uint16_t const FinalRangeOverhead = 550;
 215:Laser.c       **** 
 216:Laser.c       ****   uint32_t const MinTimingBudget = 20000;
 217:Laser.c       **** 
 218:Laser.c       ****   if (budget_us < MinTimingBudget) { return false; }
 219:Laser.c       **** 
 220:Laser.c       ****   uint32_t used_budget_us = StartOverhead + EndOverhead;
 221:Laser.c       **** 
 222:Laser.c       ****   getSequenceStepEnables(&enables);
 223:Laser.c       ****   getSequenceStepTimeouts(&enables, &timeouts);
 224:Laser.c       **** 
 225:Laser.c       ****   if (enables.tcc)
 226:Laser.c       ****   {
 227:Laser.c       ****     used_budget_us += (timeouts.msrc_dss_tcc_us + TccOverhead);
 228:Laser.c       ****   }
 229:Laser.c       **** 
 230:Laser.c       ****   if (enables.dss)
 231:Laser.c       ****   {
 232:Laser.c       ****     used_budget_us += 2 * (timeouts.msrc_dss_tcc_us + DssOverhead);
 233:Laser.c       ****   }
 234:Laser.c       ****   else if (enables.msrc)
 235:Laser.c       ****   {
 236:Laser.c       ****     used_budget_us += (timeouts.msrc_dss_tcc_us + MsrcOverhead);
 237:Laser.c       ****   }
 238:Laser.c       **** 
 239:Laser.c       ****   if (enables.pre_range)
 240:Laser.c       ****   {
 241:Laser.c       ****     used_budget_us += (timeouts.pre_range_us + PreRangeOverhead);
 242:Laser.c       ****   }
 243:Laser.c       **** 
 244:Laser.c       ****   if (enables.final_range)
 245:Laser.c       ****   {
 246:Laser.c       ****     used_budget_us += FinalRangeOverhead;
 247:Laser.c       **** 
 248:Laser.c       ****     // "Note that the final range timeout is determined by the timing
ARM GAS  C:\Users\hejmi\AppData\Local\Temp\ccFM6jcL.s 			page 11


 249:Laser.c       ****     // budget and the sum of all other timeouts within the sequence.
 250:Laser.c       ****     // If there is no room for the final range timeout, then an error
 251:Laser.c       ****     // will be set. Otherwise the remaining time will be applied to
 252:Laser.c       ****     // the final range."
 253:Laser.c       **** 
 254:Laser.c       ****     if (used_budget_us > budget_us)
 255:Laser.c       ****     {
 256:Laser.c       ****       // "Requested timeout too big."
 257:Laser.c       ****       return false;
 258:Laser.c       ****     }
 259:Laser.c       **** 
 260:Laser.c       ****     uint32_t final_range_timeout_us = budget_us - used_budget_us;
 261:Laser.c       **** 
 262:Laser.c       ****     // set_sequence_step_timeout() begin
 263:Laser.c       ****     // (SequenceStepId == VL53L0X_SEQUENCESTEP_FINAL_RANGE)
 264:Laser.c       **** 
 265:Laser.c       ****     // "For the final range timeout, the pre-range timeout
 266:Laser.c       ****     //  must be added. To do this both final and pre-range
 267:Laser.c       ****     //  timeouts must be expressed in macro periods MClks
 268:Laser.c       ****     //  because they have different vcsel periods."
 269:Laser.c       **** 
 270:Laser.c       ****     uint16_t final_range_timeout_mclks =
 271:Laser.c       ****       timeoutMicrosecondsToMclks(final_range_timeout_us,
 272:Laser.c       ****                                  timeouts.final_range_vcsel_period_pclks);
 273:Laser.c       **** 
 274:Laser.c       ****     if (enables.pre_range)
 275:Laser.c       ****     {
 276:Laser.c       ****       final_range_timeout_mclks += timeouts.pre_range_mclks;
 277:Laser.c       ****     }
 278:Laser.c       **** 
 279:Laser.c       ****     uint8_t tmparray[2]={0,0};
 280:Laser.c       ****     uint16_t tmp = encodeTimeout(final_range_timeout_mclks);
 281:Laser.c       ****     tmparray[0] = tmp & 0xff;   // Low
 282:Laser.c       ****     tmparray[1] = (tmp >> 8);   // High
 283:Laser.c       ****     I2C.WriteBytes(dev_,FINAL_RANGE_CONFIG_TIMEOUT_MACROP_HI,2,tmparray);
 284:Laser.c       ****     
 285:Laser.c       ****     // set_sequence_step_timeout() end
 286:Laser.c       **** 
 287:Laser.c       ****     measurement_timing_budget_us = budget_us; // store for internal reuse
 288:Laser.c       ****   }
 289:Laser.c       ****   return true;
 290:Laser.c       **** }
 291:Laser.c       **** 
 292:Laser.c       **** // Get the measurement timing budget in microseconds
 293:Laser.c       **** // based on VL53L0X_get_measurement_timing_budget_micro_seconds()
 294:Laser.c       **** // in us
 295:Laser.c       **** uint32_t Laser::getMeasurementTimingBudget(void)
 296:Laser.c       **** {
 297:Laser.c       ****   SequenceStepEnables enables;
 298:Laser.c       ****   SequenceStepTimeouts timeouts;
 299:Laser.c       **** 
 300:Laser.c       ****   uint16_t const StartOverhead     = 1910; // note that this is different than the value in set_
 301:Laser.c       ****   uint16_t const EndOverhead        = 960;
 302:Laser.c       ****   uint16_t const MsrcOverhead       = 660;
 303:Laser.c       ****   uint16_t const TccOverhead        = 590;
 304:Laser.c       ****   uint16_t const DssOverhead        = 690;
 305:Laser.c       ****   uint16_t const PreRangeOverhead   = 660;
ARM GAS  C:\Users\hejmi\AppData\Local\Temp\ccFM6jcL.s 			page 12


 306:Laser.c       ****   uint16_t const FinalRangeOverhead = 550;
 307:Laser.c       **** 
 308:Laser.c       ****   // "Start and end overhead times always present"
 309:Laser.c       ****   uint32_t budget_us = StartOverhead + EndOverhead;
 310:Laser.c       **** 
 311:Laser.c       ****   getSequenceStepEnables(&enables);
 312:Laser.c       ****   getSequenceStepTimeouts(&enables, &timeouts);
 313:Laser.c       **** 
 314:Laser.c       ****   if (enables.tcc)
 315:Laser.c       ****   {
 316:Laser.c       ****     budget_us += (timeouts.msrc_dss_tcc_us + TccOverhead);
 317:Laser.c       ****   }
 318:Laser.c       **** 
 319:Laser.c       ****   if (enables.dss)
 320:Laser.c       ****   {
 321:Laser.c       ****     budget_us += 2 * (timeouts.msrc_dss_tcc_us + DssOverhead);
 322:Laser.c       ****   }
 323:Laser.c       ****   else if (enables.msrc)
 324:Laser.c       ****   {
 325:Laser.c       ****     budget_us += (timeouts.msrc_dss_tcc_us + MsrcOverhead);
 326:Laser.c       ****   }
 327:Laser.c       **** 
 328:Laser.c       ****   if (enables.pre_range)
 329:Laser.c       ****   {
 330:Laser.c       ****     budget_us += (timeouts.pre_range_us + PreRangeOverhead);
 331:Laser.c       ****   }
 332:Laser.c       **** 
 333:Laser.c       ****   if (enables.final_range)
 334:Laser.c       ****   {
 335:Laser.c       ****     budget_us += (timeouts.final_range_us + FinalRangeOverhead);
 336:Laser.c       ****   }
 337:Laser.c       **** 
 338:Laser.c       ****   measurement_timing_budget_us = budget_us; // store for internal reuse
 339:Laser.c       ****   return budget_us;
 340:Laser.c       **** }
 341:Laser.c       **** 
 342:Laser.c       **** // Get sequence step enables
 343:Laser.c       **** // based on VL53L0X_GetSequenceStepEnables()
 344:Laser.c       **** void Laser::getSequenceStepEnables(SequenceStepEnables * enables)
 345:Laser.c       **** {
 323              		.loc 1 345 0
 324              		.cfi_startproc
 325              		@ args = 0, pretend = 0, frame = 8
 326              		@ frame_needed = 0, uses_anonymous_args = 0
 327              	.LVL32:
 328 0000 10B5     		push	{r4, lr}
 329              		.save {r4, lr}
 330              		.cfi_def_cfa_offset 8
 331              		.cfi_offset 4, -8
 332              		.cfi_offset 14, -4
 333              		.pad #8
 334 0002 82B0     		sub	sp, sp, #8
 335              		.cfi_def_cfa_offset 16
 336 0004 0C46     		mov	r4, r1
 346:Laser.c       ****     uint8_t sequence_config;
 347:Laser.c       ****     I2C.ReadByte(dev_,SYSTEM_SEQUENCE_CONFIG,&sequence_config);
 337              		.loc 1 347 0
ARM GAS  C:\Users\hejmi\AppData\Local\Temp\ccFM6jcL.s 			page 13


 338 0006 0DF10703 		add	r3, sp, #7
 339 000a 0122     		movs	r2, #1
 340 000c 0179     		ldrb	r1, [r0, #4]	@ zero_extendqisi2
 341              	.LVL33:
 342 000e FFF7FEFF 		bl	_ZN3i2c8ReadByteEhhPh
 343              	.LVL34:
 348:Laser.c       **** 
 349:Laser.c       ****     enables->tcc          = (sequence_config >> 4) & 0x1;
 344              		.loc 1 349 0
 345 0012 9DF80730 		ldrb	r3, [sp, #7]	@ zero_extendqisi2
 346 0016 C3F30012 		ubfx	r2, r3, #4, #1
 347 001a 2270     		strb	r2, [r4]
 350:Laser.c       ****     enables->dss          = (sequence_config >> 3) & 0x1;
 348              		.loc 1 350 0
 349 001c C3F3C002 		ubfx	r2, r3, #3, #1
 350 0020 A270     		strb	r2, [r4, #2]
 351:Laser.c       ****     enables->msrc         = (sequence_config >> 2) & 0x1;
 351              		.loc 1 351 0
 352 0022 C3F38002 		ubfx	r2, r3, #2, #1
 353 0026 6270     		strb	r2, [r4, #1]
 352:Laser.c       ****     enables->pre_range    = (sequence_config >> 6) & 0x1;
 354              		.loc 1 352 0
 355 0028 C3F38012 		ubfx	r2, r3, #6, #1
 356 002c E270     		strb	r2, [r4, #3]
 353:Laser.c       ****     enables->final_range  = (sequence_config >> 7) & 0x1;
 357              		.loc 1 353 0
 358 002e DB09     		lsrs	r3, r3, #7
 359 0030 2371     		strb	r3, [r4, #4]
 354:Laser.c       **** }
 360              		.loc 1 354 0
 361 0032 02B0     		add	sp, sp, #8
 362              		.cfi_def_cfa_offset 8
 363              		@ sp needed
 364 0034 10BD     		pop	{r4, pc}
 365              		.cfi_endproc
 366              	.LFE82:
 367              		.fnend
 368              		.size	_ZN5Laser22getSequenceStepEnablesEP19SequenceStepEnables, .-_ZN5Laser22getSequenceStepEnable
 369 0036 00BF     		.section	.text._ZN5Laser13decodeTimeoutEt,"ax",%progbits
 370              		.align	2
 371              		.global	_ZN5Laser13decodeTimeoutEt
 372              		.thumb
 373              		.thumb_func
 374              		.type	_ZN5Laser13decodeTimeoutEt, %function
 375              	_ZN5Laser13decodeTimeoutEt:
 376              		.fnstart
 377              	.LFB84:
 355:Laser.c       **** 
 356:Laser.c       **** // Get sequence step timeouts
 357:Laser.c       **** // based on get_sequence_step_timeout(),
 358:Laser.c       **** // but gets all timeouts instead of just the requested one, and also stores
 359:Laser.c       **** // intermediate values
 360:Laser.c       **** void Laser::getSequenceStepTimeouts(SequenceStepEnables const * enables, SequenceStepTimeouts * tim
 361:Laser.c       **** {
 362:Laser.c       ****   uint8_t tmpdata;
 363:Laser.c       ****   timeouts->pre_range_vcsel_period_pclks = getVcselPulsePeriod(VcselPeriodPreRange);
 364:Laser.c       **** 
ARM GAS  C:\Users\hejmi\AppData\Local\Temp\ccFM6jcL.s 			page 14


 365:Laser.c       ****   I2C.ReadBytes(dev_,MSRC_CONFIG_TIMEOUT_MACROP,1,&tmpdata);
 366:Laser.c       ****   timeouts->msrc_dss_tcc_mclks = tmpdata + 1;
 367:Laser.c       ****   timeouts->msrc_dss_tcc_us =
 368:Laser.c       ****     timeoutMclksToMicroseconds(timeouts->msrc_dss_tcc_mclks,
 369:Laser.c       ****                                timeouts->pre_range_vcsel_period_pclks);
 370:Laser.c       **** 
 371:Laser.c       ****   uint16_t  tmp16bit = 0;
 372:Laser.c       ****   uint8_t   tmp8bit[2];
 373:Laser.c       ****   I2C.ReadBytes(dev_,PRE_RANGE_CONFIG_TIMEOUT_MACROP_HI,2,tmp8bit);
 374:Laser.c       ****   tmp16bit = (tmp8bit[0] << 8) + tmp8bit[1];
 375:Laser.c       **** 
 376:Laser.c       ****   timeouts->pre_range_mclks =
 377:Laser.c       ****     decodeTimeout(tmp16bit);
 378:Laser.c       ****   timeouts->pre_range_us =
 379:Laser.c       ****     timeoutMclksToMicroseconds(timeouts->pre_range_mclks,
 380:Laser.c       ****                                timeouts->pre_range_vcsel_period_pclks);
 381:Laser.c       **** 
 382:Laser.c       ****   timeouts->final_range_vcsel_period_pclks = getVcselPulsePeriod((vcselPeriodType)VcselPeriodFinalR
 383:Laser.c       **** 
 384:Laser.c       ****   I2C.ReadBytes(dev_,FINAL_RANGE_CONFIG_TIMEOUT_MACROP_HI,2,tmp8bit);
 385:Laser.c       ****   tmp16bit = (tmp8bit[0] << 8) + tmp8bit[1];
 386:Laser.c       ****   timeouts->final_range_mclks =
 387:Laser.c       ****     decodeTimeout(tmp16bit);
 388:Laser.c       **** 
 389:Laser.c       ****   if (enables->pre_range)
 390:Laser.c       ****   {
 391:Laser.c       ****     timeouts->final_range_mclks -= timeouts->pre_range_mclks;
 392:Laser.c       ****   }
 393:Laser.c       **** 
 394:Laser.c       ****   timeouts->final_range_us =
 395:Laser.c       ****     timeoutMclksToMicroseconds(timeouts->final_range_mclks,
 396:Laser.c       ****                                timeouts->final_range_vcsel_period_pclks);
 397:Laser.c       **** }
 398:Laser.c       **** 
 399:Laser.c       **** // Decode sequence step timeout in MCLKs from register value
 400:Laser.c       **** // based on VL53L0X_decode_timeout()
 401:Laser.c       **** // Note: the original function returned a uint32_t, but the return value is
 402:Laser.c       **** // always stored in a uint16_t.
 403:Laser.c       **** uint16_t Laser::decodeTimeout(uint16_t reg_val)
 404:Laser.c       **** {
 378              		.loc 1 404 0
 379              		.cfi_startproc
 380              		@ args = 0, pretend = 0, frame = 0
 381              		@ frame_needed = 0, uses_anonymous_args = 0
 382              		@ link register save eliminated.
 383              	.LVL35:
 405:Laser.c       ****   // format: "(LSByte * 2^MSByte) + 1"
 406:Laser.c       ****   return (uint16_t)((reg_val & 0x00FF) <<
 384              		.loc 1 406 0
 385 0000 CBB2     		uxtb	r3, r1
 386 0002 080A     		lsrs	r0, r1, #8
 387              	.LVL36:
 388 0004 03FA00F0 		lsl	r0, r3, r0
 407:Laser.c       ****          (uint16_t)((reg_val & 0xFF00) >> 8)) + 1;
 389              		.loc 1 407 0
 390 0008 0130     		adds	r0, r0, #1
 408:Laser.c       **** }
ARM GAS  C:\Users\hejmi\AppData\Local\Temp\ccFM6jcL.s 			page 15


 391              		.loc 1 408 0
 392 000a 80B2     		uxth	r0, r0
 393 000c 7047     		bx	lr
 394              		.cfi_endproc
 395              	.LFE84:
 396              		.cantunwind
 397              		.fnend
 398              		.size	_ZN5Laser13decodeTimeoutEt, .-_ZN5Laser13decodeTimeoutEt
 399 000e 00BF     		.section	.text._ZN5Laser19getVcselPulsePeriodE15vcselPeriodType,"ax",%progbits
 400              		.align	2
 401              		.global	_ZN5Laser19getVcselPulsePeriodE15vcselPeriodType
 402              		.thumb
 403              		.thumb_func
 404              		.type	_ZN5Laser19getVcselPulsePeriodE15vcselPeriodType, %function
 405              	_ZN5Laser19getVcselPulsePeriodE15vcselPeriodType:
 406              		.fnstart
 407              	.LFB85:
 409:Laser.c       **** 
 410:Laser.c       **** // Get the VCSEL pulse period in PCLKs for the given period type.
 411:Laser.c       **** // based on VL53L0X_get_vcsel_pulse_period()
 412:Laser.c       **** uint8_t Laser::getVcselPulsePeriod(vcselPeriodType type)
 413:Laser.c       **** {
 408              		.loc 1 413 0
 409              		.cfi_startproc
 410              		@ args = 0, pretend = 0, frame = 8
 411              		@ frame_needed = 0, uses_anonymous_args = 0
 412              	.LVL37:
 413 0000 00B5     		push	{lr}
 414              		.save {lr}
 415              		.cfi_def_cfa_offset 4
 416              		.cfi_offset 14, -4
 417              		.pad #12
 418 0002 83B0     		sub	sp, sp, #12
 419              		.cfi_def_cfa_offset 16
 414:Laser.c       ****     uint8_t tmp = 0;
 420              		.loc 1 414 0
 421 0004 0023     		movs	r3, #0
 422 0006 8DF80730 		strb	r3, [sp, #7]
 415:Laser.c       ****     if (type == VcselPeriodPreRange)
 423              		.loc 1 415 0
 424 000a 59B9     		cbnz	r1, .L16
 416:Laser.c       ****     {
 417:Laser.c       ****         I2C.ReadByte(dev_,PRE_RANGE_CONFIG_VCSEL_PERIOD,&tmp);
 425              		.loc 1 417 0
 426 000c 0DF10703 		add	r3, sp, #7
 427 0010 5022     		movs	r2, #80
 428 0012 0179     		ldrb	r1, [r0, #4]	@ zero_extendqisi2
 429              	.LVL38:
 430 0014 FFF7FEFF 		bl	_ZN3i2c8ReadByteEhhPh
 431              	.LVL39:
 418:Laser.c       ****         return decodeVcselPeriod(tmp);
 432              		.loc 1 418 0
 433 0018 9DF80700 		ldrb	r0, [sp, #7]	@ zero_extendqisi2
 434 001c 0130     		adds	r0, r0, #1
 435 001e 4000     		lsls	r0, r0, #1
 436 0020 C0B2     		uxtb	r0, r0
 437 0022 0EE0     		b	.L17
ARM GAS  C:\Users\hejmi\AppData\Local\Temp\ccFM6jcL.s 			page 16


 438              	.LVL40:
 439              	.L16:
 419:Laser.c       ****     }
 420:Laser.c       ****     else if (type == VcselPeriodFinalRange)
 440              		.loc 1 420 0
 441 0024 0129     		cmp	r1, #1
 442 0026 0BD1     		bne	.L18
 421:Laser.c       ****     {
 422:Laser.c       ****         I2C.ReadByte(dev_,FINAL_RANGE_CONFIG_VCSEL_PERIOD,&tmp);
 443              		.loc 1 422 0
 444 0028 0DF10703 		add	r3, sp, #7
 445 002c 7022     		movs	r2, #112
 446 002e 0179     		ldrb	r1, [r0, #4]	@ zero_extendqisi2
 447              	.LVL41:
 448 0030 FFF7FEFF 		bl	_ZN3i2c8ReadByteEhhPh
 449              	.LVL42:
 423:Laser.c       ****         return decodeVcselPeriod(tmp);
 450              		.loc 1 423 0
 451 0034 9DF80700 		ldrb	r0, [sp, #7]	@ zero_extendqisi2
 452 0038 0130     		adds	r0, r0, #1
 453 003a 4000     		lsls	r0, r0, #1
 454 003c C0B2     		uxtb	r0, r0
 455 003e 00E0     		b	.L17
 456              	.LVL43:
 457              	.L18:
 424:Laser.c       ****     }
 425:Laser.c       ****     else { return 255; }
 458              		.loc 1 425 0
 459 0040 FF20     		movs	r0, #255
 460              	.LVL44:
 461              	.L17:
 426:Laser.c       **** }
 462              		.loc 1 426 0
 463 0042 03B0     		add	sp, sp, #12
 464              		.cfi_def_cfa_offset 4
 465              		@ sp needed
 466 0044 5DF804FB 		ldr	pc, [sp], #4
 467              		.cfi_endproc
 468              	.LFE85:
 469              		.fnend
 470              		.size	_ZN5Laser19getVcselPulsePeriodE15vcselPeriodType, .-_ZN5Laser19getVcselPulsePeriodE15vcselPe
 471              		.section	.text._ZN5Laser18LoadTuningSettingsEv,"ax",%progbits
 472              		.align	2
 473              		.global	_ZN5Laser18LoadTuningSettingsEv
 474              		.thumb
 475              		.thumb_func
 476              		.type	_ZN5Laser18LoadTuningSettingsEv, %function
 477              	_ZN5Laser18LoadTuningSettingsEv:
 478              		.fnstart
 479              	.LFB86:
 427:Laser.c       **** 
 428:Laser.c       **** void Laser::LoadTuningSettings()
 429:Laser.c       **** {
 480              		.loc 1 429 0
 481              		.cfi_startproc
 482              		@ args = 0, pretend = 0, frame = 0
 483              		@ frame_needed = 0, uses_anonymous_args = 0
ARM GAS  C:\Users\hejmi\AppData\Local\Temp\ccFM6jcL.s 			page 17


 484              	.LVL45:
 485 0000 10B5     		push	{r4, lr}
 486              		.save {r4, lr}
 487              		.cfi_def_cfa_offset 8
 488              		.cfi_offset 4, -8
 489              		.cfi_offset 14, -4
 490 0002 0446     		mov	r4, r0
 430:Laser.c       ****   // -- VL53L0X_load_tuning_settings() begin
 431:Laser.c       ****   // DefaultTuningSettings from vl53l0x_tuning.h
 432:Laser.c       ****   I2C.WriteByte(dev_,0xFF, 0x01);
 491              		.loc 1 432 0
 492 0004 0123     		movs	r3, #1
 493 0006 FF22     		movs	r2, #255
 494 0008 0179     		ldrb	r1, [r0, #4]	@ zero_extendqisi2
 495 000a FFF7FEFF 		bl	_ZN3i2c9WriteByteEhhh
 496              	.LVL46:
 433:Laser.c       ****   I2C.WriteByte(dev_,0x00, 0x00);
 497              		.loc 1 433 0
 498 000e 0023     		movs	r3, #0
 499 0010 1A46     		mov	r2, r3
 500 0012 2179     		ldrb	r1, [r4, #4]	@ zero_extendqisi2
 501 0014 2046     		mov	r0, r4
 502 0016 FFF7FEFF 		bl	_ZN3i2c9WriteByteEhhh
 503              	.LVL47:
 434:Laser.c       ****   I2C.WriteByte(dev_,0xFF, 0x00);
 504              		.loc 1 434 0
 505 001a 0023     		movs	r3, #0
 506 001c FF22     		movs	r2, #255
 507 001e 2179     		ldrb	r1, [r4, #4]	@ zero_extendqisi2
 508 0020 2046     		mov	r0, r4
 509 0022 FFF7FEFF 		bl	_ZN3i2c9WriteByteEhhh
 510              	.LVL48:
 435:Laser.c       ****   I2C.WriteByte(dev_,0x09, 0x00);
 511              		.loc 1 435 0
 512 0026 0023     		movs	r3, #0
 513 0028 0922     		movs	r2, #9
 514 002a 2179     		ldrb	r1, [r4, #4]	@ zero_extendqisi2
 515 002c 2046     		mov	r0, r4
 516 002e FFF7FEFF 		bl	_ZN3i2c9WriteByteEhhh
 517              	.LVL49:
 436:Laser.c       ****   I2C.WriteByte(dev_,0x10, 0x00);
 518              		.loc 1 436 0
 519 0032 0023     		movs	r3, #0
 520 0034 1022     		movs	r2, #16
 521 0036 2179     		ldrb	r1, [r4, #4]	@ zero_extendqisi2
 522 0038 2046     		mov	r0, r4
 523 003a FFF7FEFF 		bl	_ZN3i2c9WriteByteEhhh
 524              	.LVL50:
 437:Laser.c       ****   I2C.WriteByte(dev_,0x11, 0x00);
 525              		.loc 1 437 0
 526 003e 0023     		movs	r3, #0
 527 0040 1122     		movs	r2, #17
 528 0042 2179     		ldrb	r1, [r4, #4]	@ zero_extendqisi2
 529 0044 2046     		mov	r0, r4
 530 0046 FFF7FEFF 		bl	_ZN3i2c9WriteByteEhhh
 531              	.LVL51:
 438:Laser.c       ****   I2C.WriteByte(dev_,0x24, 0x01);
ARM GAS  C:\Users\hejmi\AppData\Local\Temp\ccFM6jcL.s 			page 18


 532              		.loc 1 438 0
 533 004a 0123     		movs	r3, #1
 534 004c 2422     		movs	r2, #36
 535 004e 2179     		ldrb	r1, [r4, #4]	@ zero_extendqisi2
 536 0050 2046     		mov	r0, r4
 537 0052 FFF7FEFF 		bl	_ZN3i2c9WriteByteEhhh
 538              	.LVL52:
 439:Laser.c       ****   I2C.WriteByte(dev_,0x25, 0xFF);
 539              		.loc 1 439 0
 540 0056 FF23     		movs	r3, #255
 541 0058 2522     		movs	r2, #37
 542 005a 2179     		ldrb	r1, [r4, #4]	@ zero_extendqisi2
 543 005c 2046     		mov	r0, r4
 544 005e FFF7FEFF 		bl	_ZN3i2c9WriteByteEhhh
 545              	.LVL53:
 440:Laser.c       ****   I2C.WriteByte(dev_,0x75, 0x00);
 546              		.loc 1 440 0
 547 0062 0023     		movs	r3, #0
 548 0064 7522     		movs	r2, #117
 549 0066 2179     		ldrb	r1, [r4, #4]	@ zero_extendqisi2
 550 0068 2046     		mov	r0, r4
 551 006a FFF7FEFF 		bl	_ZN3i2c9WriteByteEhhh
 552              	.LVL54:
 441:Laser.c       ****   I2C.WriteByte(dev_,0xFF, 0x01);
 553              		.loc 1 441 0
 554 006e 0123     		movs	r3, #1
 555 0070 FF22     		movs	r2, #255
 556 0072 2179     		ldrb	r1, [r4, #4]	@ zero_extendqisi2
 557 0074 2046     		mov	r0, r4
 558 0076 FFF7FEFF 		bl	_ZN3i2c9WriteByteEhhh
 559              	.LVL55:
 442:Laser.c       ****   I2C.WriteByte(dev_,0x4E, 0x2C);
 560              		.loc 1 442 0
 561 007a 2C23     		movs	r3, #44
 562 007c 4E22     		movs	r2, #78
 563 007e 2179     		ldrb	r1, [r4, #4]	@ zero_extendqisi2
 564 0080 2046     		mov	r0, r4
 565 0082 FFF7FEFF 		bl	_ZN3i2c9WriteByteEhhh
 566              	.LVL56:
 443:Laser.c       ****   I2C.WriteByte(dev_,0x48, 0x00);
 567              		.loc 1 443 0
 568 0086 0023     		movs	r3, #0
 569 0088 4822     		movs	r2, #72
 570 008a 2179     		ldrb	r1, [r4, #4]	@ zero_extendqisi2
 571 008c 2046     		mov	r0, r4
 572 008e FFF7FEFF 		bl	_ZN3i2c9WriteByteEhhh
 573              	.LVL57:
 444:Laser.c       ****   I2C.WriteByte(dev_,0x30, 0x20);
 574              		.loc 1 444 0
 575 0092 2023     		movs	r3, #32
 576 0094 3022     		movs	r2, #48
 577 0096 2179     		ldrb	r1, [r4, #4]	@ zero_extendqisi2
 578 0098 2046     		mov	r0, r4
 579 009a FFF7FEFF 		bl	_ZN3i2c9WriteByteEhhh
 580              	.LVL58:
 445:Laser.c       ****   I2C.WriteByte(dev_,0xFF, 0x00);
 581              		.loc 1 445 0
ARM GAS  C:\Users\hejmi\AppData\Local\Temp\ccFM6jcL.s 			page 19


 582 009e 0023     		movs	r3, #0
 583 00a0 FF22     		movs	r2, #255
 584 00a2 2179     		ldrb	r1, [r4, #4]	@ zero_extendqisi2
 585 00a4 2046     		mov	r0, r4
 586 00a6 FFF7FEFF 		bl	_ZN3i2c9WriteByteEhhh
 587              	.LVL59:
 446:Laser.c       ****   I2C.WriteByte(dev_,0x30, 0x09);
 588              		.loc 1 446 0
 589 00aa 0923     		movs	r3, #9
 590 00ac 3022     		movs	r2, #48
 591 00ae 2179     		ldrb	r1, [r4, #4]	@ zero_extendqisi2
 592 00b0 2046     		mov	r0, r4
 593 00b2 FFF7FEFF 		bl	_ZN3i2c9WriteByteEhhh
 594              	.LVL60:
 447:Laser.c       ****   I2C.WriteByte(dev_,0x54, 0x00);
 595              		.loc 1 447 0
 596 00b6 0023     		movs	r3, #0
 597 00b8 5422     		movs	r2, #84
 598 00ba 2179     		ldrb	r1, [r4, #4]	@ zero_extendqisi2
 599 00bc 2046     		mov	r0, r4
 600 00be FFF7FEFF 		bl	_ZN3i2c9WriteByteEhhh
 601              	.LVL61:
 448:Laser.c       ****   I2C.WriteByte(dev_,0x31, 0x04);
 602              		.loc 1 448 0
 603 00c2 0423     		movs	r3, #4
 604 00c4 3122     		movs	r2, #49
 605 00c6 2179     		ldrb	r1, [r4, #4]	@ zero_extendqisi2
 606 00c8 2046     		mov	r0, r4
 607 00ca FFF7FEFF 		bl	_ZN3i2c9WriteByteEhhh
 608              	.LVL62:
 449:Laser.c       ****   I2C.WriteByte(dev_,0x32, 0x03);
 609              		.loc 1 449 0
 610 00ce 0323     		movs	r3, #3
 611 00d0 3222     		movs	r2, #50
 612 00d2 2179     		ldrb	r1, [r4, #4]	@ zero_extendqisi2
 613 00d4 2046     		mov	r0, r4
 614 00d6 FFF7FEFF 		bl	_ZN3i2c9WriteByteEhhh
 615              	.LVL63:
 450:Laser.c       ****   I2C.WriteByte(dev_,0x40, 0x83);
 616              		.loc 1 450 0
 617 00da 8323     		movs	r3, #131
 618 00dc 4022     		movs	r2, #64
 619 00de 2179     		ldrb	r1, [r4, #4]	@ zero_extendqisi2
 620 00e0 2046     		mov	r0, r4
 621 00e2 FFF7FEFF 		bl	_ZN3i2c9WriteByteEhhh
 622              	.LVL64:
 451:Laser.c       ****   I2C.WriteByte(dev_,0x46, 0x25);
 623              		.loc 1 451 0
 624 00e6 2523     		movs	r3, #37
 625 00e8 4622     		movs	r2, #70
 626 00ea 2179     		ldrb	r1, [r4, #4]	@ zero_extendqisi2
 627 00ec 2046     		mov	r0, r4
 628 00ee FFF7FEFF 		bl	_ZN3i2c9WriteByteEhhh
 629              	.LVL65:
 452:Laser.c       ****   I2C.WriteByte(dev_,0x60, 0x00);
 630              		.loc 1 452 0
 631 00f2 0023     		movs	r3, #0
ARM GAS  C:\Users\hejmi\AppData\Local\Temp\ccFM6jcL.s 			page 20


 632 00f4 6022     		movs	r2, #96
 633 00f6 2179     		ldrb	r1, [r4, #4]	@ zero_extendqisi2
 634 00f8 2046     		mov	r0, r4
 635 00fa FFF7FEFF 		bl	_ZN3i2c9WriteByteEhhh
 636              	.LVL66:
 453:Laser.c       ****   I2C.WriteByte(dev_,0x27, 0x00);
 637              		.loc 1 453 0
 638 00fe 0023     		movs	r3, #0
 639 0100 2722     		movs	r2, #39
 640 0102 2179     		ldrb	r1, [r4, #4]	@ zero_extendqisi2
 641 0104 2046     		mov	r0, r4
 642 0106 FFF7FEFF 		bl	_ZN3i2c9WriteByteEhhh
 643              	.LVL67:
 454:Laser.c       ****   I2C.WriteByte(dev_,0x50, 0x06);
 644              		.loc 1 454 0
 645 010a 0623     		movs	r3, #6
 646 010c 5022     		movs	r2, #80
 647 010e 2179     		ldrb	r1, [r4, #4]	@ zero_extendqisi2
 648 0110 2046     		mov	r0, r4
 649 0112 FFF7FEFF 		bl	_ZN3i2c9WriteByteEhhh
 650              	.LVL68:
 455:Laser.c       ****   I2C.WriteByte(dev_,0x51, 0x00);
 651              		.loc 1 455 0
 652 0116 0023     		movs	r3, #0
 653 0118 5122     		movs	r2, #81
 654 011a 2179     		ldrb	r1, [r4, #4]	@ zero_extendqisi2
 655 011c 2046     		mov	r0, r4
 656 011e FFF7FEFF 		bl	_ZN3i2c9WriteByteEhhh
 657              	.LVL69:
 456:Laser.c       ****   I2C.WriteByte(dev_,0x52, 0x96);
 658              		.loc 1 456 0
 659 0122 9623     		movs	r3, #150
 660 0124 5222     		movs	r2, #82
 661 0126 2179     		ldrb	r1, [r4, #4]	@ zero_extendqisi2
 662 0128 2046     		mov	r0, r4
 663 012a FFF7FEFF 		bl	_ZN3i2c9WriteByteEhhh
 664              	.LVL70:
 457:Laser.c       ****   I2C.WriteByte(dev_,0x56, 0x08);
 665              		.loc 1 457 0
 666 012e 0823     		movs	r3, #8
 667 0130 5622     		movs	r2, #86
 668 0132 2179     		ldrb	r1, [r4, #4]	@ zero_extendqisi2
 669 0134 2046     		mov	r0, r4
 670 0136 FFF7FEFF 		bl	_ZN3i2c9WriteByteEhhh
 671              	.LVL71:
 458:Laser.c       ****   I2C.WriteByte(dev_,0x57, 0x30);
 672              		.loc 1 458 0
 673 013a 3023     		movs	r3, #48
 674 013c 5722     		movs	r2, #87
 675 013e 2179     		ldrb	r1, [r4, #4]	@ zero_extendqisi2
 676 0140 2046     		mov	r0, r4
 677 0142 FFF7FEFF 		bl	_ZN3i2c9WriteByteEhhh
 678              	.LVL72:
 459:Laser.c       ****   I2C.WriteByte(dev_,0x61, 0x00);
 679              		.loc 1 459 0
 680 0146 0023     		movs	r3, #0
 681 0148 6122     		movs	r2, #97
ARM GAS  C:\Users\hejmi\AppData\Local\Temp\ccFM6jcL.s 			page 21


 682 014a 2179     		ldrb	r1, [r4, #4]	@ zero_extendqisi2
 683 014c 2046     		mov	r0, r4
 684 014e FFF7FEFF 		bl	_ZN3i2c9WriteByteEhhh
 685              	.LVL73:
 460:Laser.c       ****   I2C.WriteByte(dev_,0x62, 0x00);
 686              		.loc 1 460 0
 687 0152 0023     		movs	r3, #0
 688 0154 6222     		movs	r2, #98
 689 0156 2179     		ldrb	r1, [r4, #4]	@ zero_extendqisi2
 690 0158 2046     		mov	r0, r4
 691 015a FFF7FEFF 		bl	_ZN3i2c9WriteByteEhhh
 692              	.LVL74:
 461:Laser.c       ****   I2C.WriteByte(dev_,0x64, 0x00);
 693              		.loc 1 461 0
 694 015e 0023     		movs	r3, #0
 695 0160 6422     		movs	r2, #100
 696 0162 2179     		ldrb	r1, [r4, #4]	@ zero_extendqisi2
 697 0164 2046     		mov	r0, r4
 698 0166 FFF7FEFF 		bl	_ZN3i2c9WriteByteEhhh
 699              	.LVL75:
 462:Laser.c       ****   I2C.WriteByte(dev_,0x65, 0x00);
 700              		.loc 1 462 0
 701 016a 0023     		movs	r3, #0
 702 016c 6522     		movs	r2, #101
 703 016e 2179     		ldrb	r1, [r4, #4]	@ zero_extendqisi2
 704 0170 2046     		mov	r0, r4
 705 0172 FFF7FEFF 		bl	_ZN3i2c9WriteByteEhhh
 706              	.LVL76:
 463:Laser.c       ****   I2C.WriteByte(dev_,0x66, 0xA0);
 707              		.loc 1 463 0
 708 0176 A023     		movs	r3, #160
 709 0178 6622     		movs	r2, #102
 710 017a 2179     		ldrb	r1, [r4, #4]	@ zero_extendqisi2
 711 017c 2046     		mov	r0, r4
 712 017e FFF7FEFF 		bl	_ZN3i2c9WriteByteEhhh
 713              	.LVL77:
 464:Laser.c       ****   I2C.WriteByte(dev_,0xFF, 0x01);
 714              		.loc 1 464 0
 715 0182 0123     		movs	r3, #1
 716 0184 FF22     		movs	r2, #255
 717 0186 2179     		ldrb	r1, [r4, #4]	@ zero_extendqisi2
 718 0188 2046     		mov	r0, r4
 719 018a FFF7FEFF 		bl	_ZN3i2c9WriteByteEhhh
 720              	.LVL78:
 465:Laser.c       ****   I2C.WriteByte(dev_,0x22, 0x32);
 721              		.loc 1 465 0
 722 018e 3223     		movs	r3, #50
 723 0190 2222     		movs	r2, #34
 724 0192 2179     		ldrb	r1, [r4, #4]	@ zero_extendqisi2
 725 0194 2046     		mov	r0, r4
 726 0196 FFF7FEFF 		bl	_ZN3i2c9WriteByteEhhh
 727              	.LVL79:
 466:Laser.c       ****   I2C.WriteByte(dev_,0x47, 0x14);
 728              		.loc 1 466 0
 729 019a 1423     		movs	r3, #20
 730 019c 4722     		movs	r2, #71
 731 019e 2179     		ldrb	r1, [r4, #4]	@ zero_extendqisi2
ARM GAS  C:\Users\hejmi\AppData\Local\Temp\ccFM6jcL.s 			page 22


 732 01a0 2046     		mov	r0, r4
 733 01a2 FFF7FEFF 		bl	_ZN3i2c9WriteByteEhhh
 734              	.LVL80:
 467:Laser.c       ****   I2C.WriteByte(dev_,0x49, 0xFF);
 735              		.loc 1 467 0
 736 01a6 FF23     		movs	r3, #255
 737 01a8 4922     		movs	r2, #73
 738 01aa 2179     		ldrb	r1, [r4, #4]	@ zero_extendqisi2
 739 01ac 2046     		mov	r0, r4
 740 01ae FFF7FEFF 		bl	_ZN3i2c9WriteByteEhhh
 741              	.LVL81:
 468:Laser.c       ****   I2C.WriteByte(dev_,0x4A, 0x00);
 742              		.loc 1 468 0
 743 01b2 0023     		movs	r3, #0
 744 01b4 4A22     		movs	r2, #74
 745 01b6 2179     		ldrb	r1, [r4, #4]	@ zero_extendqisi2
 746 01b8 2046     		mov	r0, r4
 747 01ba FFF7FEFF 		bl	_ZN3i2c9WriteByteEhhh
 748              	.LVL82:
 469:Laser.c       ****   I2C.WriteByte(dev_,0xFF, 0x00);
 749              		.loc 1 469 0
 750 01be 0023     		movs	r3, #0
 751 01c0 FF22     		movs	r2, #255
 752 01c2 2179     		ldrb	r1, [r4, #4]	@ zero_extendqisi2
 753 01c4 2046     		mov	r0, r4
 754 01c6 FFF7FEFF 		bl	_ZN3i2c9WriteByteEhhh
 755              	.LVL83:
 470:Laser.c       ****   I2C.WriteByte(dev_,0x7A, 0x0A);
 756              		.loc 1 470 0
 757 01ca 0A23     		movs	r3, #10
 758 01cc 7A22     		movs	r2, #122
 759 01ce 2179     		ldrb	r1, [r4, #4]	@ zero_extendqisi2
 760 01d0 2046     		mov	r0, r4
 761 01d2 FFF7FEFF 		bl	_ZN3i2c9WriteByteEhhh
 762              	.LVL84:
 471:Laser.c       ****   I2C.WriteByte(dev_,0x7B, 0x00);
 763              		.loc 1 471 0
 764 01d6 0023     		movs	r3, #0
 765 01d8 7B22     		movs	r2, #123
 766 01da 2179     		ldrb	r1, [r4, #4]	@ zero_extendqisi2
 767 01dc 2046     		mov	r0, r4
 768 01de FFF7FEFF 		bl	_ZN3i2c9WriteByteEhhh
 769              	.LVL85:
 472:Laser.c       ****   I2C.WriteByte(dev_,0x78, 0x21);
 770              		.loc 1 472 0
 771 01e2 2123     		movs	r3, #33
 772 01e4 7822     		movs	r2, #120
 773 01e6 2179     		ldrb	r1, [r4, #4]	@ zero_extendqisi2
 774 01e8 2046     		mov	r0, r4
 775 01ea FFF7FEFF 		bl	_ZN3i2c9WriteByteEhhh
 776              	.LVL86:
 473:Laser.c       ****   I2C.WriteByte(dev_,0xFF, 0x01);
 777              		.loc 1 473 0
 778 01ee 0123     		movs	r3, #1
 779 01f0 FF22     		movs	r2, #255
 780 01f2 2179     		ldrb	r1, [r4, #4]	@ zero_extendqisi2
 781 01f4 2046     		mov	r0, r4
ARM GAS  C:\Users\hejmi\AppData\Local\Temp\ccFM6jcL.s 			page 23


 782 01f6 FFF7FEFF 		bl	_ZN3i2c9WriteByteEhhh
 783              	.LVL87:
 474:Laser.c       ****   I2C.WriteByte(dev_,0x23, 0x34);
 784              		.loc 1 474 0
 785 01fa 3423     		movs	r3, #52
 786 01fc 2322     		movs	r2, #35
 787 01fe 2179     		ldrb	r1, [r4, #4]	@ zero_extendqisi2
 788 0200 2046     		mov	r0, r4
 789 0202 FFF7FEFF 		bl	_ZN3i2c9WriteByteEhhh
 790              	.LVL88:
 475:Laser.c       ****   I2C.WriteByte(dev_,0x42, 0x00);
 791              		.loc 1 475 0
 792 0206 0023     		movs	r3, #0
 793 0208 4222     		movs	r2, #66
 794 020a 2179     		ldrb	r1, [r4, #4]	@ zero_extendqisi2
 795 020c 2046     		mov	r0, r4
 796 020e FFF7FEFF 		bl	_ZN3i2c9WriteByteEhhh
 797              	.LVL89:
 476:Laser.c       ****   I2C.WriteByte(dev_,0x44, 0xFF);
 798              		.loc 1 476 0
 799 0212 FF23     		movs	r3, #255
 800 0214 4422     		movs	r2, #68
 801 0216 2179     		ldrb	r1, [r4, #4]	@ zero_extendqisi2
 802 0218 2046     		mov	r0, r4
 803 021a FFF7FEFF 		bl	_ZN3i2c9WriteByteEhhh
 804              	.LVL90:
 477:Laser.c       ****   I2C.WriteByte(dev_,0x45, 0x26);
 805              		.loc 1 477 0
 806 021e 2623     		movs	r3, #38
 807 0220 4522     		movs	r2, #69
 808 0222 2179     		ldrb	r1, [r4, #4]	@ zero_extendqisi2
 809 0224 2046     		mov	r0, r4
 810 0226 FFF7FEFF 		bl	_ZN3i2c9WriteByteEhhh
 811              	.LVL91:
 478:Laser.c       ****   I2C.WriteByte(dev_,0x46, 0x05);
 812              		.loc 1 478 0
 813 022a 0523     		movs	r3, #5
 814 022c 4622     		movs	r2, #70
 815 022e 2179     		ldrb	r1, [r4, #4]	@ zero_extendqisi2
 816 0230 2046     		mov	r0, r4
 817 0232 FFF7FEFF 		bl	_ZN3i2c9WriteByteEhhh
 818              	.LVL92:
 479:Laser.c       ****   I2C.WriteByte(dev_,0x40, 0x40);
 819              		.loc 1 479 0
 820 0236 4023     		movs	r3, #64
 821 0238 1A46     		mov	r2, r3
 822 023a 2179     		ldrb	r1, [r4, #4]	@ zero_extendqisi2
 823 023c 2046     		mov	r0, r4
 824 023e FFF7FEFF 		bl	_ZN3i2c9WriteByteEhhh
 825              	.LVL93:
 480:Laser.c       ****   I2C.WriteByte(dev_,0x0E, 0x06);
 826              		.loc 1 480 0
 827 0242 0623     		movs	r3, #6
 828 0244 0E22     		movs	r2, #14
 829 0246 2179     		ldrb	r1, [r4, #4]	@ zero_extendqisi2
 830 0248 2046     		mov	r0, r4
 831 024a FFF7FEFF 		bl	_ZN3i2c9WriteByteEhhh
ARM GAS  C:\Users\hejmi\AppData\Local\Temp\ccFM6jcL.s 			page 24


 832              	.LVL94:
 481:Laser.c       ****   I2C.WriteByte(dev_,0x20, 0x1A);
 833              		.loc 1 481 0
 834 024e 1A23     		movs	r3, #26
 835 0250 2022     		movs	r2, #32
 836 0252 2179     		ldrb	r1, [r4, #4]	@ zero_extendqisi2
 837 0254 2046     		mov	r0, r4
 838 0256 FFF7FEFF 		bl	_ZN3i2c9WriteByteEhhh
 839              	.LVL95:
 482:Laser.c       ****   I2C.WriteByte(dev_,0x43, 0x40);
 840              		.loc 1 482 0
 841 025a 4023     		movs	r3, #64
 842 025c 4322     		movs	r2, #67
 843 025e 2179     		ldrb	r1, [r4, #4]	@ zero_extendqisi2
 844 0260 2046     		mov	r0, r4
 845 0262 FFF7FEFF 		bl	_ZN3i2c9WriteByteEhhh
 846              	.LVL96:
 483:Laser.c       ****   I2C.WriteByte(dev_,0xFF, 0x00);
 847              		.loc 1 483 0
 848 0266 0023     		movs	r3, #0
 849 0268 FF22     		movs	r2, #255
 850 026a 2179     		ldrb	r1, [r4, #4]	@ zero_extendqisi2
 851 026c 2046     		mov	r0, r4
 852 026e FFF7FEFF 		bl	_ZN3i2c9WriteByteEhhh
 853              	.LVL97:
 484:Laser.c       ****   I2C.WriteByte(dev_,0x34, 0x03);
 854              		.loc 1 484 0
 855 0272 0323     		movs	r3, #3
 856 0274 3422     		movs	r2, #52
 857 0276 2179     		ldrb	r1, [r4, #4]	@ zero_extendqisi2
 858 0278 2046     		mov	r0, r4
 859 027a FFF7FEFF 		bl	_ZN3i2c9WriteByteEhhh
 860              	.LVL98:
 485:Laser.c       ****   I2C.WriteByte(dev_,0x35, 0x44);
 861              		.loc 1 485 0
 862 027e 4423     		movs	r3, #68
 863 0280 3522     		movs	r2, #53
 864 0282 2179     		ldrb	r1, [r4, #4]	@ zero_extendqisi2
 865 0284 2046     		mov	r0, r4
 866 0286 FFF7FEFF 		bl	_ZN3i2c9WriteByteEhhh
 867              	.LVL99:
 486:Laser.c       ****   I2C.WriteByte(dev_,0xFF, 0x01);
 868              		.loc 1 486 0
 869 028a 0123     		movs	r3, #1
 870 028c FF22     		movs	r2, #255
 871 028e 2179     		ldrb	r1, [r4, #4]	@ zero_extendqisi2
 872 0290 2046     		mov	r0, r4
 873 0292 FFF7FEFF 		bl	_ZN3i2c9WriteByteEhhh
 874              	.LVL100:
 487:Laser.c       ****   I2C.WriteByte(dev_,0x31, 0x04);
 875              		.loc 1 487 0
 876 0296 0423     		movs	r3, #4
 877 0298 3122     		movs	r2, #49
 878 029a 2179     		ldrb	r1, [r4, #4]	@ zero_extendqisi2
 879 029c 2046     		mov	r0, r4
 880 029e FFF7FEFF 		bl	_ZN3i2c9WriteByteEhhh
 881              	.LVL101:
ARM GAS  C:\Users\hejmi\AppData\Local\Temp\ccFM6jcL.s 			page 25


 488:Laser.c       ****   I2C.WriteByte(dev_,0x4B, 0x09);
 882              		.loc 1 488 0
 883 02a2 0923     		movs	r3, #9
 884 02a4 4B22     		movs	r2, #75
 885 02a6 2179     		ldrb	r1, [r4, #4]	@ zero_extendqisi2
 886 02a8 2046     		mov	r0, r4
 887 02aa FFF7FEFF 		bl	_ZN3i2c9WriteByteEhhh
 888              	.LVL102:
 489:Laser.c       ****   I2C.WriteByte(dev_,0x4C, 0x05);
 889              		.loc 1 489 0
 890 02ae 0523     		movs	r3, #5
 891 02b0 4C22     		movs	r2, #76
 892 02b2 2179     		ldrb	r1, [r4, #4]	@ zero_extendqisi2
 893 02b4 2046     		mov	r0, r4
 894 02b6 FFF7FEFF 		bl	_ZN3i2c9WriteByteEhhh
 895              	.LVL103:
 490:Laser.c       ****   I2C.WriteByte(dev_,0x4D, 0x04);
 896              		.loc 1 490 0
 897 02ba 0423     		movs	r3, #4
 898 02bc 4D22     		movs	r2, #77
 899 02be 2179     		ldrb	r1, [r4, #4]	@ zero_extendqisi2
 900 02c0 2046     		mov	r0, r4
 901 02c2 FFF7FEFF 		bl	_ZN3i2c9WriteByteEhhh
 902              	.LVL104:
 491:Laser.c       ****   I2C.WriteByte(dev_,0xFF, 0x00);
 903              		.loc 1 491 0
 904 02c6 0023     		movs	r3, #0
 905 02c8 FF22     		movs	r2, #255
 906 02ca 2179     		ldrb	r1, [r4, #4]	@ zero_extendqisi2
 907 02cc 2046     		mov	r0, r4
 908 02ce FFF7FEFF 		bl	_ZN3i2c9WriteByteEhhh
 909              	.LVL105:
 492:Laser.c       ****   I2C.WriteByte(dev_,0x44, 0x00);
 910              		.loc 1 492 0
 911 02d2 0023     		movs	r3, #0
 912 02d4 4422     		movs	r2, #68
 913 02d6 2179     		ldrb	r1, [r4, #4]	@ zero_extendqisi2
 914 02d8 2046     		mov	r0, r4
 915 02da FFF7FEFF 		bl	_ZN3i2c9WriteByteEhhh
 916              	.LVL106:
 493:Laser.c       ****   I2C.WriteByte(dev_,0x45, 0x20);
 917              		.loc 1 493 0
 918 02de 2023     		movs	r3, #32
 919 02e0 4522     		movs	r2, #69
 920 02e2 2179     		ldrb	r1, [r4, #4]	@ zero_extendqisi2
 921 02e4 2046     		mov	r0, r4
 922 02e6 FFF7FEFF 		bl	_ZN3i2c9WriteByteEhhh
 923              	.LVL107:
 494:Laser.c       ****   I2C.WriteByte(dev_,0x47, 0x08);
 924              		.loc 1 494 0
 925 02ea 0823     		movs	r3, #8
 926 02ec 4722     		movs	r2, #71
 927 02ee 2179     		ldrb	r1, [r4, #4]	@ zero_extendqisi2
 928 02f0 2046     		mov	r0, r4
 929 02f2 FFF7FEFF 		bl	_ZN3i2c9WriteByteEhhh
 930              	.LVL108:
 495:Laser.c       ****   I2C.WriteByte(dev_,0x48, 0x28);
ARM GAS  C:\Users\hejmi\AppData\Local\Temp\ccFM6jcL.s 			page 26


 931              		.loc 1 495 0
 932 02f6 2823     		movs	r3, #40
 933 02f8 4822     		movs	r2, #72
 934 02fa 2179     		ldrb	r1, [r4, #4]	@ zero_extendqisi2
 935 02fc 2046     		mov	r0, r4
 936 02fe FFF7FEFF 		bl	_ZN3i2c9WriteByteEhhh
 937              	.LVL109:
 496:Laser.c       ****   I2C.WriteByte(dev_,0x67, 0x00);
 938              		.loc 1 496 0
 939 0302 0023     		movs	r3, #0
 940 0304 6722     		movs	r2, #103
 941 0306 2179     		ldrb	r1, [r4, #4]	@ zero_extendqisi2
 942 0308 2046     		mov	r0, r4
 943 030a FFF7FEFF 		bl	_ZN3i2c9WriteByteEhhh
 944              	.LVL110:
 497:Laser.c       ****   I2C.WriteByte(dev_,0x70, 0x04);
 945              		.loc 1 497 0
 946 030e 0423     		movs	r3, #4
 947 0310 7022     		movs	r2, #112
 948 0312 2179     		ldrb	r1, [r4, #4]	@ zero_extendqisi2
 949 0314 2046     		mov	r0, r4
 950 0316 FFF7FEFF 		bl	_ZN3i2c9WriteByteEhhh
 951              	.LVL111:
 498:Laser.c       ****   I2C.WriteByte(dev_,0x71, 0x01);
 952              		.loc 1 498 0
 953 031a 0123     		movs	r3, #1
 954 031c 7122     		movs	r2, #113
 955 031e 2179     		ldrb	r1, [r4, #4]	@ zero_extendqisi2
 956 0320 2046     		mov	r0, r4
 957 0322 FFF7FEFF 		bl	_ZN3i2c9WriteByteEhhh
 958              	.LVL112:
 499:Laser.c       ****   I2C.WriteByte(dev_,0x72, 0xFE);
 959              		.loc 1 499 0
 960 0326 FE23     		movs	r3, #254
 961 0328 7222     		movs	r2, #114
 962 032a 2179     		ldrb	r1, [r4, #4]	@ zero_extendqisi2
 963 032c 2046     		mov	r0, r4
 964 032e FFF7FEFF 		bl	_ZN3i2c9WriteByteEhhh
 965              	.LVL113:
 500:Laser.c       ****   I2C.WriteByte(dev_,0x76, 0x00);
 966              		.loc 1 500 0
 967 0332 0023     		movs	r3, #0
 968 0334 7622     		movs	r2, #118
 969 0336 2179     		ldrb	r1, [r4, #4]	@ zero_extendqisi2
 970 0338 2046     		mov	r0, r4
 971 033a FFF7FEFF 		bl	_ZN3i2c9WriteByteEhhh
 972              	.LVL114:
 501:Laser.c       ****   I2C.WriteByte(dev_,0x77, 0x00);
 973              		.loc 1 501 0
 974 033e 0023     		movs	r3, #0
 975 0340 7722     		movs	r2, #119
 976 0342 2179     		ldrb	r1, [r4, #4]	@ zero_extendqisi2
 977 0344 2046     		mov	r0, r4
 978 0346 FFF7FEFF 		bl	_ZN3i2c9WriteByteEhhh
 979              	.LVL115:
 502:Laser.c       ****   I2C.WriteByte(dev_,0xFF, 0x01);
 980              		.loc 1 502 0
ARM GAS  C:\Users\hejmi\AppData\Local\Temp\ccFM6jcL.s 			page 27


 981 034a 0123     		movs	r3, #1
 982 034c FF22     		movs	r2, #255
 983 034e 2179     		ldrb	r1, [r4, #4]	@ zero_extendqisi2
 984 0350 2046     		mov	r0, r4
 985 0352 FFF7FEFF 		bl	_ZN3i2c9WriteByteEhhh
 986              	.LVL116:
 503:Laser.c       ****   I2C.WriteByte(dev_,0x0D, 0x01);
 987              		.loc 1 503 0
 988 0356 0123     		movs	r3, #1
 989 0358 0D22     		movs	r2, #13
 990 035a 2179     		ldrb	r1, [r4, #4]	@ zero_extendqisi2
 991 035c 2046     		mov	r0, r4
 992 035e FFF7FEFF 		bl	_ZN3i2c9WriteByteEhhh
 993              	.LVL117:
 504:Laser.c       ****   I2C.WriteByte(dev_,0xFF, 0x00);
 994              		.loc 1 504 0
 995 0362 0023     		movs	r3, #0
 996 0364 FF22     		movs	r2, #255
 997 0366 2179     		ldrb	r1, [r4, #4]	@ zero_extendqisi2
 998 0368 2046     		mov	r0, r4
 999 036a FFF7FEFF 		bl	_ZN3i2c9WriteByteEhhh
 1000              	.LVL118:
 505:Laser.c       ****   I2C.WriteByte(dev_,0x80, 0x01);
 1001              		.loc 1 505 0
 1002 036e 0123     		movs	r3, #1
 1003 0370 8022     		movs	r2, #128
 1004 0372 2179     		ldrb	r1, [r4, #4]	@ zero_extendqisi2
 1005 0374 2046     		mov	r0, r4
 1006 0376 FFF7FEFF 		bl	_ZN3i2c9WriteByteEhhh
 1007              	.LVL119:
 506:Laser.c       ****   I2C.WriteByte(dev_,0x01, 0xF8);
 1008              		.loc 1 506 0
 1009 037a F823     		movs	r3, #248
 1010 037c 0122     		movs	r2, #1
 1011 037e 2179     		ldrb	r1, [r4, #4]	@ zero_extendqisi2
 1012 0380 2046     		mov	r0, r4
 1013 0382 FFF7FEFF 		bl	_ZN3i2c9WriteByteEhhh
 1014              	.LVL120:
 507:Laser.c       ****   I2C.WriteByte(dev_,0xFF, 0x01);
 1015              		.loc 1 507 0
 1016 0386 0123     		movs	r3, #1
 1017 0388 FF22     		movs	r2, #255
 1018 038a 2179     		ldrb	r1, [r4, #4]	@ zero_extendqisi2
 1019 038c 2046     		mov	r0, r4
 1020 038e FFF7FEFF 		bl	_ZN3i2c9WriteByteEhhh
 1021              	.LVL121:
 508:Laser.c       ****   I2C.WriteByte(dev_,0x8E, 0x01);
 1022              		.loc 1 508 0
 1023 0392 0123     		movs	r3, #1
 1024 0394 8E22     		movs	r2, #142
 1025 0396 2179     		ldrb	r1, [r4, #4]	@ zero_extendqisi2
 1026 0398 2046     		mov	r0, r4
 1027 039a FFF7FEFF 		bl	_ZN3i2c9WriteByteEhhh
 1028              	.LVL122:
 509:Laser.c       ****   I2C.WriteByte(dev_,0x00, 0x01);
 1029              		.loc 1 509 0
 1030 039e 0123     		movs	r3, #1
ARM GAS  C:\Users\hejmi\AppData\Local\Temp\ccFM6jcL.s 			page 28


 1031 03a0 0022     		movs	r2, #0
 1032 03a2 2179     		ldrb	r1, [r4, #4]	@ zero_extendqisi2
 1033 03a4 2046     		mov	r0, r4
 1034 03a6 FFF7FEFF 		bl	_ZN3i2c9WriteByteEhhh
 1035              	.LVL123:
 510:Laser.c       ****   I2C.WriteByte(dev_,0xFF, 0x00);
 1036              		.loc 1 510 0
 1037 03aa 0023     		movs	r3, #0
 1038 03ac FF22     		movs	r2, #255
 1039 03ae 2179     		ldrb	r1, [r4, #4]	@ zero_extendqisi2
 1040 03b0 2046     		mov	r0, r4
 1041 03b2 FFF7FEFF 		bl	_ZN3i2c9WriteByteEhhh
 1042              	.LVL124:
 511:Laser.c       ****   I2C.WriteByte(dev_,0x80, 0x00);
 1043              		.loc 1 511 0
 1044 03b6 0023     		movs	r3, #0
 1045 03b8 8022     		movs	r2, #128
 1046 03ba 2179     		ldrb	r1, [r4, #4]	@ zero_extendqisi2
 1047 03bc 2046     		mov	r0, r4
 1048 03be FFF7FEFF 		bl	_ZN3i2c9WriteByteEhhh
 1049              	.LVL125:
 1050 03c2 10BD     		pop	{r4, pc}
 1051              		.cfi_endproc
 1052              	.LFE86:
 1053              		.fnend
 1054              		.size	_ZN5Laser18LoadTuningSettingsEv, .-_ZN5Laser18LoadTuningSettingsEv
 1055              		.section	.text._ZN5Laser13SetGpioConfigEv,"ax",%progbits
 1056              		.align	2
 1057              		.global	_ZN5Laser13SetGpioConfigEv
 1058              		.thumb
 1059              		.thumb_func
 1060              		.type	_ZN5Laser13SetGpioConfigEv, %function
 1061              	_ZN5Laser13SetGpioConfigEv:
 1062              		.fnstart
 1063              	.LFB87:
 512:Laser.c       **** }
 513:Laser.c       **** 
 514:Laser.c       **** void Laser::SetGpioConfig()
 515:Laser.c       **** {
 1064              		.loc 1 515 0
 1065              		.cfi_startproc
 1066              		@ args = 0, pretend = 0, frame = 8
 1067              		@ frame_needed = 0, uses_anonymous_args = 0
 1068              	.LVL126:
 1069 0000 10B5     		push	{r4, lr}
 1070              		.save {r4, lr}
 1071              		.cfi_def_cfa_offset 8
 1072              		.cfi_offset 4, -8
 1073              		.cfi_offset 14, -4
 1074              		.pad #8
 1075 0002 82B0     		sub	sp, sp, #8
 1076              		.cfi_def_cfa_offset 16
 1077 0004 0446     		mov	r4, r0
 516:Laser.c       ****     // "Set interrupt config to new sample ready"
 517:Laser.c       ****     I2C.WriteByte(dev_,SYSTEM_INTERRUPT_CONFIG_GPIO, 0x04);
 1078              		.loc 1 517 0
 1079 0006 0423     		movs	r3, #4
ARM GAS  C:\Users\hejmi\AppData\Local\Temp\ccFM6jcL.s 			page 29


 1080 0008 0A22     		movs	r2, #10
 1081 000a 0179     		ldrb	r1, [r0, #4]	@ zero_extendqisi2
 1082 000c FFF7FEFF 		bl	_ZN3i2c9WriteByteEhhh
 1083              	.LVL127:
 518:Laser.c       ****     uint8_t tmpdata;
 519:Laser.c       ****     I2C.ReadByte(dev_,GPIO_HV_MUX_ACTIVE_HIGH,&tmpdata);
 1084              		.loc 1 519 0
 1085 0010 0DF10703 		add	r3, sp, #7
 1086 0014 8422     		movs	r2, #132
 1087 0016 2179     		ldrb	r1, [r4, #4]	@ zero_extendqisi2
 1088 0018 2046     		mov	r0, r4
 1089 001a FFF7FEFF 		bl	_ZN3i2c8ReadByteEhhPh
 1090              	.LVL128:
 520:Laser.c       ****     I2C.WriteByte(dev_,GPIO_HV_MUX_ACTIVE_HIGH, tmpdata & ~0x10); // active low
 1091              		.loc 1 520 0
 1092 001e 9DF80730 		ldrb	r3, [sp, #7]	@ zero_extendqisi2
 1093 0022 03F0EF03 		and	r3, r3, #239
 1094 0026 8422     		movs	r2, #132
 1095 0028 2179     		ldrb	r1, [r4, #4]	@ zero_extendqisi2
 1096 002a 2046     		mov	r0, r4
 1097 002c FFF7FEFF 		bl	_ZN3i2c9WriteByteEhhh
 1098              	.LVL129:
 521:Laser.c       ****     I2C.WriteByte(dev_,SYSTEM_INTERRUPT_CLEAR, 0x01);
 1099              		.loc 1 521 0
 1100 0030 0123     		movs	r3, #1
 1101 0032 0B22     		movs	r2, #11
 1102 0034 2179     		ldrb	r1, [r4, #4]	@ zero_extendqisi2
 1103 0036 2046     		mov	r0, r4
 1104 0038 FFF7FEFF 		bl	_ZN3i2c9WriteByteEhhh
 1105              	.LVL130:
 522:Laser.c       **** }
 1106              		.loc 1 522 0
 1107 003c 02B0     		add	sp, sp, #8
 1108              		.cfi_def_cfa_offset 8
 1109              		@ sp needed
 1110 003e 10BD     		pop	{r4, pc}
 1111              		.cfi_endproc
 1112              	.LFE87:
 1113              		.fnend
 1114              		.size	_ZN5Laser13SetGpioConfigEv, .-_ZN5Laser13SetGpioConfigEv
 1115              		.section	.text._ZN5Laser7I2CInitEv,"ax",%progbits
 1116              		.align	2
 1117              		.global	_ZN5Laser7I2CInitEv
 1118              		.thumb
 1119              		.thumb_func
 1120              		.type	_ZN5Laser7I2CInitEv, %function
 1121              	_ZN5Laser7I2CInitEv:
 1122              		.fnstart
 1123              	.LFB89:
 523:Laser.c       **** 
 524:Laser.c       **** void Laser::DataInit(bool io_2v8)
 525:Laser.c       **** {
 526:Laser.c       ****     // sensor uses 1V8 mode for I/O by default; switch to 2V8 mode if necessary
 527:Laser.c       ****     if (io_2v8)
 528:Laser.c       ****     {
 529:Laser.c       ****         uint8_t tmp;
 530:Laser.c       ****         I2C.ReadByte(dev_,VHV_CONFIG_PAD_SCL_SDA__EXTSUP_HV,&tmp);
ARM GAS  C:\Users\hejmi\AppData\Local\Temp\ccFM6jcL.s 			page 30


 531:Laser.c       ****         I2C.WriteByte(dev_,VHV_CONFIG_PAD_SCL_SDA__EXTSUP_HV,
 532:Laser.c       ****         tmp | 0x01); // set bit 0
 533:Laser.c       ****     }
 534:Laser.c       ****     
 535:Laser.c       ****     /*Initiate I2C-Communication*/
 536:Laser.c       ****     I2CInit();
 537:Laser.c       ****     
 538:Laser.c       ****     // disable SIGNAL_RATE_MSRC (bit 1) and SIGNAL_RATE_PRE_RANGE (bit 4) limit checks
 539:Laser.c       ****     uint8_t data;
 540:Laser.c       ****     I2C.ReadByte(dev_,MSRC_CONFIG_CONTROL,&data);
 541:Laser.c       ****     I2C.WriteByte(dev_,MSRC_CONFIG_CONTROL, data | 0x12);
 542:Laser.c       **** 
 543:Laser.c       ****     // set final range signal rate limit to 0.25 MCPS (million counts per second)
 544:Laser.c       ****     setSignalRateLimit(0.25);
 545:Laser.c       ****     I2C.WriteByte(dev_,SYSTEM_SEQUENCE_CONFIG, 0xFF);
 546:Laser.c       **** }
 547:Laser.c       **** 
 548:Laser.c       **** void Laser::I2CInit()
 549:Laser.c       **** {
 1124              		.loc 1 549 0
 1125              		.cfi_startproc
 1126              		@ args = 0, pretend = 0, frame = 0
 1127              		@ frame_needed = 0, uses_anonymous_args = 0
 1128              	.LVL131:
 1129 0000 10B5     		push	{r4, lr}
 1130              		.save {r4, lr}
 1131              		.cfi_def_cfa_offset 8
 1132              		.cfi_offset 4, -8
 1133              		.cfi_offset 14, -4
 1134 0002 0446     		mov	r4, r0
 550:Laser.c       ****     // "Set I2C standard mode"
 551:Laser.c       ****     I2C.WriteByte(dev_,0x88, 0x00);
 1135              		.loc 1 551 0
 1136 0004 0023     		movs	r3, #0
 1137 0006 8822     		movs	r2, #136
 1138 0008 0179     		ldrb	r1, [r0, #4]	@ zero_extendqisi2
 1139 000a FFF7FEFF 		bl	_ZN3i2c9WriteByteEhhh
 1140              	.LVL132:
 552:Laser.c       ****     I2C.WriteByte(dev_,0x80, 0x01);
 1141              		.loc 1 552 0
 1142 000e 0123     		movs	r3, #1
 1143 0010 8022     		movs	r2, #128
 1144 0012 2179     		ldrb	r1, [r4, #4]	@ zero_extendqisi2
 1145 0014 2046     		mov	r0, r4
 1146 0016 FFF7FEFF 		bl	_ZN3i2c9WriteByteEhhh
 1147              	.LVL133:
 553:Laser.c       ****     I2C.WriteByte(dev_,0xFF, 0x01);
 1148              		.loc 1 553 0
 1149 001a 0123     		movs	r3, #1
 1150 001c FF22     		movs	r2, #255
 1151 001e 2179     		ldrb	r1, [r4, #4]	@ zero_extendqisi2
 1152 0020 2046     		mov	r0, r4
 1153 0022 FFF7FEFF 		bl	_ZN3i2c9WriteByteEhhh
 1154              	.LVL134:
 554:Laser.c       ****     I2C.WriteByte(dev_,0x00, 0x00);
 1155              		.loc 1 554 0
 1156 0026 0023     		movs	r3, #0
ARM GAS  C:\Users\hejmi\AppData\Local\Temp\ccFM6jcL.s 			page 31


 1157 0028 1A46     		mov	r2, r3
 1158 002a 2179     		ldrb	r1, [r4, #4]	@ zero_extendqisi2
 1159 002c 2046     		mov	r0, r4
 1160 002e FFF7FEFF 		bl	_ZN3i2c9WriteByteEhhh
 1161              	.LVL135:
 555:Laser.c       ****     I2C.ReadByte(dev_,0x91,&stop_variable);
 1162              		.loc 1 555 0
 1163 0032 04F10E03 		add	r3, r4, #14
 1164 0036 9122     		movs	r2, #145
 1165 0038 2179     		ldrb	r1, [r4, #4]	@ zero_extendqisi2
 1166 003a 2046     		mov	r0, r4
 1167 003c FFF7FEFF 		bl	_ZN3i2c8ReadByteEhhPh
 1168              	.LVL136:
 556:Laser.c       ****     I2C.WriteByte(dev_,0x00, 0x01);
 1169              		.loc 1 556 0
 1170 0040 0123     		movs	r3, #1
 1171 0042 0022     		movs	r2, #0
 1172 0044 2179     		ldrb	r1, [r4, #4]	@ zero_extendqisi2
 1173 0046 2046     		mov	r0, r4
 1174 0048 FFF7FEFF 		bl	_ZN3i2c9WriteByteEhhh
 1175              	.LVL137:
 557:Laser.c       ****     I2C.WriteByte(dev_,0xFF, 0x00);
 1176              		.loc 1 557 0
 1177 004c 0023     		movs	r3, #0
 1178 004e FF22     		movs	r2, #255
 1179 0050 2179     		ldrb	r1, [r4, #4]	@ zero_extendqisi2
 1180 0052 2046     		mov	r0, r4
 1181 0054 FFF7FEFF 		bl	_ZN3i2c9WriteByteEhhh
 1182              	.LVL138:
 558:Laser.c       ****     I2C.WriteByte(dev_,0x80, 0x00);
 1183              		.loc 1 558 0
 1184 0058 0023     		movs	r3, #0
 1185 005a 8022     		movs	r2, #128
 1186 005c 2179     		ldrb	r1, [r4, #4]	@ zero_extendqisi2
 1187 005e 2046     		mov	r0, r4
 1188 0060 FFF7FEFF 		bl	_ZN3i2c9WriteByteEhhh
 1189              	.LVL139:
 1190 0064 10BD     		pop	{r4, pc}
 1191              		.cfi_endproc
 1192              	.LFE89:
 1193              		.fnend
 1194              		.size	_ZN5Laser7I2CInitEv, .-_ZN5Laser7I2CInitEv
 1195              		.global	__aeabi_fcmplt
 1196              		.global	__aeabi_f2d
 1197              		.global	__aeabi_dcmpgt
 1198              		.global	__aeabi_fmul
 1199              		.global	__aeabi_f2uiz
 1200 0066 00BF     		.section	.text._ZN5Laser18setSignalRateLimitEf,"ax",%progbits
 1201              		.align	2
 1202              		.global	_ZN5Laser18setSignalRateLimitEf
 1203              		.thumb
 1204              		.thumb_func
 1205              		.type	_ZN5Laser18setSignalRateLimitEf, %function
 1206              	_ZN5Laser18setSignalRateLimitEf:
 1207              		.fnstart
 1208              	.LFB90:
 559:Laser.c       **** }
ARM GAS  C:\Users\hejmi\AppData\Local\Temp\ccFM6jcL.s 			page 32


 560:Laser.c       **** /************************************************
 561:Laser.c       **** // Set the return signal rate limit check value in units of MCPS (mega counts
 562:Laser.c       **** // per second). "This represents the amplitude of the signal reflected from the
 563:Laser.c       **** // target and detected by the device"; setting this limit presumably determines
 564:Laser.c       **** // the minimum measurement necessary for the sensor to report a valid reading.
 565:Laser.c       **** // Setting a lower limit increases the potential range of the sensor but also
 566:Laser.c       **** // seems to increase the likelihood of getting an inaccurate reading because of
 567:Laser.c       **** // unwanted reflections from objects other than the intended target.
 568:Laser.c       **** // Defaults to 0.25 MCPS as initialized by the ST API and this library.
 569:Laser.c       **** *************************************************/
 570:Laser.c       **** bool Laser::setSignalRateLimit(float limit_Mcps)
 571:Laser.c       **** {
 1209              		.loc 1 571 0
 1210              		.cfi_startproc
 1211              		@ args = 0, pretend = 0, frame = 8
 1212              		@ frame_needed = 0, uses_anonymous_args = 0
 1213              	.LVL140:
 1214 0000 30B5     		push	{r4, r5, lr}
 1215              		.save {r4, r5, lr}
 1216              		.cfi_def_cfa_offset 12
 1217              		.cfi_offset 4, -12
 1218              		.cfi_offset 5, -8
 1219              		.cfi_offset 14, -4
 1220              		.pad #20
 1221 0002 85B0     		sub	sp, sp, #20
 1222              		.cfi_def_cfa_offset 32
 1223 0004 0546     		mov	r5, r0
 1224 0006 0C46     		mov	r4, r1
 572:Laser.c       ****     if (limit_Mcps < 0 || limit_Mcps > 511.99) { return false; }
 1225              		.loc 1 572 0
 1226 0008 0021     		movs	r1, #0
 1227              	.LVL141:
 1228 000a 2046     		mov	r0, r4
 1229              	.LVL142:
 1230 000c FFF7FEFF 		bl	__aeabi_fcmplt
 1231              	.LVL143:
 1232 0010 F8B9     		cbnz	r0, .L28
 1233              		.loc 1 572 0 is_stmt 0 discriminator 2
 1234 0012 2046     		mov	r0, r4
 1235 0014 FFF7FEFF 		bl	__aeabi_f2d
 1236              	.LVL144:
 1237 0018 11A3     		adr	r3, .L31
 1238 001a D3E90023 		ldrd	r2, [r3]
 1239 001e FFF7FEFF 		bl	__aeabi_dcmpgt
 1240              	.LVL145:
 1241 0022 C0B9     		cbnz	r0, .L29
 573:Laser.c       **** 
 574:Laser.c       ****     // Q9.7 fixed point format (9 integer bits, 7 fractional bits)
 575:Laser.c       ****     uint8_t tmparray[2]={0,0};
 576:Laser.c       ****     uint16_t tmp = limit_Mcps * (1 << 7);
 1242              		.loc 1 576 0 is_stmt 1
 1243 0024 4FF08641 		mov	r1, #1124073472
 1244 0028 2046     		mov	r0, r4
 1245 002a FFF7FEFF 		bl	__aeabi_fmul
 1246              	.LVL146:
 1247 002e FFF7FEFF 		bl	__aeabi_f2uiz
 1248              	.LVL147:
ARM GAS  C:\Users\hejmi\AppData\Local\Temp\ccFM6jcL.s 			page 33


 1249 0032 80B2     		uxth	r0, r0
 1250              	.LVL148:
 577:Laser.c       ****     tmparray[0] = tmp & 0xff;   // Low
 1251              		.loc 1 577 0
 1252 0034 8DF80C00 		strb	r0, [sp, #12]
 578:Laser.c       ****     tmparray[1] = (tmp >> 8);   // High
 1253              		.loc 1 578 0
 1254 0038 0012     		asrs	r0, r0, #8
 1255              	.LVL149:
 1256 003a 8DF80D00 		strb	r0, [sp, #13]
 579:Laser.c       ****     I2C.WriteBytes(dev_,68,2,tmparray);
 1257              		.loc 1 579 0
 1258 003e 2979     		ldrb	r1, [r5, #4]	@ zero_extendqisi2
 1259 0040 03AB     		add	r3, sp, #12
 1260 0042 0093     		str	r3, [sp]
 1261 0044 0223     		movs	r3, #2
 1262 0046 4422     		movs	r2, #68
 1263 0048 2846     		mov	r0, r5
 1264 004a FFF7FEFF 		bl	_ZN3i2c10WriteBytesEhhhPh
 1265              	.LVL150:
 580:Laser.c       ****     
 581:Laser.c       ****     return true;
 1266              		.loc 1 581 0
 1267 004e 0120     		movs	r0, #1
 1268 0050 02E0     		b	.L27
 1269              	.L28:
 572:Laser.c       **** 
 1270              		.loc 1 572 0
 1271 0052 0020     		movs	r0, #0
 1272 0054 00E0     		b	.L27
 1273              	.L29:
 1274 0056 0020     		movs	r0, #0
 1275              	.L27:
 582:Laser.c       **** }
 1276              		.loc 1 582 0
 1277 0058 05B0     		add	sp, sp, #20
 1278              		.cfi_def_cfa_offset 12
 1279              		@ sp needed
 1280 005a 30BD     		pop	{r4, r5, pc}
 1281              	.LVL151:
 1282              	.L32:
 1283 005c AFF30080 		.align	3
 1284              	.L31:
 1285 0060 A4703D0A 		.word	171798692
 1286 0064 D7FF7F40 		.word	1082130391
 1287              		.cfi_endproc
 1288              	.LFE90:
 1289              		.fnend
 1290              		.size	_ZN5Laser18setSignalRateLimitEf, .-_ZN5Laser18setSignalRateLimitEf
 1291              		.section	.text._ZN5Laser8DataInitEb,"ax",%progbits
 1292              		.align	2
 1293              		.global	_ZN5Laser8DataInitEb
 1294              		.thumb
 1295              		.thumb_func
 1296              		.type	_ZN5Laser8DataInitEb, %function
 1297              	_ZN5Laser8DataInitEb:
 1298              		.fnstart
ARM GAS  C:\Users\hejmi\AppData\Local\Temp\ccFM6jcL.s 			page 34


 1299              	.LFB88:
 525:Laser.c       ****     // sensor uses 1V8 mode for I/O by default; switch to 2V8 mode if necessary
 1300              		.loc 1 525 0
 1301              		.cfi_startproc
 1302              		@ args = 0, pretend = 0, frame = 8
 1303              		@ frame_needed = 0, uses_anonymous_args = 0
 1304              	.LVL152:
 1305 0000 10B5     		push	{r4, lr}
 1306              		.save {r4, lr}
 1307              		.cfi_def_cfa_offset 8
 1308              		.cfi_offset 4, -8
 1309              		.cfi_offset 14, -4
 1310              		.pad #8
 1311 0002 82B0     		sub	sp, sp, #8
 1312              		.cfi_def_cfa_offset 16
 1313 0004 0446     		mov	r4, r0
 1314              	.LBB4:
 527:Laser.c       ****     {
 1315              		.loc 1 527 0
 1316 0006 71B1     		cbz	r1, .L34
 1317              	.LBB5:
 530:Laser.c       ****         I2C.WriteByte(dev_,VHV_CONFIG_PAD_SCL_SDA__EXTSUP_HV,
 1318              		.loc 1 530 0
 1319 0008 0DF10603 		add	r3, sp, #6
 1320 000c 8922     		movs	r2, #137
 1321 000e 0179     		ldrb	r1, [r0, #4]	@ zero_extendqisi2
 1322              	.LVL153:
 1323 0010 FFF7FEFF 		bl	_ZN3i2c8ReadByteEhhPh
 1324              	.LVL154:
 531:Laser.c       ****         tmp | 0x01); // set bit 0
 1325              		.loc 1 531 0
 1326 0014 9DF80630 		ldrb	r3, [sp, #6]	@ zero_extendqisi2
 532:Laser.c       ****     }
 1327              		.loc 1 532 0
 1328 0018 43F00103 		orr	r3, r3, #1
 1329 001c 8922     		movs	r2, #137
 1330 001e 2179     		ldrb	r1, [r4, #4]	@ zero_extendqisi2
 1331 0020 2046     		mov	r0, r4
 1332 0022 FFF7FEFF 		bl	_ZN3i2c9WriteByteEhhh
 1333              	.LVL155:
 1334              	.L34:
 1335              	.LBE5:
 1336              	.LBE4:
 536:Laser.c       ****     
 1337              		.loc 1 536 0
 1338 0026 2046     		mov	r0, r4
 1339 0028 FFF7FEFF 		bl	_ZN5Laser7I2CInitEv
 1340              	.LVL156:
 540:Laser.c       ****     I2C.WriteByte(dev_,MSRC_CONFIG_CONTROL, data | 0x12);
 1341              		.loc 1 540 0
 1342 002c 0DF10703 		add	r3, sp, #7
 1343 0030 6022     		movs	r2, #96
 1344 0032 2179     		ldrb	r1, [r4, #4]	@ zero_extendqisi2
 1345 0034 2046     		mov	r0, r4
 1346 0036 FFF7FEFF 		bl	_ZN3i2c8ReadByteEhhPh
 1347              	.LVL157:
 541:Laser.c       **** 
ARM GAS  C:\Users\hejmi\AppData\Local\Temp\ccFM6jcL.s 			page 35


 1348              		.loc 1 541 0
 1349 003a 9DF80730 		ldrb	r3, [sp, #7]	@ zero_extendqisi2
 1350 003e 43F01203 		orr	r3, r3, #18
 1351 0042 6022     		movs	r2, #96
 1352 0044 2179     		ldrb	r1, [r4, #4]	@ zero_extendqisi2
 1353 0046 2046     		mov	r0, r4
 1354 0048 FFF7FEFF 		bl	_ZN3i2c9WriteByteEhhh
 1355              	.LVL158:
 544:Laser.c       ****     I2C.WriteByte(dev_,SYSTEM_SEQUENCE_CONFIG, 0xFF);
 1356              		.loc 1 544 0
 1357 004c 4FF07A51 		mov	r1, #1048576000
 1358 0050 2046     		mov	r0, r4
 1359 0052 FFF7FEFF 		bl	_ZN5Laser18setSignalRateLimitEf
 1360              	.LVL159:
 545:Laser.c       **** }
 1361              		.loc 1 545 0
 1362 0056 FF23     		movs	r3, #255
 1363 0058 0122     		movs	r2, #1
 1364 005a 2179     		ldrb	r1, [r4, #4]	@ zero_extendqisi2
 1365 005c 2046     		mov	r0, r4
 1366 005e FFF7FEFF 		bl	_ZN3i2c9WriteByteEhhh
 1367              	.LVL160:
 546:Laser.c       **** 
 1368              		.loc 1 546 0
 1369 0062 02B0     		add	sp, sp, #8
 1370              		.cfi_def_cfa_offset 8
 1371              		@ sp needed
 1372 0064 10BD     		pop	{r4, pc}
 1373              		.cfi_endproc
 1374              	.LFE88:
 1375              		.fnend
 1376              		.size	_ZN5Laser8DataInitEb, .-_ZN5Laser8DataInitEb
 1377 0066 00BF     		.section	.text._ZN5Laser11getSpadInfoEPhPb,"ax",%progbits
 1378              		.align	2
 1379              		.global	_ZN5Laser11getSpadInfoEPhPb
 1380              		.thumb
 1381              		.thumb_func
 1382              		.type	_ZN5Laser11getSpadInfoEPhPb, %function
 1383              	_ZN5Laser11getSpadInfoEPhPb:
 1384              		.fnstart
 1385              	.LFB91:
 583:Laser.c       **** 
 584:Laser.c       **** // Get reference SPAD (single photon avalanche diode) count and type
 585:Laser.c       **** // based on VL53L0X_get_info_from_device(),
 586:Laser.c       **** // but only gets reference SPAD count and type
 587:Laser.c       **** bool Laser::getSpadInfo(uint8_t * count, bool * type_is_aperture)
 588:Laser.c       **** {
 1386              		.loc 1 588 0
 1387              		.cfi_startproc
 1388              		@ args = 0, pretend = 0, frame = 8
 1389              		@ frame_needed = 0, uses_anonymous_args = 0
 1390              	.LVL161:
 1391 0000 F0B5     		push	{r4, r5, r6, r7, lr}
 1392              		.save {r4, r5, r6, r7, lr}
 1393              		.cfi_def_cfa_offset 20
 1394              		.cfi_offset 4, -20
 1395              		.cfi_offset 5, -16
ARM GAS  C:\Users\hejmi\AppData\Local\Temp\ccFM6jcL.s 			page 36


 1396              		.cfi_offset 6, -12
 1397              		.cfi_offset 7, -8
 1398              		.cfi_offset 14, -4
 1399              		.pad #12
 1400 0002 83B0     		sub	sp, sp, #12
 1401              		.cfi_def_cfa_offset 32
 1402 0004 0446     		mov	r4, r0
 1403 0006 0F46     		mov	r7, r1
 1404 0008 1646     		mov	r6, r2
 589:Laser.c       ****   uint8_t tmp;
 590:Laser.c       **** 
 591:Laser.c       ****   I2C.WriteByte(dev_,0x80, 0x01);
 1405              		.loc 1 591 0
 1406 000a 0546     		mov	r5, r0
 1407 000c 0123     		movs	r3, #1
 1408 000e 8022     		movs	r2, #128
 1409              	.LVL162:
 1410 0010 0179     		ldrb	r1, [r0, #4]	@ zero_extendqisi2
 1411              	.LVL163:
 1412 0012 FFF7FEFF 		bl	_ZN3i2c9WriteByteEhhh
 1413              	.LVL164:
 592:Laser.c       ****   I2C.WriteByte(dev_,0xFF, 0x01);
 1414              		.loc 1 592 0
 1415 0016 0123     		movs	r3, #1
 1416 0018 FF22     		movs	r2, #255
 1417 001a 2179     		ldrb	r1, [r4, #4]	@ zero_extendqisi2
 1418 001c 2046     		mov	r0, r4
 1419 001e FFF7FEFF 		bl	_ZN3i2c9WriteByteEhhh
 1420              	.LVL165:
 593:Laser.c       ****   I2C.WriteByte(dev_,0x00, 0x00);
 1421              		.loc 1 593 0
 1422 0022 0023     		movs	r3, #0
 1423 0024 1A46     		mov	r2, r3
 1424 0026 2179     		ldrb	r1, [r4, #4]	@ zero_extendqisi2
 1425 0028 2046     		mov	r0, r4
 1426 002a FFF7FEFF 		bl	_ZN3i2c9WriteByteEhhh
 1427              	.LVL166:
 594:Laser.c       **** 
 595:Laser.c       ****   I2C.WriteByte(dev_,0xFF, 0x06);
 1428              		.loc 1 595 0
 1429 002e 0623     		movs	r3, #6
 1430 0030 FF22     		movs	r2, #255
 1431 0032 2179     		ldrb	r1, [r4, #4]	@ zero_extendqisi2
 1432 0034 2046     		mov	r0, r4
 1433 0036 FFF7FEFF 		bl	_ZN3i2c9WriteByteEhhh
 1434              	.LVL167:
 596:Laser.c       ****   I2C.ReadByte(dev_,0x83,&tmp);
 1435              		.loc 1 596 0
 1436 003a 0DF10703 		add	r3, sp, #7
 1437 003e 8322     		movs	r2, #131
 1438 0040 2179     		ldrb	r1, [r4, #4]	@ zero_extendqisi2
 1439 0042 2046     		mov	r0, r4
 1440 0044 FFF7FEFF 		bl	_ZN3i2c8ReadByteEhhPh
 1441              	.LVL168:
 597:Laser.c       ****   I2C.WriteByte(dev_,0x83, tmp | 0x04);
 1442              		.loc 1 597 0
 1443 0048 9DF80730 		ldrb	r3, [sp, #7]	@ zero_extendqisi2
ARM GAS  C:\Users\hejmi\AppData\Local\Temp\ccFM6jcL.s 			page 37


 1444 004c 43F00403 		orr	r3, r3, #4
 1445 0050 8322     		movs	r2, #131
 1446 0052 2179     		ldrb	r1, [r4, #4]	@ zero_extendqisi2
 1447 0054 2046     		mov	r0, r4
 1448 0056 FFF7FEFF 		bl	_ZN3i2c9WriteByteEhhh
 1449              	.LVL169:
 598:Laser.c       ****   I2C.WriteByte(dev_,0xFF, 0x07);
 1450              		.loc 1 598 0
 1451 005a 0723     		movs	r3, #7
 1452 005c FF22     		movs	r2, #255
 1453 005e 2179     		ldrb	r1, [r4, #4]	@ zero_extendqisi2
 1454 0060 2046     		mov	r0, r4
 1455 0062 FFF7FEFF 		bl	_ZN3i2c9WriteByteEhhh
 1456              	.LVL170:
 599:Laser.c       ****   I2C.WriteByte(dev_,0x81, 0x01);
 1457              		.loc 1 599 0
 1458 0066 0123     		movs	r3, #1
 1459 0068 8122     		movs	r2, #129
 1460 006a 2179     		ldrb	r1, [r4, #4]	@ zero_extendqisi2
 1461 006c 2046     		mov	r0, r4
 1462 006e FFF7FEFF 		bl	_ZN3i2c9WriteByteEhhh
 1463              	.LVL171:
 600:Laser.c       **** 
 601:Laser.c       ****   I2C.WriteByte(dev_,0x80, 0x01);
 1464              		.loc 1 601 0
 1465 0072 0123     		movs	r3, #1
 1466 0074 8022     		movs	r2, #128
 1467 0076 2179     		ldrb	r1, [r4, #4]	@ zero_extendqisi2
 1468 0078 2046     		mov	r0, r4
 1469 007a FFF7FEFF 		bl	_ZN3i2c9WriteByteEhhh
 1470              	.LVL172:
 602:Laser.c       **** 
 603:Laser.c       ****   I2C.WriteByte(dev_,0x94, 0x6b);
 1471              		.loc 1 603 0
 1472 007e 6B23     		movs	r3, #107
 1473 0080 9422     		movs	r2, #148
 1474 0082 2179     		ldrb	r1, [r4, #4]	@ zero_extendqisi2
 1475 0084 2046     		mov	r0, r4
 1476 0086 FFF7FEFF 		bl	_ZN3i2c9WriteByteEhhh
 1477              	.LVL173:
 604:Laser.c       ****   I2C.WriteByte(dev_,0x83, 0x00);
 1478              		.loc 1 604 0
 1479 008a 0023     		movs	r3, #0
 1480 008c 8322     		movs	r2, #131
 1481 008e 2179     		ldrb	r1, [r4, #4]	@ zero_extendqisi2
 1482 0090 2046     		mov	r0, r4
 1483 0092 FFF7FEFF 		bl	_ZN3i2c9WriteByteEhhh
 1484              	.LVL174:
 605:Laser.c       ****   //startTimeout(); Most likely a failswitch for deadlock
 606:Laser.c       ****   tmp = 0x00;
 1485              		.loc 1 606 0
 1486 0096 0023     		movs	r3, #0
 1487 0098 8DF80730 		strb	r3, [sp, #7]
 1488              	.L38:
 607:Laser.c       ****   while (tmp == 0x00)
 1489              		.loc 1 607 0
 1490 009c 9DF80730 		ldrb	r3, [sp, #7]	@ zero_extendqisi2
ARM GAS  C:\Users\hejmi\AppData\Local\Temp\ccFM6jcL.s 			page 38


 1491 00a0 3BB9     		cbnz	r3, .L37
 608:Laser.c       ****   {
 609:Laser.c       ****     I2C.ReadByte(dev_,0x83,&tmp);
 1492              		.loc 1 609 0
 1493 00a2 0DF10703 		add	r3, sp, #7
 1494 00a6 8322     		movs	r2, #131
 1495 00a8 2179     		ldrb	r1, [r4, #4]	@ zero_extendqisi2
 1496 00aa 2846     		mov	r0, r5
 1497 00ac FFF7FEFF 		bl	_ZN3i2c8ReadByteEhhPh
 1498              	.LVL175:
 1499 00b0 F4E7     		b	.L38
 1500              	.L37:
 610:Laser.c       ****     //if (checkTimeoutExpired()) { return false; }
 611:Laser.c       ****   }
 612:Laser.c       ****   I2C.WriteByte(dev_,0x83, 0x01);
 1501              		.loc 1 612 0
 1502 00b2 0123     		movs	r3, #1
 1503 00b4 8322     		movs	r2, #131
 1504 00b6 2179     		ldrb	r1, [r4, #4]	@ zero_extendqisi2
 1505 00b8 2046     		mov	r0, r4
 1506 00ba FFF7FEFF 		bl	_ZN3i2c9WriteByteEhhh
 1507              	.LVL176:
 613:Laser.c       ****   I2C.ReadByte(dev_,0x92,&tmp);
 1508              		.loc 1 613 0
 1509 00be 0DF10703 		add	r3, sp, #7
 1510 00c2 9222     		movs	r2, #146
 1511 00c4 2179     		ldrb	r1, [r4, #4]	@ zero_extendqisi2
 1512 00c6 2046     		mov	r0, r4
 1513 00c8 FFF7FEFF 		bl	_ZN3i2c8ReadByteEhhPh
 1514              	.LVL177:
 614:Laser.c       ****   //tmp = readReg(0x92); ^
 615:Laser.c       **** 
 616:Laser.c       ****   *count = tmp & 0x7f;
 1515              		.loc 1 616 0
 1516 00cc 9DF80730 		ldrb	r3, [sp, #7]	@ zero_extendqisi2
 1517 00d0 03F07F02 		and	r2, r3, #127
 1518 00d4 3A70     		strb	r2, [r7]
 617:Laser.c       ****   *type_is_aperture = (tmp >> 7) & 0x01;
 1519              		.loc 1 617 0
 1520 00d6 DB09     		lsrs	r3, r3, #7
 1521 00d8 3370     		strb	r3, [r6]
 618:Laser.c       **** 
 619:Laser.c       ****   I2C.WriteByte(dev_,0x81, 0x00);
 1522              		.loc 1 619 0
 1523 00da 0023     		movs	r3, #0
 1524 00dc 8122     		movs	r2, #129
 1525 00de 2179     		ldrb	r1, [r4, #4]	@ zero_extendqisi2
 1526 00e0 2046     		mov	r0, r4
 1527 00e2 FFF7FEFF 		bl	_ZN3i2c9WriteByteEhhh
 1528              	.LVL178:
 620:Laser.c       ****   I2C.WriteByte(dev_,0xFF, 0x06);
 1529              		.loc 1 620 0
 1530 00e6 0623     		movs	r3, #6
 1531 00e8 FF22     		movs	r2, #255
 1532 00ea 2179     		ldrb	r1, [r4, #4]	@ zero_extendqisi2
 1533 00ec 2046     		mov	r0, r4
 1534 00ee FFF7FEFF 		bl	_ZN3i2c9WriteByteEhhh
ARM GAS  C:\Users\hejmi\AppData\Local\Temp\ccFM6jcL.s 			page 39


 1535              	.LVL179:
 621:Laser.c       ****   I2C.ReadByte(dev_,0x83,&tmp);
 1536              		.loc 1 621 0
 1537 00f2 0DF10703 		add	r3, sp, #7
 1538 00f6 8322     		movs	r2, #131
 1539 00f8 2179     		ldrb	r1, [r4, #4]	@ zero_extendqisi2
 1540 00fa 2046     		mov	r0, r4
 1541 00fc FFF7FEFF 		bl	_ZN3i2c8ReadByteEhhPh
 1542              	.LVL180:
 622:Laser.c       ****   I2C.WriteByte(dev_,0x83, tmp  & ~0x04);
 1543              		.loc 1 622 0
 1544 0100 9DF80730 		ldrb	r3, [sp, #7]	@ zero_extendqisi2
 1545 0104 03F0FB03 		and	r3, r3, #251
 1546 0108 8322     		movs	r2, #131
 1547 010a 2179     		ldrb	r1, [r4, #4]	@ zero_extendqisi2
 1548 010c 2046     		mov	r0, r4
 1549 010e FFF7FEFF 		bl	_ZN3i2c9WriteByteEhhh
 1550              	.LVL181:
 623:Laser.c       ****   I2C.WriteByte(dev_,0xFF, 0x01);
 1551              		.loc 1 623 0
 1552 0112 0123     		movs	r3, #1
 1553 0114 FF22     		movs	r2, #255
 1554 0116 2179     		ldrb	r1, [r4, #4]	@ zero_extendqisi2
 1555 0118 2046     		mov	r0, r4
 1556 011a FFF7FEFF 		bl	_ZN3i2c9WriteByteEhhh
 1557              	.LVL182:
 624:Laser.c       ****   I2C.WriteByte(dev_,0x00, 0x01);
 1558              		.loc 1 624 0
 1559 011e 0123     		movs	r3, #1
 1560 0120 0022     		movs	r2, #0
 1561 0122 2179     		ldrb	r1, [r4, #4]	@ zero_extendqisi2
 1562 0124 2046     		mov	r0, r4
 1563 0126 FFF7FEFF 		bl	_ZN3i2c9WriteByteEhhh
 1564              	.LVL183:
 625:Laser.c       **** 
 626:Laser.c       ****   I2C.WriteByte(dev_,0xFF, 0x00);
 1565              		.loc 1 626 0
 1566 012a 0023     		movs	r3, #0
 1567 012c FF22     		movs	r2, #255
 1568 012e 2179     		ldrb	r1, [r4, #4]	@ zero_extendqisi2
 1569 0130 2046     		mov	r0, r4
 1570 0132 FFF7FEFF 		bl	_ZN3i2c9WriteByteEhhh
 1571              	.LVL184:
 627:Laser.c       ****   I2C.WriteByte(dev_,0x80, 0x00);
 1572              		.loc 1 627 0
 1573 0136 0023     		movs	r3, #0
 1574 0138 8022     		movs	r2, #128
 1575 013a 2179     		ldrb	r1, [r4, #4]	@ zero_extendqisi2
 1576 013c 2046     		mov	r0, r4
 1577 013e FFF7FEFF 		bl	_ZN3i2c9WriteByteEhhh
 1578              	.LVL185:
 628:Laser.c       **** 
 629:Laser.c       ****   return true;
 630:Laser.c       **** }
 1579              		.loc 1 630 0
 1580 0142 0120     		movs	r0, #1
 1581 0144 03B0     		add	sp, sp, #12
ARM GAS  C:\Users\hejmi\AppData\Local\Temp\ccFM6jcL.s 			page 40


 1582              		.cfi_def_cfa_offset 20
 1583              		@ sp needed
 1584 0146 F0BD     		pop	{r4, r5, r6, r7, pc}
 1585              		.cfi_endproc
 1586              	.LFE91:
 1587              		.fnend
 1588              		.size	_ZN5Laser11getSpadInfoEPhPb, .-_ZN5Laser11getSpadInfoEPhPb
 1589              		.section	.text._ZN5Laser26timeoutMclksToMicrosecondsEth,"ax",%progbits
 1590              		.align	2
 1591              		.global	_ZN5Laser26timeoutMclksToMicrosecondsEth
 1592              		.thumb
 1593              		.thumb_func
 1594              		.type	_ZN5Laser26timeoutMclksToMicrosecondsEth, %function
 1595              	_ZN5Laser26timeoutMclksToMicrosecondsEth:
 1596              		.fnstart
 1597              	.LFB92:
 631:Laser.c       **** 
 632:Laser.c       **** // Convert sequence step timeout from MCLKs to microseconds with given VCSEL period in PCLKs
 633:Laser.c       **** // based on VL53L0X_calc_timeout_us()
 634:Laser.c       **** uint32_t Laser::timeoutMclksToMicroseconds(uint16_t timeout_period_mclks, uint8_t vcsel_period_pclk
 635:Laser.c       **** {
 1598              		.loc 1 635 0
 1599              		.cfi_startproc
 1600              		@ args = 0, pretend = 0, frame = 0
 1601              		@ frame_needed = 0, uses_anonymous_args = 0
 1602              		@ link register save eliminated.
 1603              	.LVL186:
 636:Laser.c       ****   uint32_t macro_period_ns = calcMacroPeriod(vcsel_period_pclks);
 1604              		.loc 1 636 0
 1605 0000 074B     		ldr	r3, .L41
 1606 0002 03FB02F2 		mul	r2, r3, r2
 1607              	.LVL187:
 1608 0006 02F5FA72 		add	r2, r2, #500
 1609 000a 0648     		ldr	r0, .L41+4
 1610              	.LVL188:
 1611 000c A0FB0232 		umull	r3, r2, r0, r2
 1612 0010 9309     		lsrs	r3, r2, #6
 1613              	.LVL189:
 637:Laser.c       ****   return ((timeout_period_mclks * macro_period_ns) + (macro_period_ns / 2)) / 1000;
 1614              		.loc 1 637 0
 1615 0012 D209     		lsrs	r2, r2, #7
 1616 0014 03FB0121 		mla	r1, r3, r1, r2
 1617              	.LVL190:
 1618 0018 A0FB0130 		umull	r3, r0, r0, r1
 1619              	.LVL191:
 638:Laser.c       **** }
 1620              		.loc 1 638 0
 1621 001c 8009     		lsrs	r0, r0, #6
 1622 001e 7047     		bx	lr
 1623              	.L42:
 1624              		.align	2
 1625              	.L41:
 1626 0020 002F3A00 		.word	3813120
 1627 0024 D34D6210 		.word	274877907
 1628              		.cfi_endproc
 1629              	.LFE92:
 1630              		.cantunwind
ARM GAS  C:\Users\hejmi\AppData\Local\Temp\ccFM6jcL.s 			page 41


 1631              		.fnend
 1632              		.size	_ZN5Laser26timeoutMclksToMicrosecondsEth, .-_ZN5Laser26timeoutMclksToMicrosecondsEth
 1633              		.section	.text._ZN5Laser23getSequenceStepTimeoutsEPK19SequenceStepEnablesP20SequenceStepTimeouts,"
 1634              		.align	2
 1635              		.global	_ZN5Laser23getSequenceStepTimeoutsEPK19SequenceStepEnablesP20SequenceStepTimeouts
 1636              		.thumb
 1637              		.thumb_func
 1638              		.type	_ZN5Laser23getSequenceStepTimeoutsEPK19SequenceStepEnablesP20SequenceStepTimeouts, %function
 1639              	_ZN5Laser23getSequenceStepTimeoutsEPK19SequenceStepEnablesP20SequenceStepTimeouts:
 1640              		.fnstart
 1641              	.LFB83:
 361:Laser.c       ****   uint8_t tmpdata;
 1642              		.loc 1 361 0
 1643              		.cfi_startproc
 1644              		@ args = 0, pretend = 0, frame = 8
 1645              		@ frame_needed = 0, uses_anonymous_args = 0
 1646              	.LVL192:
 1647 0000 F0B5     		push	{r4, r5, r6, r7, lr}
 1648              		.save {r4, r5, r6, r7, lr}
 1649              		.cfi_def_cfa_offset 20
 1650              		.cfi_offset 4, -20
 1651              		.cfi_offset 5, -16
 1652              		.cfi_offset 6, -12
 1653              		.cfi_offset 7, -8
 1654              		.cfi_offset 14, -4
 1655              		.pad #20
 1656 0002 85B0     		sub	sp, sp, #20
 1657              		.cfi_def_cfa_offset 40
 1658 0004 0546     		mov	r5, r0
 1659 0006 0F46     		mov	r7, r1
 1660 0008 1446     		mov	r4, r2
 363:Laser.c       **** 
 1661              		.loc 1 363 0
 1662 000a 0021     		movs	r1, #0
 1663              	.LVL193:
 1664 000c FFF7FEFF 		bl	_ZN5Laser19getVcselPulsePeriodE15vcselPeriodType
 1665              	.LVL194:
 1666 0010 2080     		strh	r0, [r4]	@ movhi
 365:Laser.c       ****   timeouts->msrc_dss_tcc_mclks = tmpdata + 1;
 1667              		.loc 1 365 0
 1668 0012 2979     		ldrb	r1, [r5, #4]	@ zero_extendqisi2
 1669 0014 0DF10F03 		add	r3, sp, #15
 1670 0018 0093     		str	r3, [sp]
 1671 001a 0123     		movs	r3, #1
 1672 001c 4622     		movs	r2, #70
 1673 001e 2846     		mov	r0, r5
 1674 0020 FFF7FEFF 		bl	_ZN3i2c9ReadBytesEhhhPh
 1675              	.LVL195:
 366:Laser.c       ****   timeouts->msrc_dss_tcc_us =
 1676              		.loc 1 366 0
 1677 0024 9DF80F10 		ldrb	r1, [sp, #15]	@ zero_extendqisi2
 1678 0028 0131     		adds	r1, r1, #1
 1679 002a A180     		strh	r1, [r4, #4]	@ movhi
 368:Laser.c       ****                                timeouts->pre_range_vcsel_period_pclks);
 1680              		.loc 1 368 0
 1681 002c 2278     		ldrb	r2, [r4]	@ zero_extendqisi2
 1682 002e 2846     		mov	r0, r5
ARM GAS  C:\Users\hejmi\AppData\Local\Temp\ccFM6jcL.s 			page 42


 1683 0030 FFF7FEFF 		bl	_ZN5Laser26timeoutMclksToMicrosecondsEth
 1684              	.LVL196:
 369:Laser.c       **** 
 1685              		.loc 1 369 0
 1686 0034 E060     		str	r0, [r4, #12]
 1687              	.LVL197:
 373:Laser.c       ****   tmp16bit = (tmp8bit[0] << 8) + tmp8bit[1];
 1688              		.loc 1 373 0
 1689 0036 2979     		ldrb	r1, [r5, #4]	@ zero_extendqisi2
 1690 0038 03AE     		add	r6, sp, #12
 1691 003a 0096     		str	r6, [sp]
 1692 003c 0223     		movs	r3, #2
 1693 003e 5122     		movs	r2, #81
 1694 0040 2846     		mov	r0, r5
 1695 0042 FFF7FEFF 		bl	_ZN3i2c9ReadBytesEhhhPh
 1696              	.LVL198:
 374:Laser.c       **** 
 1697              		.loc 1 374 0
 1698 0046 9DF80C10 		ldrb	r1, [sp, #12]	@ zero_extendqisi2
 1699 004a 9DF80D30 		ldrb	r3, [sp, #13]	@ zero_extendqisi2
 1700 004e 03EB0121 		add	r1, r3, r1, lsl #8
 1701              	.LVL199:
 377:Laser.c       ****   timeouts->pre_range_us =
 1702              		.loc 1 377 0
 1703 0052 89B2     		uxth	r1, r1
 1704 0054 2846     		mov	r0, r5
 1705 0056 FFF7FEFF 		bl	_ZN5Laser13decodeTimeoutEt
 1706              	.LVL200:
 1707 005a 0146     		mov	r1, r0
 1708 005c E080     		strh	r0, [r4, #6]	@ movhi
 379:Laser.c       ****                                timeouts->pre_range_vcsel_period_pclks);
 1709              		.loc 1 379 0
 1710 005e 2278     		ldrb	r2, [r4]	@ zero_extendqisi2
 1711 0060 2846     		mov	r0, r5
 1712 0062 FFF7FEFF 		bl	_ZN5Laser26timeoutMclksToMicrosecondsEth
 1713              	.LVL201:
 380:Laser.c       **** 
 1714              		.loc 1 380 0
 1715 0066 2061     		str	r0, [r4, #16]
 382:Laser.c       **** 
 1716              		.loc 1 382 0
 1717 0068 0121     		movs	r1, #1
 1718 006a 2846     		mov	r0, r5
 1719 006c FFF7FEFF 		bl	_ZN5Laser19getVcselPulsePeriodE15vcselPeriodType
 1720              	.LVL202:
 1721 0070 6080     		strh	r0, [r4, #2]	@ movhi
 384:Laser.c       ****   tmp16bit = (tmp8bit[0] << 8) + tmp8bit[1];
 1722              		.loc 1 384 0
 1723 0072 2979     		ldrb	r1, [r5, #4]	@ zero_extendqisi2
 1724 0074 0096     		str	r6, [sp]
 1725 0076 0223     		movs	r3, #2
 1726 0078 7122     		movs	r2, #113
 1727 007a 2846     		mov	r0, r5
 1728 007c FFF7FEFF 		bl	_ZN3i2c9ReadBytesEhhhPh
 1729              	.LVL203:
 385:Laser.c       ****   timeouts->final_range_mclks =
 1730              		.loc 1 385 0
ARM GAS  C:\Users\hejmi\AppData\Local\Temp\ccFM6jcL.s 			page 43


 1731 0080 9DF80C10 		ldrb	r1, [sp, #12]	@ zero_extendqisi2
 1732 0084 9DF80D30 		ldrb	r3, [sp, #13]	@ zero_extendqisi2
 1733 0088 03EB0121 		add	r1, r3, r1, lsl #8
 1734              	.LVL204:
 387:Laser.c       **** 
 1735              		.loc 1 387 0
 1736 008c 89B2     		uxth	r1, r1
 1737 008e 2846     		mov	r0, r5
 1738 0090 FFF7FEFF 		bl	_ZN5Laser13decodeTimeoutEt
 1739              	.LVL205:
 1740 0094 2081     		strh	r0, [r4, #8]	@ movhi
 389:Laser.c       ****   {
 1741              		.loc 1 389 0
 1742 0096 FB78     		ldrb	r3, [r7, #3]	@ zero_extendqisi2
 1743 0098 13B1     		cbz	r3, .L44
 391:Laser.c       ****   }
 1744              		.loc 1 391 0
 1745 009a E388     		ldrh	r3, [r4, #6]
 1746 009c C01A     		subs	r0, r0, r3
 1747 009e 2081     		strh	r0, [r4, #8]	@ movhi
 1748              	.L44:
 395:Laser.c       ****                                timeouts->final_range_vcsel_period_pclks);
 1749              		.loc 1 395 0
 1750 00a0 A278     		ldrb	r2, [r4, #2]	@ zero_extendqisi2
 1751 00a2 2189     		ldrh	r1, [r4, #8]
 1752 00a4 2846     		mov	r0, r5
 1753 00a6 FFF7FEFF 		bl	_ZN5Laser26timeoutMclksToMicrosecondsEth
 1754              	.LVL206:
 396:Laser.c       **** }
 1755              		.loc 1 396 0
 1756 00aa 6061     		str	r0, [r4, #20]
 397:Laser.c       **** 
 1757              		.loc 1 397 0
 1758 00ac 05B0     		add	sp, sp, #20
 1759              		.cfi_def_cfa_offset 20
 1760              		@ sp needed
 1761 00ae F0BD     		pop	{r4, r5, r6, r7, pc}
 1762              		.cfi_endproc
 1763              	.LFE83:
 1764              		.fnend
 1765              		.size	_ZN5Laser23getSequenceStepTimeoutsEPK19SequenceStepEnablesP20SequenceStepTimeouts, .-_ZN5Las
 1766              		.section	.text._ZN5Laser26getMeasurementTimingBudgetEv,"ax",%progbits
 1767              		.align	2
 1768              		.global	_ZN5Laser26getMeasurementTimingBudgetEv
 1769              		.thumb
 1770              		.thumb_func
 1771              		.type	_ZN5Laser26getMeasurementTimingBudgetEv, %function
 1772              	_ZN5Laser26getMeasurementTimingBudgetEv:
 1773              		.fnstart
 1774              	.LFB81:
 296:Laser.c       ****   SequenceStepEnables enables;
 1775              		.loc 1 296 0
 1776              		.cfi_startproc
 1777              		@ args = 0, pretend = 0, frame = 32
 1778              		@ frame_needed = 0, uses_anonymous_args = 0
 1779              	.LVL207:
 1780 0000 10B5     		push	{r4, lr}
ARM GAS  C:\Users\hejmi\AppData\Local\Temp\ccFM6jcL.s 			page 44


 1781              		.save {r4, lr}
 1782              		.cfi_def_cfa_offset 8
 1783              		.cfi_offset 4, -8
 1784              		.cfi_offset 14, -4
 1785              		.pad #32
 1786 0002 88B0     		sub	sp, sp, #32
 1787              		.cfi_def_cfa_offset 40
 1788 0004 0446     		mov	r4, r0
 1789              	.LVL208:
 311:Laser.c       ****   getSequenceStepTimeouts(&enables, &timeouts);
 1790              		.loc 1 311 0
 1791 0006 06A9     		add	r1, sp, #24
 1792 0008 FFF7FEFF 		bl	_ZN5Laser22getSequenceStepEnablesEP19SequenceStepEnables
 1793              	.LVL209:
 312:Laser.c       **** 
 1794              		.loc 1 312 0
 1795 000c 6A46     		mov	r2, sp
 1796 000e 06A9     		add	r1, sp, #24
 1797 0010 2046     		mov	r0, r4
 1798 0012 FFF7FEFF 		bl	_ZN5Laser23getSequenceStepTimeoutsEPK19SequenceStepEnablesP20SequenceStepTimeouts
 1799              	.LVL210:
 314:Laser.c       ****   {
 1800              		.loc 1 314 0
 1801 0016 9DF81830 		ldrb	r3, [sp, #24]	@ zero_extendqisi2
 1802 001a 1BB1     		cbz	r3, .L52
 316:Laser.c       ****   }
 1803              		.loc 1 316 0
 1804 001c 0398     		ldr	r0, [sp, #12]
 1805 001e 00F68450 		addw	r0, r0, #3460
 1806              	.LVL211:
 1807 0022 01E0     		b	.L47
 1808              	.LVL212:
 1809              	.L52:
 309:Laser.c       **** 
 1810              		.loc 1 309 0
 1811 0024 40F63630 		movw	r0, #2870
 1812              	.LVL213:
 1813              	.L47:
 319:Laser.c       ****   {
 1814              		.loc 1 319 0
 1815 0028 9DF81A30 		ldrb	r3, [sp, #26]	@ zero_extendqisi2
 1816 002c 2BB1     		cbz	r3, .L48
 321:Laser.c       ****   }
 1817              		.loc 1 321 0
 1818 002e 039B     		ldr	r3, [sp, #12]
 1819 0030 03F2B223 		addw	r3, r3, #690
 1820 0034 00EB4300 		add	r0, r0, r3, lsl #1
 1821              	.LVL214:
 1822 0038 06E0     		b	.L49
 1823              	.L48:
 323:Laser.c       ****   {
 1824              		.loc 1 323 0
 1825 003a 9DF81930 		ldrb	r3, [sp, #25]	@ zero_extendqisi2
 1826 003e 1BB1     		cbz	r3, .L49
 325:Laser.c       ****   }
 1827              		.loc 1 325 0
 1828 0040 039B     		ldr	r3, [sp, #12]
ARM GAS  C:\Users\hejmi\AppData\Local\Temp\ccFM6jcL.s 			page 45


 1829 0042 1844     		add	r0, r0, r3
 1830              	.LVL215:
 1831 0044 00F52570 		add	r0, r0, #660
 1832              	.LVL216:
 1833              	.L49:
 328:Laser.c       ****   {
 1834              		.loc 1 328 0
 1835 0048 9DF81B30 		ldrb	r3, [sp, #27]	@ zero_extendqisi2
 1836 004c 1BB1     		cbz	r3, .L50
 330:Laser.c       ****   }
 1837              		.loc 1 330 0
 1838 004e 049B     		ldr	r3, [sp, #16]
 1839 0050 1844     		add	r0, r0, r3
 1840              	.LVL217:
 1841 0052 00F52570 		add	r0, r0, #660
 1842              	.LVL218:
 1843              	.L50:
 333:Laser.c       ****   {
 1844              		.loc 1 333 0
 1845 0056 9DF81C30 		ldrb	r3, [sp, #28]	@ zero_extendqisi2
 1846 005a 1BB1     		cbz	r3, .L51
 335:Laser.c       ****   }
 1847              		.loc 1 335 0
 1848 005c 059B     		ldr	r3, [sp, #20]
 1849 005e 1844     		add	r0, r0, r3
 1850              	.LVL219:
 1851 0060 00F22620 		addw	r0, r0, #550
 1852              	.LVL220:
 1853              	.L51:
 338:Laser.c       ****   return budget_us;
 1854              		.loc 1 338 0
 1855 0064 A060     		str	r0, [r4, #8]
 340:Laser.c       **** 
 1856              		.loc 1 340 0
 1857 0066 08B0     		add	sp, sp, #32
 1858              		.cfi_def_cfa_offset 8
 1859              		@ sp needed
 1860 0068 10BD     		pop	{r4, pc}
 1861              		.cfi_endproc
 1862              	.LFE81:
 1863              		.fnend
 1864              		.size	_ZN5Laser26getMeasurementTimingBudgetEv, .-_ZN5Laser26getMeasurementTimingBudgetEv
 1865 006a 00BF     		.section	.text._ZN5Laser26timeoutMicrosecondsToMclksEmh,"ax",%progbits
 1866              		.align	2
 1867              		.global	_ZN5Laser26timeoutMicrosecondsToMclksEmh
 1868              		.thumb
 1869              		.thumb_func
 1870              		.type	_ZN5Laser26timeoutMicrosecondsToMclksEmh, %function
 1871              	_ZN5Laser26timeoutMicrosecondsToMclksEmh:
 1872              		.fnstart
 1873              	.LFB93:
 639:Laser.c       **** 
 640:Laser.c       **** // Convert sequence step timeout from microseconds to MCLKs with given VCSEL period in PCLKs
 641:Laser.c       **** // based on VL53L0X_calc_timeout_mclks()
 642:Laser.c       **** uint32_t Laser::timeoutMicrosecondsToMclks(uint32_t timeout_period_us, uint8_t vcsel_period_pclks)
 643:Laser.c       **** {
 1874              		.loc 1 643 0
ARM GAS  C:\Users\hejmi\AppData\Local\Temp\ccFM6jcL.s 			page 46


 1875              		.cfi_startproc
 1876              		@ args = 0, pretend = 0, frame = 0
 1877              		@ frame_needed = 0, uses_anonymous_args = 0
 1878              		@ link register save eliminated.
 1879              	.LVL221:
 644:Laser.c       ****   uint32_t macro_period_ns = calcMacroPeriod(vcsel_period_pclks);
 1880              		.loc 1 644 0
 1881 0000 084B     		ldr	r3, .L55
 1882 0002 03FB02F2 		mul	r2, r3, r2
 1883              	.LVL222:
 1884 0006 02F5FA72 		add	r2, r2, #500
 1885 000a 0748     		ldr	r0, .L55+4
 1886              	.LVL223:
 1887 000c A0FB0232 		umull	r3, r2, r0, r2
 1888 0010 9009     		lsrs	r0, r2, #6
 1889              	.LVL224:
 645:Laser.c       **** 
 646:Laser.c       ****   return (((timeout_period_us * 1000) + (macro_period_ns / 2)) / macro_period_ns);
 1890              		.loc 1 646 0
 1891 0012 D209     		lsrs	r2, r2, #7
 1892 0014 4FF47A73 		mov	r3, #1000
 1893 0018 03FB0121 		mla	r1, r3, r1, r2
 1894              	.LVL225:
 647:Laser.c       **** }
 1895              		.loc 1 647 0
 1896 001c B1FBF0F0 		udiv	r0, r1, r0
 1897              	.LVL226:
 1898 0020 7047     		bx	lr
 1899              	.L56:
 1900 0022 00BF     		.align	2
 1901              	.L55:
 1902 0024 002F3A00 		.word	3813120
 1903 0028 D34D6210 		.word	274877907
 1904              		.cfi_endproc
 1905              	.LFE93:
 1906              		.cantunwind
 1907              		.fnend
 1908              		.size	_ZN5Laser26timeoutMicrosecondsToMclksEmh, .-_ZN5Laser26timeoutMicrosecondsToMclksEmh
 1909              		.section	.text._ZN5Laser27performSingleRefCalibrationEh,"ax",%progbits
 1910              		.align	2
 1911              		.global	_ZN5Laser27performSingleRefCalibrationEh
 1912              		.thumb
 1913              		.thumb_func
 1914              		.type	_ZN5Laser27performSingleRefCalibrationEh, %function
 1915              	_ZN5Laser27performSingleRefCalibrationEh:
 1916              		.fnstart
 1917              	.LFB94:
 648:Laser.c       **** 
 649:Laser.c       **** // based on VL53L0X_perform_single_ref_calibration()
 650:Laser.c       **** bool Laser::performSingleRefCalibration(uint8_t vhv_init_byte)
 651:Laser.c       **** {
 1918              		.loc 1 651 0
 1919              		.cfi_startproc
 1920              		@ args = 0, pretend = 0, frame = 8
 1921              		@ frame_needed = 0, uses_anonymous_args = 0
 1922              	.LVL227:
 1923 0000 30B5     		push	{r4, r5, lr}
ARM GAS  C:\Users\hejmi\AppData\Local\Temp\ccFM6jcL.s 			page 47


 1924              		.save {r4, r5, lr}
 1925              		.cfi_def_cfa_offset 12
 1926              		.cfi_offset 4, -12
 1927              		.cfi_offset 5, -8
 1928              		.cfi_offset 14, -4
 1929              		.pad #12
 1930 0002 83B0     		sub	sp, sp, #12
 1931              		.cfi_def_cfa_offset 24
 1932 0004 0446     		mov	r4, r0
 652:Laser.c       ****   I2C.WriteByte(dev_,SYSRANGE_START, 0x01 | vhv_init_byte); // VL53L0X_REG_SYSRANGE_MODE_START_STOP
 1933              		.loc 1 652 0
 1934 0006 0546     		mov	r5, r0
 1935 0008 41F00103 		orr	r3, r1, #1
 1936 000c 0022     		movs	r2, #0
 1937 000e 0179     		ldrb	r1, [r0, #4]	@ zero_extendqisi2
 1938              	.LVL228:
 1939 0010 FFF7FEFF 		bl	_ZN3i2c9WriteByteEhhh
 1940              	.LVL229:
 653:Laser.c       **** 
 654:Laser.c       ****   //startTimeout();
 655:Laser.c       ****   uint8_t tmp = 0;
 1941              		.loc 1 655 0
 1942 0014 0023     		movs	r3, #0
 1943 0016 8DF80730 		strb	r3, [sp, #7]
 1944              	.L59:
 656:Laser.c       ****   while ((tmp & 0x07) == 0)
 1945              		.loc 1 656 0
 1946 001a 9DF80730 		ldrb	r3, [sp, #7]	@ zero_extendqisi2
 1947 001e 13F0070F 		tst	r3, #7
 1948 0022 07D1     		bne	.L58
 657:Laser.c       ****   {
 658:Laser.c       ****     I2C.ReadByte(dev_,RESULT_INTERRUPT_STATUS,&tmp);
 1949              		.loc 1 658 0
 1950 0024 0DF10703 		add	r3, sp, #7
 1951 0028 1322     		movs	r2, #19
 1952 002a 2179     		ldrb	r1, [r4, #4]	@ zero_extendqisi2
 1953 002c 2846     		mov	r0, r5
 1954 002e FFF7FEFF 		bl	_ZN3i2c8ReadByteEhhPh
 1955              	.LVL230:
 1956 0032 F2E7     		b	.L59
 1957              	.L58:
 659:Laser.c       ****     //if (checkTimeoutExpired()) { return false; }
 660:Laser.c       ****   }
 661:Laser.c       **** 
 662:Laser.c       ****   I2C.WriteByte(dev_,SYSTEM_INTERRUPT_CLEAR, 0x01);
 1958              		.loc 1 662 0
 1959 0034 0123     		movs	r3, #1
 1960 0036 0B22     		movs	r2, #11
 1961 0038 2179     		ldrb	r1, [r4, #4]	@ zero_extendqisi2
 1962 003a 2046     		mov	r0, r4
 1963 003c FFF7FEFF 		bl	_ZN3i2c9WriteByteEhhh
 1964              	.LVL231:
 663:Laser.c       **** 
 664:Laser.c       ****   I2C.WriteByte(dev_,SYSRANGE_START, 0x00);
 1965              		.loc 1 664 0
 1966 0040 0023     		movs	r3, #0
 1967 0042 1A46     		mov	r2, r3
ARM GAS  C:\Users\hejmi\AppData\Local\Temp\ccFM6jcL.s 			page 48


 1968 0044 2179     		ldrb	r1, [r4, #4]	@ zero_extendqisi2
 1969 0046 2046     		mov	r0, r4
 1970 0048 FFF7FEFF 		bl	_ZN3i2c9WriteByteEhhh
 1971              	.LVL232:
 665:Laser.c       **** 
 666:Laser.c       ****   return true;
 667:Laser.c       **** }
 1972              		.loc 1 667 0
 1973 004c 0120     		movs	r0, #1
 1974 004e 03B0     		add	sp, sp, #12
 1975              		.cfi_def_cfa_offset 12
 1976              		@ sp needed
 1977 0050 30BD     		pop	{r4, r5, pc}
 1978              		.cfi_endproc
 1979              	.LFE94:
 1980              		.fnend
 1981              		.size	_ZN5Laser27performSingleRefCalibrationEh, .-_ZN5Laser27performSingleRefCalibrationEh
 1982 0052 00BF     		.section	.text._ZN5Laser21PerformRefCalibrationEv,"ax",%progbits
 1983              		.align	2
 1984              		.global	_ZN5Laser21PerformRefCalibrationEv
 1985              		.thumb
 1986              		.thumb_func
 1987              		.type	_ZN5Laser21PerformRefCalibrationEv, %function
 1988              	_ZN5Laser21PerformRefCalibrationEv:
 1989              		.fnstart
 1990              	.LFB78:
 124:Laser.c       ****     // -- VL53L0X_perform_vhv_calibration() begin
 1991              		.loc 1 124 0
 1992              		.cfi_startproc
 1993              		@ args = 0, pretend = 0, frame = 0
 1994              		@ frame_needed = 0, uses_anonymous_args = 0
 1995              	.LVL233:
 1996 0000 38B5     		push	{r3, r4, r5, lr}
 1997              		.save {r3, r4, r5, lr}
 1998              		.cfi_def_cfa_offset 16
 1999              		.cfi_offset 3, -16
 2000              		.cfi_offset 4, -12
 2001              		.cfi_offset 5, -8
 2002              		.cfi_offset 14, -4
 2003 0002 0446     		mov	r4, r0
 126:Laser.c       ****     if (!performSingleRefCalibration(0x40)) { return false; }
 2004              		.loc 1 126 0
 2005 0004 0123     		movs	r3, #1
 2006 0006 1A46     		mov	r2, r3
 2007 0008 0179     		ldrb	r1, [r0, #4]	@ zero_extendqisi2
 2008 000a FFF7FEFF 		bl	_ZN3i2c9WriteByteEhhh
 2009              	.LVL234:
 127:Laser.c       ****     // -- VL53L0X_perform_vhv_calibration() end
 2010              		.loc 1 127 0
 2011 000e 4021     		movs	r1, #64
 2012 0010 2046     		mov	r0, r4
 2013 0012 FFF7FEFF 		bl	_ZN5Laser27performSingleRefCalibrationEh
 2014              	.LVL235:
 2015 0016 0546     		mov	r5, r0
 2016 0018 88B1     		cbz	r0, .L62
 131:Laser.c       ****     if (!performSingleRefCalibration(0x00)) { return false; }
 2017              		.loc 1 131 0
ARM GAS  C:\Users\hejmi\AppData\Local\Temp\ccFM6jcL.s 			page 49


 2018 001a 0223     		movs	r3, #2
 2019 001c 0122     		movs	r2, #1
 2020 001e 2179     		ldrb	r1, [r4, #4]	@ zero_extendqisi2
 2021 0020 2046     		mov	r0, r4
 2022 0022 FFF7FEFF 		bl	_ZN3i2c9WriteByteEhhh
 2023              	.LVL236:
 132:Laser.c       ****     // -- VL53L0X_perform_phase_calibration() end
 2024              		.loc 1 132 0
 2025 0026 0021     		movs	r1, #0
 2026 0028 2046     		mov	r0, r4
 2027 002a FFF7FEFF 		bl	_ZN5Laser27performSingleRefCalibrationEh
 2028              	.LVL237:
 2029 002e 0546     		mov	r5, r0
 2030 0030 28B1     		cbz	r0, .L62
 136:Laser.c       ****     return true;
 2031              		.loc 1 136 0
 2032 0032 E823     		movs	r3, #232
 2033 0034 0122     		movs	r2, #1
 2034 0036 2179     		ldrb	r1, [r4, #4]	@ zero_extendqisi2
 2035 0038 2046     		mov	r0, r4
 2036 003a FFF7FEFF 		bl	_ZN3i2c9WriteByteEhhh
 2037              	.LVL238:
 2038              	.L62:
 138:Laser.c       **** 
 2039              		.loc 1 138 0
 2040 003e 2846     		mov	r0, r5
 2041 0040 38BD     		pop	{r3, r4, r5, pc}
 2042              		.cfi_endproc
 2043              	.LFE78:
 2044              		.fnend
 2045              		.size	_ZN5Laser21PerformRefCalibrationEv, .-_ZN5Laser21PerformRefCalibrationEv
 2046 0042 00BF     		.section	.text._ZN5Laser13encodeTimeoutEt,"ax",%progbits
 2047              		.align	2
 2048              		.global	_ZN5Laser13encodeTimeoutEt
 2049              		.thumb
 2050              		.thumb_func
 2051              		.type	_ZN5Laser13encodeTimeoutEt, %function
 2052              	_ZN5Laser13encodeTimeoutEt:
 2053              		.fnstart
 2054              	.LFB95:
 668:Laser.c       **** 
 669:Laser.c       **** // Encode sequence step timeout register value from timeout in MCLKs
 670:Laser.c       **** // based on VL53L0X_encode_timeout()
 671:Laser.c       **** // Note: the original function took a uint16_t, but the argument passed to it
 672:Laser.c       **** // is always a uint16_t.
 673:Laser.c       **** uint16_t Laser::encodeTimeout(uint16_t timeout_mclks)
 674:Laser.c       **** {
 2055              		.loc 1 674 0
 2056              		.cfi_startproc
 2057              		@ args = 0, pretend = 0, frame = 0
 2058              		@ frame_needed = 0, uses_anonymous_args = 0
 2059              		@ link register save eliminated.
 2060              	.LVL239:
 675:Laser.c       ****   // format: "(LSByte * 2^MSByte) + 1"
 676:Laser.c       **** 
 677:Laser.c       ****   uint32_t ls_byte = 0;
 678:Laser.c       ****   uint16_t ms_byte = 0;
ARM GAS  C:\Users\hejmi\AppData\Local\Temp\ccFM6jcL.s 			page 50


 679:Laser.c       **** 
 680:Laser.c       ****   if (timeout_mclks > 0)
 2061              		.loc 1 680 0
 2062 0000 69B1     		cbz	r1, .L68
 681:Laser.c       ****   {
 682:Laser.c       ****     ls_byte = timeout_mclks - 1;
 2063              		.loc 1 682 0
 2064 0002 0139     		subs	r1, r1, #1
 2065              	.LVL240:
 678:Laser.c       **** 
 2066              		.loc 1 678 0
 2067 0004 0020     		movs	r0, #0
 2068              	.LVL241:
 2069              	.L67:
 683:Laser.c       **** 
 684:Laser.c       ****     while ((ls_byte & 0xFFFFFF00) > 0)
 2070              		.loc 1 684 0
 2071 0006 31F0FF03 		bics	r3, r1, #255
 2072 000a 03D0     		beq	.L66
 685:Laser.c       ****     {
 686:Laser.c       ****       ls_byte >>= 1;
 2073              		.loc 1 686 0
 2074 000c 4908     		lsrs	r1, r1, #1
 2075              	.LVL242:
 687:Laser.c       ****       ms_byte++;
 2076              		.loc 1 687 0
 2077 000e 0130     		adds	r0, r0, #1
 2078              	.LVL243:
 2079 0010 80B2     		uxth	r0, r0
 2080              	.LVL244:
 684:Laser.c       ****     {
 2081              		.loc 1 684 0
 2082 0012 F8E7     		b	.L67
 2083              	.L66:
 688:Laser.c       ****     }
 689:Laser.c       **** 
 690:Laser.c       ****     return (ms_byte << 8) | (ls_byte & 0xFF);
 2084              		.loc 1 690 0
 2085 0014 C9B2     		uxtb	r1, r1
 2086              	.LVL245:
 2087 0016 41EA0020 		orr	r0, r1, r0, lsl #8
 2088              	.LVL246:
 2089 001a 80B2     		uxth	r0, r0
 2090 001c 7047     		bx	lr
 2091              	.LVL247:
 2092              	.L68:
 691:Laser.c       ****   }
 692:Laser.c       ****   else { return 0; }
 2093              		.loc 1 692 0
 2094 001e 0020     		movs	r0, #0
 2095              	.LVL248:
 693:Laser.c       **** }
 2096              		.loc 1 693 0
 2097 0020 7047     		bx	lr
 2098              		.cfi_endproc
 2099              	.LFE95:
 2100              		.cantunwind
ARM GAS  C:\Users\hejmi\AppData\Local\Temp\ccFM6jcL.s 			page 51


 2101              		.fnend
 2102              		.size	_ZN5Laser13encodeTimeoutEt, .-_ZN5Laser13encodeTimeoutEt
 2103 0022 00BF     		.section	.text._ZN5Laser26setMeasurementTimingBudgetEm,"ax",%progbits
 2104              		.align	2
 2105              		.global	_ZN5Laser26setMeasurementTimingBudgetEm
 2106              		.thumb
 2107              		.thumb_func
 2108              		.type	_ZN5Laser26setMeasurementTimingBudgetEm, %function
 2109              	_ZN5Laser26setMeasurementTimingBudgetEm:
 2110              		.fnstart
 2111              	.LFB80:
 204:Laser.c       ****   SequenceStepEnables enables;
 2112              		.loc 1 204 0
 2113              		.cfi_startproc
 2114              		@ args = 0, pretend = 0, frame = 40
 2115              		@ frame_needed = 0, uses_anonymous_args = 0
 2116              	.LVL249:
 2117 0000 F0B5     		push	{r4, r5, r6, r7, lr}
 2118              		.save {r4, r5, r6, r7, lr}
 2119              		.cfi_def_cfa_offset 20
 2120              		.cfi_offset 4, -20
 2121              		.cfi_offset 5, -16
 2122              		.cfi_offset 6, -12
 2123              		.cfi_offset 7, -8
 2124              		.cfi_offset 14, -4
 2125              		.pad #52
 2126 0002 8DB0     		sub	sp, sp, #52
 2127              		.cfi_def_cfa_offset 72
 2128              	.LVL250:
 218:Laser.c       **** 
 2129              		.loc 1 218 0
 2130 0004 44F61F63 		movw	r3, #19999
 2131 0008 9942     		cmp	r1, r3
 2132 000a 50D9     		bls	.L77
 2133 000c 0E46     		mov	r6, r1
 2134 000e 0446     		mov	r4, r0
 2135              	.LVL251:
 222:Laser.c       ****   getSequenceStepTimeouts(&enables, &timeouts);
 2136              		.loc 1 222 0
 2137 0010 0AA9     		add	r1, sp, #40
 2138              	.LVL252:
 2139 0012 FFF7FEFF 		bl	_ZN5Laser22getSequenceStepEnablesEP19SequenceStepEnables
 2140              	.LVL253:
 223:Laser.c       **** 
 2141              		.loc 1 223 0
 2142 0016 04AA     		add	r2, sp, #16
 2143 0018 0AA9     		add	r1, sp, #40
 2144 001a 2046     		mov	r0, r4
 2145 001c FFF7FEFF 		bl	_ZN5Laser23getSequenceStepTimeoutsEPK19SequenceStepEnablesP20SequenceStepTimeouts
 2146              	.LVL254:
 225:Laser.c       ****   {
 2147              		.loc 1 225 0
 2148 0020 9DF82830 		ldrb	r3, [sp, #40]	@ zero_extendqisi2
 2149 0024 1BB1     		cbz	r3, .L78
 227:Laser.c       ****   }
 2150              		.loc 1 227 0
 2151 0026 079B     		ldr	r3, [sp, #28]
ARM GAS  C:\Users\hejmi\AppData\Local\Temp\ccFM6jcL.s 			page 52


 2152 0028 03F63633 		addw	r3, r3, #2870
 2153              	.LVL255:
 2154 002c 01E0     		b	.L71
 2155              	.LVL256:
 2156              	.L78:
 220:Laser.c       **** 
 2157              		.loc 1 220 0
 2158 002e 40F6E803 		movw	r3, #2280
 2159              	.LVL257:
 2160              	.L71:
 230:Laser.c       ****   {
 2161              		.loc 1 230 0
 2162 0032 9DF82A20 		ldrb	r2, [sp, #42]	@ zero_extendqisi2
 2163 0036 2AB1     		cbz	r2, .L72
 232:Laser.c       ****   }
 2164              		.loc 1 232 0
 2165 0038 079A     		ldr	r2, [sp, #28]
 2166 003a 02F2B222 		addw	r2, r2, #690
 2167 003e 03EB4203 		add	r3, r3, r2, lsl #1
 2168              	.LVL258:
 2169 0042 06E0     		b	.L73
 2170              	.L72:
 234:Laser.c       ****   {
 2171              		.loc 1 234 0
 2172 0044 9DF82920 		ldrb	r2, [sp, #41]	@ zero_extendqisi2
 2173 0048 1AB1     		cbz	r2, .L73
 236:Laser.c       ****   }
 2174              		.loc 1 236 0
 2175 004a 0799     		ldr	r1, [sp, #28]
 2176 004c 0B44     		add	r3, r3, r1
 2177              	.LVL259:
 2178 004e 03F52573 		add	r3, r3, #660
 2179              	.LVL260:
 2180              	.L73:
 239:Laser.c       ****   {
 2181              		.loc 1 239 0
 2182 0052 9DF82B70 		ldrb	r7, [sp, #43]	@ zero_extendqisi2
 2183 0056 1FB1     		cbz	r7, .L74
 241:Laser.c       ****   }
 2184              		.loc 1 241 0
 2185 0058 0899     		ldr	r1, [sp, #32]
 2186 005a 0B44     		add	r3, r3, r1
 2187              	.LVL261:
 2188 005c 03F52573 		add	r3, r3, #660
 2189              	.LVL262:
 2190              	.L74:
 2191              	.LBB6:
 244:Laser.c       ****   {
 2192              		.loc 1 244 0
 2193 0060 9DF82C50 		ldrb	r5, [sp, #44]	@ zero_extendqisi2
 2194 0064 2DB3     		cbz	r5, .L79
 2195              	.LBB7:
 246:Laser.c       **** 
 2196              		.loc 1 246 0
 2197 0066 03F22621 		addw	r1, r3, #550
 2198              	.LVL263:
 254:Laser.c       ****     {
ARM GAS  C:\Users\hejmi\AppData\Local\Temp\ccFM6jcL.s 			page 53


 2199              		.loc 1 254 0
 2200 006a 8E42     		cmp	r6, r1
 2201 006c 01D2     		bcs	.L75
 257:Laser.c       ****     }
 2202              		.loc 1 257 0
 2203 006e 0025     		movs	r5, #0
 2204 0070 20E0     		b	.L70
 2205              	.L75:
 2206              	.LVL264:
 271:Laser.c       ****                                  timeouts.final_range_vcsel_period_pclks);
 2207              		.loc 1 271 0
 2208 0072 9DF81220 		ldrb	r2, [sp, #18]	@ zero_extendqisi2
 2209 0076 711A     		subs	r1, r6, r1
 2210              	.LVL265:
 2211 0078 2046     		mov	r0, r4
 2212 007a FFF7FEFF 		bl	_ZN5Laser26timeoutMicrosecondsToMclksEmh
 2213              	.LVL266:
 272:Laser.c       **** 
 2214              		.loc 1 272 0
 2215 007e 81B2     		uxth	r1, r0
 2216              	.LVL267:
 274:Laser.c       ****     {
 2217              		.loc 1 274 0
 2218 0080 1FB1     		cbz	r7, .L76
 276:Laser.c       ****     }
 2219              		.loc 1 276 0
 2220 0082 BDF81600 		ldrh	r0, [sp, #22]
 2221 0086 0144     		add	r1, r1, r0
 2222              	.LVL268:
 2223 0088 89B2     		uxth	r1, r1
 2224              	.LVL269:
 2225              	.L76:
 280:Laser.c       ****     tmparray[0] = tmp & 0xff;   // Low
 2226              		.loc 1 280 0
 2227 008a 2046     		mov	r0, r4
 2228 008c FFF7FEFF 		bl	_ZN5Laser13encodeTimeoutEt
 2229              	.LVL270:
 281:Laser.c       ****     tmparray[1] = (tmp >> 8);   // High
 2230              		.loc 1 281 0
 2231 0090 8DF80C00 		strb	r0, [sp, #12]
 282:Laser.c       ****     I2C.WriteBytes(dev_,FINAL_RANGE_CONFIG_TIMEOUT_MACROP_HI,2,tmparray);
 2232              		.loc 1 282 0
 2233 0094 0012     		asrs	r0, r0, #8
 2234              	.LVL271:
 2235 0096 8DF80D00 		strb	r0, [sp, #13]
 283:Laser.c       ****     
 2236              		.loc 1 283 0
 2237 009a 2179     		ldrb	r1, [r4, #4]	@ zero_extendqisi2
 2238 009c 03AB     		add	r3, sp, #12
 2239 009e 0093     		str	r3, [sp]
 2240 00a0 0223     		movs	r3, #2
 2241 00a2 7122     		movs	r2, #113
 2242 00a4 2046     		mov	r0, r4
 2243 00a6 FFF7FEFF 		bl	_ZN3i2c10WriteBytesEhhhPh
 2244              	.LVL272:
 287:Laser.c       ****   }
 2245              		.loc 1 287 0
ARM GAS  C:\Users\hejmi\AppData\Local\Temp\ccFM6jcL.s 			page 54


 2246 00aa A660     		str	r6, [r4, #8]
 2247              	.LBE7:
 2248 00ac 02E0     		b	.L70
 2249              	.LVL273:
 2250              	.L77:
 2251              	.LBE6:
 218:Laser.c       **** 
 2252              		.loc 1 218 0
 2253 00ae 0025     		movs	r5, #0
 2254 00b0 00E0     		b	.L70
 2255              	.LVL274:
 2256              	.L79:
 289:Laser.c       **** }
 2257              		.loc 1 289 0
 2258 00b2 0125     		movs	r5, #1
 2259              	.LVL275:
 2260              	.L70:
 290:Laser.c       **** 
 2261              		.loc 1 290 0
 2262 00b4 2846     		mov	r0, r5
 2263 00b6 0DB0     		add	sp, sp, #52
 2264              		.cfi_def_cfa_offset 20
 2265              		@ sp needed
 2266 00b8 F0BD     		pop	{r4, r5, r6, r7, pc}
 2267              		.cfi_endproc
 2268              	.LFE80:
 2269              		.fnend
 2270              		.size	_ZN5Laser26setMeasurementTimingBudgetEm, .-_ZN5Laser26setMeasurementTimingBudgetEm
 2271 00ba 00BF     		.section	.text._ZN5Laser10StaticInitEv,"ax",%progbits
 2272              		.align	2
 2273              		.global	_ZN5Laser10StaticInitEv
 2274              		.thumb
 2275              		.thumb_func
 2276              		.type	_ZN5Laser10StaticInitEv, %function
 2277              	_ZN5Laser10StaticInitEv:
 2278              		.fnstart
 2279              	.LFB79:
 141:Laser.c       ****     uint8_t spad_count;
 2280              		.loc 1 141 0
 2281              		.cfi_startproc
 2282              		@ args = 0, pretend = 0, frame = 8
 2283              		@ frame_needed = 0, uses_anonymous_args = 0
 2284              	.LVL276:
 2285 0000 70B5     		push	{r4, r5, r6, lr}
 2286              		.save {r4, r5, r6, lr}
 2287              		.cfi_def_cfa_offset 16
 2288              		.cfi_offset 4, -16
 2289              		.cfi_offset 5, -12
 2290              		.cfi_offset 6, -8
 2291              		.cfi_offset 14, -4
 2292              		.pad #16
 2293 0002 84B0     		sub	sp, sp, #16
 2294              		.cfi_def_cfa_offset 32
 2295 0004 0446     		mov	r4, r0
 144:Laser.c       ****     
 2296              		.loc 1 144 0
 2297 0006 0DF10E02 		add	r2, sp, #14
ARM GAS  C:\Users\hejmi\AppData\Local\Temp\ccFM6jcL.s 			page 55


 2298 000a 0DF10F01 		add	r1, sp, #15
 2299 000e FFF7FEFF 		bl	_ZN5Laser11getSpadInfoEPhPb
 2300              	.LVL277:
 2301 0012 0028     		cmp	r0, #0
 2302 0014 70D0     		beq	.L81
 150:Laser.c       **** 
 2303              		.loc 1 150 0
 2304 0016 2179     		ldrb	r1, [r4, #4]	@ zero_extendqisi2
 2305 0018 02AB     		add	r3, sp, #8
 2306 001a 0093     		str	r3, [sp]
 2307 001c 0623     		movs	r3, #6
 2308 001e B022     		movs	r2, #176
 2309 0020 2046     		mov	r0, r4
 2310 0022 FFF7FEFF 		bl	_ZN3i2c9ReadBytesEhhhPh
 2311              	.LVL278:
 153:Laser.c       ****     I2C.WriteByte(dev_,DYNAMIC_SPAD_REF_EN_START_OFFSET, 0x00);
 2312              		.loc 1 153 0
 2313 0026 0123     		movs	r3, #1
 2314 0028 FF22     		movs	r2, #255
 2315 002a 2179     		ldrb	r1, [r4, #4]	@ zero_extendqisi2
 2316 002c 2046     		mov	r0, r4
 2317 002e FFF7FEFF 		bl	_ZN3i2c9WriteByteEhhh
 2318              	.LVL279:
 154:Laser.c       ****     I2C.WriteByte(dev_,DYNAMIC_SPAD_NUM_REQUESTED_REF_SPAD, 0x2C);
 2319              		.loc 1 154 0
 2320 0032 0023     		movs	r3, #0
 2321 0034 4F22     		movs	r2, #79
 2322 0036 2179     		ldrb	r1, [r4, #4]	@ zero_extendqisi2
 2323 0038 2046     		mov	r0, r4
 2324 003a FFF7FEFF 		bl	_ZN3i2c9WriteByteEhhh
 2325              	.LVL280:
 155:Laser.c       ****     I2C.WriteByte(dev_,0xFF, 0x00);
 2326              		.loc 1 155 0
 2327 003e 2C23     		movs	r3, #44
 2328 0040 4E22     		movs	r2, #78
 2329 0042 2179     		ldrb	r1, [r4, #4]	@ zero_extendqisi2
 2330 0044 2046     		mov	r0, r4
 2331 0046 FFF7FEFF 		bl	_ZN3i2c9WriteByteEhhh
 2332              	.LVL281:
 156:Laser.c       ****     I2C.WriteByte(dev_,GLOBAL_CONFIG_REF_EN_START_SELECT, 0xB4);
 2333              		.loc 1 156 0
 2334 004a 0023     		movs	r3, #0
 2335 004c FF22     		movs	r2, #255
 2336 004e 2179     		ldrb	r1, [r4, #4]	@ zero_extendqisi2
 2337 0050 2046     		mov	r0, r4
 2338 0052 FFF7FEFF 		bl	_ZN3i2c9WriteByteEhhh
 2339              	.LVL282:
 157:Laser.c       **** 
 2340              		.loc 1 157 0
 2341 0056 B423     		movs	r3, #180
 2342 0058 B622     		movs	r2, #182
 2343 005a 2179     		ldrb	r1, [r4, #4]	@ zero_extendqisi2
 2344 005c 2046     		mov	r0, r4
 2345 005e FFF7FEFF 		bl	_ZN3i2c9WriteByteEhhh
 2346              	.LVL283:
 159:Laser.c       ****     uint8_t spads_enabled = 0;
 2347              		.loc 1 159 0
ARM GAS  C:\Users\hejmi\AppData\Local\Temp\ccFM6jcL.s 			page 56


 2348 0062 9DF80E30 		ldrb	r3, [sp, #14]	@ zero_extendqisi2
 2349 0066 0BB1     		cbz	r3, .L90
 2350 0068 0C26     		movs	r6, #12
 2351 006a 00E0     		b	.L83
 2352              	.L90:
 2353 006c 0026     		movs	r6, #0
 2354              	.L83:
 2355              	.LVL284:
 2356              	.LBB8:
 163:Laser.c       ****     {
 2357              		.loc 1 163 0 discriminator 4
 2358 006e 0023     		movs	r3, #0
 2359              	.LBE8:
 160:Laser.c       ****     
 2360              		.loc 1 160 0 discriminator 4
 2361 0070 1D46     		mov	r5, r3
 2362              	.LVL285:
 2363              	.L88:
 2364              	.LBB9:
 163:Laser.c       ****     {
 2365              		.loc 1 163 0 discriminator 1
 2366 0072 2F2B     		cmp	r3, #47
 2367 0074 24D8     		bhi	.L84
 165:Laser.c       ****         {
 2368              		.loc 1 165 0
 2369 0076 B342     		cmp	r3, r6
 2370 0078 03D3     		bcc	.L85
 165:Laser.c       ****         {
 2371              		.loc 1 165 0 is_stmt 0 discriminator 1
 2372 007a 9DF80F20 		ldrb	r2, [sp, #15]	@ zero_extendqisi2
 2373 007e 9542     		cmp	r5, r2
 2374 0080 0ED1     		bne	.L86
 2375              	.L85:
 169:Laser.c       ****         }
 2376              		.loc 1 169 0 is_stmt 1
 2377 0082 03F00701 		and	r1, r3, #7
 2378 0086 0122     		movs	r2, #1
 2379 0088 02FA01F1 		lsl	r1, r2, r1
 2380 008c 04AA     		add	r2, sp, #16
 2381 008e 02EBD300 		add	r0, r2, r3, lsr #3
 2382 0092 10F8082C 		ldrb	r2, [r0, #-8]	@ zero_extendqisi2
 2383 0096 22EA0102 		bic	r2, r2, r1
 2384 009a 00F8082C 		strb	r2, [r0, #-8]
 2385 009e 0CE0     		b	.L87
 2386              	.L86:
 171:Laser.c       ****         {
 2387              		.loc 1 171 0
 2388 00a0 04AA     		add	r2, sp, #16
 2389 00a2 02EBD302 		add	r2, r2, r3, lsr #3
 2390 00a6 12F8082C 		ldrb	r2, [r2, #-8]	@ zero_extendqisi2
 2391 00aa 03F00701 		and	r1, r3, #7
 2392 00ae 0A41     		asrs	r2, r2, r1
 2393 00b0 12F0010F 		tst	r2, #1
 2394 00b4 01D0     		beq	.L87
 173:Laser.c       ****         }
 2395              		.loc 1 173 0
 2396 00b6 0135     		adds	r5, r5, #1
ARM GAS  C:\Users\hejmi\AppData\Local\Temp\ccFM6jcL.s 			page 57


 2397              	.LVL286:
 2398 00b8 EDB2     		uxtb	r5, r5
 2399              	.LVL287:
 2400              	.L87:
 163:Laser.c       ****     {
 2401              		.loc 1 163 0 discriminator 2
 2402 00ba 0133     		adds	r3, r3, #1
 2403              	.LVL288:
 2404 00bc DBB2     		uxtb	r3, r3
 2405              	.LVL289:
 2406 00be D8E7     		b	.L88
 2407              	.L84:
 2408              	.LBE9:
 177:Laser.c       ****     LoadTuningSettings();
 2409              		.loc 1 177 0
 2410 00c0 2179     		ldrb	r1, [r4, #4]	@ zero_extendqisi2
 2411 00c2 02AB     		add	r3, sp, #8
 2412              	.LVL290:
 2413 00c4 0093     		str	r3, [sp]
 2414 00c6 0623     		movs	r3, #6
 2415 00c8 B022     		movs	r2, #176
 2416 00ca 2046     		mov	r0, r4
 2417 00cc FFF7FEFF 		bl	_ZN3i2c10WriteBytesEhhhPh
 2418              	.LVL291:
 178:Laser.c       ****     SetGpioConfig();
 2419              		.loc 1 178 0
 2420 00d0 2046     		mov	r0, r4
 2421 00d2 FFF7FEFF 		bl	_ZN5Laser18LoadTuningSettingsEv
 2422              	.LVL292:
 179:Laser.c       ****     
 2423              		.loc 1 179 0
 2424 00d6 2046     		mov	r0, r4
 2425 00d8 FFF7FEFF 		bl	_ZN5Laser13SetGpioConfigEv
 2426              	.LVL293:
 181:Laser.c       ****     
 2427              		.loc 1 181 0
 2428 00dc 2046     		mov	r0, r4
 2429 00de FFF7FEFF 		bl	_ZN5Laser26getMeasurementTimingBudgetEv
 2430              	.LVL294:
 2431 00e2 0546     		mov	r5, r0
 2432              	.LVL295:
 187:Laser.c       ****     // -- VL53L0X_SetSequenceStepEnable() end
 2433              		.loc 1 187 0
 2434 00e4 E823     		movs	r3, #232
 2435 00e6 0122     		movs	r2, #1
 2436 00e8 2179     		ldrb	r1, [r4, #4]	@ zero_extendqisi2
 2437 00ea 2046     		mov	r0, r4
 2438              	.LVL296:
 2439 00ec FFF7FEFF 		bl	_ZN3i2c9WriteByteEhhh
 2440              	.LVL297:
 191:Laser.c       ****     
 2441              		.loc 1 191 0
 2442 00f0 2946     		mov	r1, r5
 2443 00f2 2046     		mov	r0, r4
 2444 00f4 FFF7FEFF 		bl	_ZN5Laser26setMeasurementTimingBudgetEm
 2445              	.LVL298:
 2446              	.L81:
ARM GAS  C:\Users\hejmi\AppData\Local\Temp\ccFM6jcL.s 			page 58


 194:Laser.c       **** 
 2447              		.loc 1 194 0
 2448 00f8 04B0     		add	sp, sp, #16
 2449              		.cfi_def_cfa_offset 16
 2450              		@ sp needed
 2451 00fa 70BD     		pop	{r4, r5, r6, pc}
 2452              		.cfi_endproc
 2453              	.LFE79:
 2454              		.fnend
 2455              		.size	_ZN5Laser10StaticInitEv, .-_ZN5Laser10StaticInitEv
 2456              		.section	.text._ZN5Laser4InitEb,"ax",%progbits
 2457              		.align	2
 2458              		.global	_ZN5Laser4InitEb
 2459              		.thumb
 2460              		.thumb_func
 2461              		.type	_ZN5Laser4InitEb, %function
 2462              	_ZN5Laser4InitEb:
 2463              		.fnstart
 2464              	.LFB77:
 115:Laser.c       ****     I2CInit();
 2465              		.loc 1 115 0
 2466              		.cfi_startproc
 2467              		@ args = 0, pretend = 0, frame = 0
 2468              		@ frame_needed = 0, uses_anonymous_args = 0
 2469              	.LVL299:
 2470 0000 38B5     		push	{r3, r4, r5, lr}
 2471              		.save {r3, r4, r5, lr}
 2472              		.cfi_def_cfa_offset 16
 2473              		.cfi_offset 3, -16
 2474              		.cfi_offset 4, -12
 2475              		.cfi_offset 5, -8
 2476              		.cfi_offset 14, -4
 2477 0002 0446     		mov	r4, r0
 2478 0004 0D46     		mov	r5, r1
 116:Laser.c       ****     DataInit(io_2v8);
 2479              		.loc 1 116 0
 2480 0006 FFF7FEFF 		bl	_ZN5Laser7I2CInitEv
 2481              	.LVL300:
 117:Laser.c       ****     StaticInit();
 2482              		.loc 1 117 0
 2483 000a 2946     		mov	r1, r5
 2484 000c 2046     		mov	r0, r4
 2485 000e FFF7FEFF 		bl	_ZN5Laser8DataInitEb
 2486              	.LVL301:
 118:Laser.c       ****     PerformRefCalibration();
 2487              		.loc 1 118 0
 2488 0012 2046     		mov	r0, r4
 2489 0014 FFF7FEFF 		bl	_ZN5Laser10StaticInitEv
 2490              	.LVL302:
 119:Laser.c       ****     return true;
 2491              		.loc 1 119 0
 2492 0018 2046     		mov	r0, r4
 2493 001a FFF7FEFF 		bl	_ZN5Laser21PerformRefCalibrationEv
 2494              	.LVL303:
 121:Laser.c       **** 
 2495              		.loc 1 121 0
 2496 001e 0120     		movs	r0, #1
ARM GAS  C:\Users\hejmi\AppData\Local\Temp\ccFM6jcL.s 			page 59


 2497 0020 38BD     		pop	{r3, r4, r5, pc}
 2498              		.cfi_endproc
 2499              	.LFE77:
 2500              		.fnend
 2501              		.size	_ZN5Laser4InitEb, .-_ZN5Laser4InitEb
 2502 0022 00BF     		.text
 2503              	.Letext0:
 2504              		.file 2 "c:\\program files (x86)\\cypress\\psoc creator\\4.2\\psoc creator\\import\\gnu\\arm\\5.4.
 2505              		.file 3 "c:\\program files (x86)\\cypress\\psoc creator\\4.2\\psoc creator\\import\\gnu\\arm\\5.4.
 2506              		.file 4 "i2c.h"
 2507              		.file 5 "Laser_def.h"
 2508              		.file 6 "Laser.h"
 2509              		.file 7 "Generated_Source\\PSoC5/core_cm3.h"
 2510              		.section	.debug_info,"",%progbits
 2511              	.Ldebug_info0:
 2512 0000 F1240000 		.4byte	0x24f1
 2513 0004 0400     		.2byte	0x4
 2514 0006 00000000 		.4byte	.Ldebug_abbrev0
 2515 000a 04       		.byte	0x4
 2516 000b 01       		.uleb128 0x1
 2517 000c CB080000 		.4byte	.LASF156
 2518 0010 04       		.byte	0x4
 2519 0011 3E010000 		.4byte	.LASF157
 2520 0015 75000000 		.4byte	.LASF158
 2521 0019 18000000 		.4byte	.Ldebug_ranges0+0x18
 2522 001d 00000000 		.4byte	0
 2523 0021 00000000 		.4byte	.Ldebug_line0
 2524 0025 02       		.uleb128 0x2
 2525 0026 04       		.byte	0x4
 2526 0027 04       		.byte	0x4
 2527 0028 33020000 		.4byte	.LASF0
 2528 002c 02       		.uleb128 0x2
 2529 002d 01       		.byte	0x1
 2530 002e 06       		.byte	0x6
 2531 002f E40A0000 		.4byte	.LASF1
 2532 0033 03       		.uleb128 0x3
 2533 0034 41080000 		.4byte	.LASF4
 2534 0038 02       		.byte	0x2
 2535 0039 1D       		.byte	0x1d
 2536 003a 3E000000 		.4byte	0x3e
 2537 003e 02       		.uleb128 0x2
 2538 003f 01       		.byte	0x1
 2539 0040 08       		.byte	0x8
 2540 0041 E6090000 		.4byte	.LASF2
 2541 0045 02       		.uleb128 0x2
 2542 0046 02       		.byte	0x2
 2543 0047 05       		.byte	0x5
 2544 0048 A3070000 		.4byte	.LASF3
 2545 004c 03       		.uleb128 0x3
 2546 004d 6C030000 		.4byte	.LASF5
 2547 0051 02       		.byte	0x2
 2548 0052 2B       		.byte	0x2b
 2549 0053 57000000 		.4byte	0x57
 2550 0057 02       		.uleb128 0x2
 2551 0058 02       		.byte	0x2
 2552 0059 07       		.byte	0x7
 2553 005a 0D0B0000 		.4byte	.LASF6
ARM GAS  C:\Users\hejmi\AppData\Local\Temp\ccFM6jcL.s 			page 60


 2554 005e 03       		.uleb128 0x3
 2555 005f FE000000 		.4byte	.LASF7
 2556 0063 02       		.byte	0x2
 2557 0064 3F       		.byte	0x3f
 2558 0065 69000000 		.4byte	0x69
 2559 0069 02       		.uleb128 0x2
 2560 006a 04       		.byte	0x4
 2561 006b 05       		.byte	0x5
 2562 006c B5070000 		.4byte	.LASF8
 2563 0070 03       		.uleb128 0x3
 2564 0071 F4090000 		.4byte	.LASF9
 2565 0075 02       		.byte	0x2
 2566 0076 41       		.byte	0x41
 2567 0077 7B000000 		.4byte	0x7b
 2568 007b 02       		.uleb128 0x2
 2569 007c 04       		.byte	0x4
 2570 007d 07       		.byte	0x7
 2571 007e B9080000 		.4byte	.LASF10
 2572 0082 02       		.uleb128 0x2
 2573 0083 08       		.byte	0x8
 2574 0084 05       		.byte	0x5
 2575 0085 57050000 		.4byte	.LASF11
 2576 0089 02       		.uleb128 0x2
 2577 008a 08       		.byte	0x8
 2578 008b 07       		.byte	0x7
 2579 008c 86020000 		.4byte	.LASF12
 2580 0090 04       		.uleb128 0x4
 2581 0091 04       		.byte	0x4
 2582 0092 05       		.byte	0x5
 2583 0093 696E7400 		.ascii	"int\000"
 2584 0097 02       		.uleb128 0x2
 2585 0098 04       		.byte	0x4
 2586 0099 07       		.byte	0x7
 2587 009a E8000000 		.4byte	.LASF13
 2588 009e 03       		.uleb128 0x3
 2589 009f E6040000 		.4byte	.LASF14
 2590 00a3 03       		.byte	0x3
 2591 00a4 18       		.byte	0x18
 2592 00a5 33000000 		.4byte	0x33
 2593 00a9 03       		.uleb128 0x3
 2594 00aa 03070000 		.4byte	.LASF15
 2595 00ae 03       		.byte	0x3
 2596 00af 24       		.byte	0x24
 2597 00b0 4C000000 		.4byte	0x4c
 2598 00b4 03       		.uleb128 0x3
 2599 00b5 84090000 		.4byte	.LASF16
 2600 00b9 03       		.byte	0x3
 2601 00ba 2C       		.byte	0x2c
 2602 00bb 5E000000 		.4byte	0x5e
 2603 00bf 03       		.uleb128 0x3
 2604 00c0 F7010000 		.4byte	.LASF17
 2605 00c4 03       		.byte	0x3
 2606 00c5 30       		.byte	0x30
 2607 00c6 70000000 		.4byte	0x70
 2608 00ca 02       		.uleb128 0x2
 2609 00cb 08       		.byte	0x8
 2610 00cc 04       		.byte	0x4
ARM GAS  C:\Users\hejmi\AppData\Local\Temp\ccFM6jcL.s 			page 61


 2611 00cd 570B0000 		.4byte	.LASF18
 2612 00d1 02       		.uleb128 0x2
 2613 00d2 01       		.byte	0x1
 2614 00d3 08       		.byte	0x8
 2615 00d4 81040000 		.4byte	.LASF19
 2616 00d8 02       		.uleb128 0x2
 2617 00d9 04       		.byte	0x4
 2618 00da 07       		.byte	0x7
 2619 00db B0080000 		.4byte	.LASF20
 2620 00df 05       		.uleb128 0x5
 2621 00e0 69326300 		.ascii	"i2c\000"
 2622 00e4 01       		.byte	0x1
 2623 00e5 04       		.byte	0x4
 2624 00e6 1A       		.byte	0x1a
 2625 00e7 62020000 		.4byte	0x262
 2626 00eb 06       		.uleb128 0x6
 2627 00ec 69326300 		.ascii	"i2c\000"
 2628 00f0 04       		.byte	0x4
 2629 00f1 1C       		.byte	0x1c
 2630 00f2 FD040000 		.4byte	.LASF159
 2631 00f6 62020000 		.4byte	0x262
 2632 00fa 01       		.byte	0x1
 2633 00fb 03010000 		.4byte	0x103
 2634 00ff 09010000 		.4byte	0x109
 2635 0103 07       		.uleb128 0x7
 2636 0104 62020000 		.4byte	0x262
 2637 0108 00       		.byte	0
 2638 0109 08       		.uleb128 0x8
 2639 010a 8D040000 		.4byte	.LASF21
 2640 010e 04       		.byte	0x4
 2641 010f 1D       		.byte	0x1d
 2642 0110 4B040000 		.4byte	.LASF23
 2643 0114 01       		.byte	0x1
 2644 0115 1D010000 		.4byte	0x11d
 2645 0119 37010000 		.4byte	0x137
 2646 011d 07       		.uleb128 0x7
 2647 011e 62020000 		.4byte	0x262
 2648 0122 09       		.uleb128 0x9
 2649 0123 9E000000 		.4byte	0x9e
 2650 0127 09       		.uleb128 0x9
 2651 0128 9E000000 		.4byte	0x9e
 2652 012c 09       		.uleb128 0x9
 2653 012d 9E000000 		.4byte	0x9e
 2654 0131 09       		.uleb128 0x9
 2655 0132 68020000 		.4byte	0x268
 2656 0136 00       		.byte	0
 2657 0137 08       		.uleb128 0x8
 2658 0138 4B020000 		.4byte	.LASF22
 2659 013c 04       		.byte	0x4
 2660 013d 1E       		.byte	0x1e
 2661 013e B0030000 		.4byte	.LASF24
 2662 0142 01       		.byte	0x1
 2663 0143 4B010000 		.4byte	0x14b
 2664 0147 60010000 		.4byte	0x160
 2665 014b 07       		.uleb128 0x7
 2666 014c 62020000 		.4byte	0x262
 2667 0150 09       		.uleb128 0x9
ARM GAS  C:\Users\hejmi\AppData\Local\Temp\ccFM6jcL.s 			page 62


 2668 0151 9E000000 		.4byte	0x9e
 2669 0155 09       		.uleb128 0x9
 2670 0156 9E000000 		.4byte	0x9e
 2671 015a 09       		.uleb128 0x9
 2672 015b 68020000 		.4byte	0x268
 2673 015f 00       		.byte	0
 2674 0160 08       		.uleb128 0x8
 2675 0161 66010000 		.4byte	.LASF25
 2676 0165 04       		.byte	0x4
 2677 0166 1F       		.byte	0x1f
 2678 0167 17010000 		.4byte	.LASF26
 2679 016b 01       		.byte	0x1
 2680 016c 74010000 		.4byte	0x174
 2681 0170 8E010000 		.4byte	0x18e
 2682 0174 07       		.uleb128 0x7
 2683 0175 62020000 		.4byte	0x262
 2684 0179 09       		.uleb128 0x9
 2685 017a 9E000000 		.4byte	0x9e
 2686 017e 09       		.uleb128 0x9
 2687 017f 9E000000 		.4byte	0x9e
 2688 0183 09       		.uleb128 0x9
 2689 0184 9E000000 		.4byte	0x9e
 2690 0188 09       		.uleb128 0x9
 2691 0189 68020000 		.4byte	0x268
 2692 018d 00       		.byte	0
 2693 018e 08       		.uleb128 0x8
 2694 018f 37080000 		.4byte	.LASF27
 2695 0193 04       		.byte	0x4
 2696 0194 20       		.byte	0x20
 2697 0195 9F0A0000 		.4byte	.LASF28
 2698 0199 01       		.byte	0x1
 2699 019a A2010000 		.4byte	0x1a2
 2700 019e B7010000 		.4byte	0x1b7
 2701 01a2 07       		.uleb128 0x7
 2702 01a3 62020000 		.4byte	0x262
 2703 01a7 09       		.uleb128 0x9
 2704 01a8 9E000000 		.4byte	0x9e
 2705 01ac 09       		.uleb128 0x9
 2706 01ad 9E000000 		.4byte	0x9e
 2707 01b1 09       		.uleb128 0x9
 2708 01b2 9E000000 		.4byte	0x9e
 2709 01b6 00       		.byte	0
 2710 01b7 08       		.uleb128 0x8
 2711 01b8 22040000 		.4byte	.LASF29
 2712 01bc 04       		.byte	0x4
 2713 01bd 21       		.byte	0x21
 2714 01be 890B0000 		.4byte	.LASF30
 2715 01c2 01       		.byte	0x1
 2716 01c3 CB010000 		.4byte	0x1cb
 2717 01c7 E5010000 		.4byte	0x1e5
 2718 01cb 07       		.uleb128 0x7
 2719 01cc 62020000 		.4byte	0x262
 2720 01d0 09       		.uleb128 0x9
 2721 01d1 9E000000 		.4byte	0x9e
 2722 01d5 09       		.uleb128 0x9
 2723 01d6 A9000000 		.4byte	0xa9
 2724 01da 09       		.uleb128 0x9
ARM GAS  C:\Users\hejmi\AppData\Local\Temp\ccFM6jcL.s 			page 63


 2725 01db 9E000000 		.4byte	0x9e
 2726 01df 09       		.uleb128 0x9
 2727 01e0 68020000 		.4byte	0x268
 2728 01e4 00       		.byte	0
 2729 01e5 08       		.uleb128 0x8
 2730 01e6 97040000 		.4byte	.LASF31
 2731 01ea 04       		.byte	0x4
 2732 01eb 22       		.byte	0x22
 2733 01ec B80B0000 		.4byte	.LASF32
 2734 01f0 01       		.byte	0x1
 2735 01f1 F9010000 		.4byte	0x1f9
 2736 01f5 0E020000 		.4byte	0x20e
 2737 01f9 07       		.uleb128 0x7
 2738 01fa 62020000 		.4byte	0x262
 2739 01fe 09       		.uleb128 0x9
 2740 01ff 9E000000 		.4byte	0x9e
 2741 0203 09       		.uleb128 0x9
 2742 0204 A9000000 		.4byte	0xa9
 2743 0208 09       		.uleb128 0x9
 2744 0209 9E000000 		.4byte	0x9e
 2745 020d 00       		.byte	0
 2746 020e 08       		.uleb128 0x8
 2747 020f 47050000 		.4byte	.LASF33
 2748 0213 04       		.byte	0x4
 2749 0214 23       		.byte	0x23
 2750 0215 28030000 		.4byte	.LASF34
 2751 0219 01       		.byte	0x1
 2752 021a 22020000 		.4byte	0x222
 2753 021e 3C020000 		.4byte	0x23c
 2754 0222 07       		.uleb128 0x7
 2755 0223 62020000 		.4byte	0x262
 2756 0227 09       		.uleb128 0x9
 2757 0228 9E000000 		.4byte	0x9e
 2758 022c 09       		.uleb128 0x9
 2759 022d A9000000 		.4byte	0xa9
 2760 0231 09       		.uleb128 0x9
 2761 0232 9E000000 		.4byte	0x9e
 2762 0236 09       		.uleb128 0x9
 2763 0237 68020000 		.4byte	0x268
 2764 023b 00       		.byte	0
 2765 023c 0A       		.uleb128 0xa
 2766 023d 08010000 		.4byte	.LASF105
 2767 0241 04       		.byte	0x4
 2768 0242 24       		.byte	0x24
 2769 0243 080A0000 		.4byte	.LASF107
 2770 0247 01       		.byte	0x1
 2771 0248 4C020000 		.4byte	0x24c
 2772 024c 07       		.uleb128 0x7
 2773 024d 62020000 		.4byte	0x262
 2774 0251 09       		.uleb128 0x9
 2775 0252 9E000000 		.4byte	0x9e
 2776 0256 09       		.uleb128 0x9
 2777 0257 A9000000 		.4byte	0xa9
 2778 025b 09       		.uleb128 0x9
 2779 025c 68020000 		.4byte	0x268
 2780 0260 00       		.byte	0
 2781 0261 00       		.byte	0
ARM GAS  C:\Users\hejmi\AppData\Local\Temp\ccFM6jcL.s 			page 64


 2782 0262 0B       		.uleb128 0xb
 2783 0263 04       		.byte	0x4
 2784 0264 DF000000 		.4byte	0xdf
 2785 0268 0B       		.uleb128 0xb
 2786 0269 04       		.byte	0x4
 2787 026a 9E000000 		.4byte	0x9e
 2788 026e 0C       		.uleb128 0xc
 2789 026f 47030000 		.4byte	.LASF39
 2790 0273 05       		.byte	0x5
 2791 0274 05       		.byte	0x5
 2792 0275 1A       		.byte	0x1a
 2793 0276 B7020000 		.4byte	0x2b7
 2794 027a 0D       		.uleb128 0xd
 2795 027b 74636300 		.ascii	"tcc\000"
 2796 027f 05       		.byte	0x5
 2797 0280 1C       		.byte	0x1c
 2798 0281 B7020000 		.4byte	0x2b7
 2799 0285 00       		.byte	0
 2800 0286 0E       		.uleb128 0xe
 2801 0287 5C070000 		.4byte	.LASF35
 2802 028b 05       		.byte	0x5
 2803 028c 1C       		.byte	0x1c
 2804 028d B7020000 		.4byte	0x2b7
 2805 0291 01       		.byte	0x1
 2806 0292 0D       		.uleb128 0xd
 2807 0293 64737300 		.ascii	"dss\000"
 2808 0297 05       		.byte	0x5
 2809 0298 1C       		.byte	0x1c
 2810 0299 B7020000 		.4byte	0x2b7
 2811 029d 02       		.byte	0x2
 2812 029e 0E       		.uleb128 0xe
 2813 029f 5C010000 		.4byte	.LASF36
 2814 02a3 05       		.byte	0x5
 2815 02a4 1C       		.byte	0x1c
 2816 02a5 B7020000 		.4byte	0x2b7
 2817 02a9 03       		.byte	0x3
 2818 02aa 0E       		.uleb128 0xe
 2819 02ab 89030000 		.4byte	.LASF37
 2820 02af 05       		.byte	0x5
 2821 02b0 1C       		.byte	0x1c
 2822 02b1 B7020000 		.4byte	0x2b7
 2823 02b5 04       		.byte	0x4
 2824 02b6 00       		.byte	0
 2825 02b7 02       		.uleb128 0x2
 2826 02b8 01       		.byte	0x1
 2827 02b9 02       		.byte	0x2
 2828 02ba C0050000 		.4byte	.LASF38
 2829 02be 0C       		.uleb128 0xc
 2830 02bf D3000000 		.4byte	.LASF40
 2831 02c3 18       		.byte	0x18
 2832 02c4 05       		.byte	0x5
 2833 02c5 1F       		.byte	0x1f
 2834 02c6 2B030000 		.4byte	0x32b
 2835 02ca 0E       		.uleb128 0xe
 2836 02cb F00A0000 		.4byte	.LASF41
 2837 02cf 05       		.byte	0x5
 2838 02d0 21       		.byte	0x21
ARM GAS  C:\Users\hejmi\AppData\Local\Temp\ccFM6jcL.s 			page 65


 2839 02d1 A9000000 		.4byte	0xa9
 2840 02d5 00       		.byte	0
 2841 02d6 0E       		.uleb128 0xe
 2842 02d7 4B080000 		.4byte	.LASF42
 2843 02db 05       		.byte	0x5
 2844 02dc 21       		.byte	0x21
 2845 02dd A9000000 		.4byte	0xa9
 2846 02e1 02       		.byte	0x2
 2847 02e2 0E       		.uleb128 0xe
 2848 02e3 0F040000 		.4byte	.LASF43
 2849 02e7 05       		.byte	0x5
 2850 02e8 22       		.byte	0x22
 2851 02e9 A9000000 		.4byte	0xa9
 2852 02ed 04       		.byte	0x4
 2853 02ee 0E       		.uleb128 0xe
 2854 02ef D6090000 		.4byte	.LASF44
 2855 02f3 05       		.byte	0x5
 2856 02f4 22       		.byte	0x22
 2857 02f5 A9000000 		.4byte	0xa9
 2858 02f9 06       		.byte	0x6
 2859 02fa 0E       		.uleb128 0xe
 2860 02fb 200B0000 		.4byte	.LASF45
 2861 02ff 05       		.byte	0x5
 2862 0300 22       		.byte	0x22
 2863 0301 A9000000 		.4byte	0xa9
 2864 0305 08       		.byte	0x8
 2865 0306 0E       		.uleb128 0xe
 2866 0307 320B0000 		.4byte	.LASF46
 2867 030b 05       		.byte	0x5
 2868 030c 23       		.byte	0x23
 2869 030d BF000000 		.4byte	0xbf
 2870 0311 0C       		.byte	0xc
 2871 0312 0E       		.uleb128 0xe
 2872 0313 920A0000 		.4byte	.LASF47
 2873 0317 05       		.byte	0x5
 2874 0318 23       		.byte	0x23
 2875 0319 BF000000 		.4byte	0xbf
 2876 031d 10       		.byte	0x10
 2877 031e 0E       		.uleb128 0xe
 2878 031f 00000000 		.4byte	.LASF48
 2879 0323 05       		.byte	0x5
 2880 0324 23       		.byte	0x23
 2881 0325 BF000000 		.4byte	0xbf
 2882 0329 14       		.byte	0x14
 2883 032a 00       		.byte	0
 2884 032b 0F       		.uleb128 0xf
 2885 032c 790B0000 		.4byte	.LASF160
 2886 0330 01       		.byte	0x1
 2887 0331 3E000000 		.4byte	0x3e
 2888 0335 05       		.byte	0x5
 2889 0336 27       		.byte	0x27
 2890 0337 48030000 		.4byte	0x348
 2891 033b 10       		.uleb128 0x10
 2892 033c 9C080000 		.4byte	.LASF49
 2893 0340 00       		.byte	0
 2894 0341 10       		.uleb128 0x10
 2895 0342 46010000 		.4byte	.LASF50
ARM GAS  C:\Users\hejmi\AppData\Local\Temp\ccFM6jcL.s 			page 66


 2896 0346 01       		.byte	0x1
 2897 0347 00       		.byte	0
 2898 0348 11       		.uleb128 0x11
 2899 0349 AF040000 		.4byte	.LASF51
 2900 034d 10       		.byte	0x10
 2901 034e 06       		.byte	0x6
 2902 034f 1D       		.byte	0x1d
 2903 0350 F9060000 		.4byte	0x6f9
 2904 0354 0D       		.uleb128 0xd
 2905 0355 49324300 		.ascii	"I2C\000"
 2906 0359 06       		.byte	0x6
 2907 035a 3F       		.byte	0x3f
 2908 035b DF000000 		.4byte	0xdf
 2909 035f 00       		.byte	0
 2910 0360 0E       		.uleb128 0xe
 2911 0361 F9070000 		.4byte	.LASF52
 2912 0365 06       		.byte	0x6
 2913 0366 41       		.byte	0x41
 2914 0367 A9000000 		.4byte	0xa9
 2915 036b 02       		.byte	0x2
 2916 036c 0E       		.uleb128 0xe
 2917 036d CF010000 		.4byte	.LASF53
 2918 0371 06       		.byte	0x6
 2919 0372 42       		.byte	0x42
 2920 0373 9E000000 		.4byte	0x9e
 2921 0377 04       		.byte	0x4
 2922 0378 0E       		.uleb128 0xe
 2923 0379 0F060000 		.4byte	.LASF54
 2924 037d 06       		.byte	0x6
 2925 037e 44       		.byte	0x44
 2926 037f BF000000 		.4byte	0xbf
 2927 0383 08       		.byte	0x8
 2928 0384 0E       		.uleb128 0xe
 2929 0385 AB090000 		.4byte	.LASF55
 2930 0389 06       		.byte	0x6
 2931 038a 45       		.byte	0x45
 2932 038b A9000000 		.4byte	0xa9
 2933 038f 0C       		.byte	0xc
 2934 0390 0E       		.uleb128 0xe
 2935 0391 76090000 		.4byte	.LASF56
 2936 0395 06       		.byte	0x6
 2937 0396 46       		.byte	0x46
 2938 0397 9E000000 		.4byte	0x9e
 2939 039b 0E       		.byte	0xe
 2940 039c 12       		.uleb128 0x12
 2941 039d AF040000 		.4byte	.LASF51
 2942 03a1 06       		.byte	0x6
 2943 03a2 20       		.byte	0x20
 2944 03a3 B5040000 		.4byte	.LASF57
 2945 03a7 F9060000 		.4byte	0x6f9
 2946 03ab 01       		.byte	0x1
 2947 03ac B4030000 		.4byte	0x3b4
 2948 03b0 BF030000 		.4byte	0x3bf
 2949 03b4 07       		.uleb128 0x7
 2950 03b5 F9060000 		.4byte	0x6f9
 2951 03b9 09       		.uleb128 0x9
 2952 03ba 9E000000 		.4byte	0x9e
ARM GAS  C:\Users\hejmi\AppData\Local\Temp\ccFM6jcL.s 			page 67


 2953 03be 00       		.byte	0
 2954 03bf 12       		.uleb128 0x12
 2955 03c0 AF040000 		.4byte	.LASF51
 2956 03c4 06       		.byte	0x6
 2957 03c5 21       		.byte	0x21
 2958 03c6 D8040000 		.4byte	.LASF58
 2959 03ca F9060000 		.4byte	0x6f9
 2960 03ce 01       		.byte	0x1
 2961 03cf D7030000 		.4byte	0x3d7
 2962 03d3 DD030000 		.4byte	0x3dd
 2963 03d7 07       		.uleb128 0x7
 2964 03d8 F9060000 		.4byte	0x6f9
 2965 03dc 00       		.byte	0
 2966 03dd 08       		.uleb128 0x8
 2967 03de 2C060000 		.4byte	.LASF59
 2968 03e2 06       		.byte	0x6
 2969 03e3 24       		.byte	0x24
 2970 03e4 8C090000 		.4byte	.LASF60
 2971 03e8 01       		.byte	0x1
 2972 03e9 F1030000 		.4byte	0x3f1
 2973 03ed FC030000 		.4byte	0x3fc
 2974 03f1 07       		.uleb128 0x7
 2975 03f2 F9060000 		.4byte	0x6f9
 2976 03f6 09       		.uleb128 0x9
 2977 03f7 A9000000 		.4byte	0xa9
 2978 03fb 00       		.byte	0
 2979 03fc 12       		.uleb128 0x12
 2980 03fd 00080000 		.4byte	.LASF61
 2981 0401 06       		.byte	0x6
 2982 0402 25       		.byte	0x25
 2983 0403 E1050000 		.4byte	.LASF62
 2984 0407 A9000000 		.4byte	0xa9
 2985 040b 01       		.byte	0x1
 2986 040c 14040000 		.4byte	0x414
 2987 0410 1A040000 		.4byte	0x41a
 2988 0414 07       		.uleb128 0x7
 2989 0415 F9060000 		.4byte	0x6f9
 2990 0419 00       		.byte	0
 2991 041a 08       		.uleb128 0x8
 2992 041b C8040000 		.4byte	.LASF63
 2993 041f 06       		.byte	0x6
 2994 0420 26       		.byte	0x26
 2995 0421 59090000 		.4byte	.LASF64
 2996 0425 01       		.byte	0x1
 2997 0426 2E040000 		.4byte	0x42e
 2998 042a 39040000 		.4byte	0x439
 2999 042e 07       		.uleb128 0x7
 3000 042f F9060000 		.4byte	0x6f9
 3001 0433 09       		.uleb128 0x9
 3002 0434 BF000000 		.4byte	0xbf
 3003 0438 00       		.byte	0
 3004 0439 08       		.uleb128 0x8
 3005 043a 66060000 		.4byte	.LASF65
 3006 043e 06       		.byte	0x6
 3007 043f 27       		.byte	0x27
 3008 0440 C5050000 		.4byte	.LASF66
 3009 0444 01       		.byte	0x1
ARM GAS  C:\Users\hejmi\AppData\Local\Temp\ccFM6jcL.s 			page 68


 3010 0445 4D040000 		.4byte	0x44d
 3011 0449 53040000 		.4byte	0x453
 3012 044d 07       		.uleb128 0x7
 3013 044e F9060000 		.4byte	0x6f9
 3014 0452 00       		.byte	0
 3015 0453 12       		.uleb128 0x12
 3016 0454 69070000 		.4byte	.LASF67
 3017 0458 06       		.byte	0x6
 3018 0459 28       		.byte	0x28
 3019 045a A3010000 		.4byte	.LASF68
 3020 045e A9000000 		.4byte	0xa9
 3021 0462 01       		.byte	0x1
 3022 0463 6B040000 		.4byte	0x46b
 3023 0467 71040000 		.4byte	0x471
 3024 046b 07       		.uleb128 0x7
 3025 046c F9060000 		.4byte	0x6f9
 3026 0470 00       		.byte	0
 3027 0471 12       		.uleb128 0x12
 3028 0472 A3030000 		.4byte	.LASF69
 3029 0476 06       		.byte	0x6
 3030 0477 2B       		.byte	0x2b
 3031 0478 88070000 		.4byte	.LASF70
 3032 047c B7020000 		.4byte	0x2b7
 3033 0480 01       		.byte	0x1
 3034 0481 89040000 		.4byte	0x489
 3035 0485 94040000 		.4byte	0x494
 3036 0489 07       		.uleb128 0x7
 3037 048a F9060000 		.4byte	0x6f9
 3038 048e 09       		.uleb128 0x9
 3039 048f B7020000 		.4byte	0x2b7
 3040 0493 00       		.byte	0
 3041 0494 08       		.uleb128 0x8
 3042 0495 420B0000 		.4byte	.LASF71
 3043 0499 06       		.byte	0x6
 3044 049a 2C       		.byte	0x2c
 3045 049b 6A080000 		.4byte	.LASF72
 3046 049f 01       		.byte	0x1
 3047 04a0 A8040000 		.4byte	0x4a8
 3048 04a4 AE040000 		.4byte	0x4ae
 3049 04a8 07       		.uleb128 0x7
 3050 04a9 F9060000 		.4byte	0x6f9
 3051 04ad 00       		.byte	0
 3052 04ae 08       		.uleb128 0x8
 3053 04af 7E020000 		.4byte	.LASF73
 3054 04b3 06       		.byte	0x6
 3055 04b4 2D       		.byte	0x2d
 3056 04b5 48070000 		.4byte	.LASF74
 3057 04b9 01       		.byte	0x1
 3058 04ba C2040000 		.4byte	0x4c2
 3059 04be C8040000 		.4byte	0x4c8
 3060 04c2 07       		.uleb128 0x7
 3061 04c3 F9060000 		.4byte	0x6f9
 3062 04c7 00       		.byte	0
 3063 04c8 08       		.uleb128 0x8
 3064 04c9 A6040000 		.4byte	.LASF75
 3065 04cd 06       		.byte	0x6
 3066 04ce 2E       		.byte	0x2e
ARM GAS  C:\Users\hejmi\AppData\Local\Temp\ccFM6jcL.s 			page 69


 3067 04cf 32050000 		.4byte	.LASF76
 3068 04d3 01       		.byte	0x1
 3069 04d4 DC040000 		.4byte	0x4dc
 3070 04d8 E7040000 		.4byte	0x4e7
 3071 04dc 07       		.uleb128 0x7
 3072 04dd F9060000 		.4byte	0x6f9
 3073 04e1 09       		.uleb128 0x9
 3074 04e2 B7020000 		.4byte	0x2b7
 3075 04e6 00       		.byte	0
 3076 04e7 08       		.uleb128 0x8
 3077 04e8 D40B0000 		.4byte	.LASF77
 3078 04ec 06       		.byte	0x6
 3079 04ed 2F       		.byte	0x2f
 3080 04ee 4A0A0000 		.4byte	.LASF78
 3081 04f2 01       		.byte	0x1
 3082 04f3 FB040000 		.4byte	0x4fb
 3083 04f7 01050000 		.4byte	0x501
 3084 04fb 07       		.uleb128 0x7
 3085 04fc F9060000 		.4byte	0x6f9
 3086 0500 00       		.byte	0
 3087 0501 08       		.uleb128 0x8
 3088 0502 58060000 		.4byte	.LASF79
 3089 0506 06       		.byte	0x6
 3090 0507 30       		.byte	0x30
 3091 0508 DE070000 		.4byte	.LASF80
 3092 050c 01       		.byte	0x1
 3093 050d 15050000 		.4byte	0x515
 3094 0511 1B050000 		.4byte	0x51b
 3095 0515 07       		.uleb128 0x7
 3096 0516 F9060000 		.4byte	0x6f9
 3097 051a 00       		.byte	0
 3098 051b 08       		.uleb128 0x8
 3099 051c 31070000 		.4byte	.LASF81
 3100 0520 06       		.byte	0x6
 3101 0521 31       		.byte	0x31
 3102 0522 EF020000 		.4byte	.LASF82
 3103 0526 01       		.byte	0x1
 3104 0527 2F050000 		.4byte	0x52f
 3105 052b 3A050000 		.4byte	0x53a
 3106 052f 07       		.uleb128 0x7
 3107 0530 F9060000 		.4byte	0x6f9
 3108 0534 09       		.uleb128 0x9
 3109 0535 FF060000 		.4byte	0x6ff
 3110 0539 00       		.byte	0
 3111 053a 08       		.uleb128 0x8
 3112 053b 00020000 		.4byte	.LASF83
 3113 053f 06       		.byte	0x6
 3114 0540 32       		.byte	0x32
 3115 0541 9D020000 		.4byte	.LASF84
 3116 0545 01       		.byte	0x1
 3117 0546 4E050000 		.4byte	0x54e
 3118 054a 5E050000 		.4byte	0x55e
 3119 054e 07       		.uleb128 0x7
 3120 054f F9060000 		.4byte	0x6f9
 3121 0553 09       		.uleb128 0x9
 3122 0554 05070000 		.4byte	0x705
 3123 0558 09       		.uleb128 0x9
ARM GAS  C:\Users\hejmi\AppData\Local\Temp\ccFM6jcL.s 			page 70


 3124 0559 10070000 		.4byte	0x710
 3125 055d 00       		.byte	0
 3126 055e 12       		.uleb128 0x12
 3127 055f 360A0000 		.4byte	.LASF85
 3128 0563 06       		.byte	0x6
 3129 0564 33       		.byte	0x33
 3130 0565 B1060000 		.4byte	.LASF86
 3131 0569 9E000000 		.4byte	0x9e
 3132 056d 01       		.byte	0x1
 3133 056e 76050000 		.4byte	0x576
 3134 0572 81050000 		.4byte	0x581
 3135 0576 07       		.uleb128 0x7
 3136 0577 F9060000 		.4byte	0x6f9
 3137 057b 09       		.uleb128 0x9
 3138 057c 2B030000 		.4byte	0x32b
 3139 0580 00       		.byte	0
 3140 0581 12       		.uleb128 0x12
 3141 0582 37060000 		.4byte	.LASF87
 3142 0586 06       		.byte	0x6
 3143 0587 34       		.byte	0x34
 3144 0588 65050000 		.4byte	.LASF88
 3145 058c BF000000 		.4byte	0xbf
 3146 0590 01       		.byte	0x1
 3147 0591 99050000 		.4byte	0x599
 3148 0595 9F050000 		.4byte	0x59f
 3149 0599 07       		.uleb128 0x7
 3150 059a F9060000 		.4byte	0x6f9
 3151 059e 00       		.byte	0
 3152 059f 12       		.uleb128 0x12
 3153 05a0 D9030000 		.4byte	.LASF89
 3154 05a4 06       		.byte	0x6
 3155 05a5 35       		.byte	0x35
 3156 05a6 09050000 		.4byte	.LASF90
 3157 05aa BF000000 		.4byte	0xbf
 3158 05ae 01       		.byte	0x1
 3159 05af B7050000 		.4byte	0x5b7
 3160 05b3 C7050000 		.4byte	0x5c7
 3161 05b7 07       		.uleb128 0x7
 3162 05b8 F9060000 		.4byte	0x6f9
 3163 05bc 09       		.uleb128 0x9
 3164 05bd A9000000 		.4byte	0xa9
 3165 05c1 09       		.uleb128 0x9
 3166 05c2 9E000000 		.4byte	0x9e
 3167 05c6 00       		.byte	0
 3168 05c7 12       		.uleb128 0x12
 3169 05c8 F4030000 		.4byte	.LASF91
 3170 05cc 06       		.byte	0x6
 3171 05cd 36       		.byte	0x36
 3172 05ce 75060000 		.4byte	.LASF92
 3173 05d2 BF000000 		.4byte	0xbf
 3174 05d6 01       		.byte	0x1
 3175 05d7 DF050000 		.4byte	0x5df
 3176 05db EF050000 		.4byte	0x5ef
 3177 05df 07       		.uleb128 0x7
 3178 05e0 F9060000 		.4byte	0x6f9
 3179 05e4 09       		.uleb128 0x9
 3180 05e5 BF000000 		.4byte	0xbf
ARM GAS  C:\Users\hejmi\AppData\Local\Temp\ccFM6jcL.s 			page 71


 3181 05e9 09       		.uleb128 0x9
 3182 05ea 9E000000 		.4byte	0x9e
 3183 05ee 00       		.byte	0
 3184 05ef 12       		.uleb128 0x12
 3185 05f0 BE070000 		.4byte	.LASF93
 3186 05f4 06       		.byte	0x6
 3187 05f5 37       		.byte	0x37
 3188 05f6 0C070000 		.4byte	.LASF94
 3189 05fa B7020000 		.4byte	0x2b7
 3190 05fe 01       		.byte	0x1
 3191 05ff 07060000 		.4byte	0x607
 3192 0603 12060000 		.4byte	0x612
 3193 0607 07       		.uleb128 0x7
 3194 0608 F9060000 		.4byte	0x6f9
 3195 060c 09       		.uleb128 0x9
 3196 060d 25000000 		.4byte	0x25
 3197 0611 00       		.byte	0
 3198 0612 12       		.uleb128 0x12
 3199 0613 32040000 		.4byte	.LASF95
 3200 0617 06       		.byte	0x6
 3201 0618 38       		.byte	0x38
 3202 0619 51000000 		.4byte	.LASF96
 3203 061d B7020000 		.4byte	0x2b7
 3204 0621 01       		.byte	0x1
 3205 0622 2A060000 		.4byte	0x62a
 3206 0626 3A060000 		.4byte	0x63a
 3207 062a 07       		.uleb128 0x7
 3208 062b F9060000 		.4byte	0x6f9
 3209 062f 09       		.uleb128 0x9
 3210 0630 68020000 		.4byte	0x268
 3211 0634 09       		.uleb128 0x9
 3212 0635 16070000 		.4byte	0x716
 3213 0639 00       		.byte	0
 3214 063a 12       		.uleb128 0x12
 3215 063b 95030000 		.4byte	.LASF97
 3216 063f 06       		.byte	0x6
 3217 0640 39       		.byte	0x39
 3218 0641 5E0B0000 		.4byte	.LASF98
 3219 0645 A9000000 		.4byte	0xa9
 3220 0649 01       		.byte	0x1
 3221 064a 52060000 		.4byte	0x652
 3222 064e 5D060000 		.4byte	0x65d
 3223 0652 07       		.uleb128 0x7
 3224 0653 F9060000 		.4byte	0x6f9
 3225 0657 09       		.uleb128 0x9
 3226 0658 A9000000 		.4byte	0xa9
 3227 065c 00       		.byte	0
 3228 065d 12       		.uleb128 0x12
 3229 065e 18020000 		.4byte	.LASF99
 3230 0662 06       		.byte	0x6
 3231 0663 3A       		.byte	0x3a
 3232 0664 6A0A0000 		.4byte	.LASF100
 3233 0668 B7020000 		.4byte	0x2b7
 3234 066c 01       		.byte	0x1
 3235 066d 75060000 		.4byte	0x675
 3236 0671 80060000 		.4byte	0x680
 3237 0675 07       		.uleb128 0x7
ARM GAS  C:\Users\hejmi\AppData\Local\Temp\ccFM6jcL.s 			page 72


 3238 0676 F9060000 		.4byte	0x6f9
 3239 067a 09       		.uleb128 0x9
 3240 067b BF000000 		.4byte	0xbf
 3241 067f 00       		.byte	0
 3242 0680 12       		.uleb128 0x12
 3243 0681 68020000 		.4byte	.LASF101
 3244 0685 06       		.byte	0x6
 3245 0686 3B       		.byte	0x3b
 3246 0687 9D050000 		.4byte	.LASF102
 3247 068b B7020000 		.4byte	0x2b7
 3248 068f 01       		.byte	0x1
 3249 0690 98060000 		.4byte	0x698
 3250 0694 9E060000 		.4byte	0x69e
 3251 0698 07       		.uleb128 0x7
 3252 0699 F9060000 		.4byte	0x6f9
 3253 069d 00       		.byte	0
 3254 069e 12       		.uleb128 0x12
 3255 069f B50A0000 		.4byte	.LASF103
 3256 06a3 06       		.byte	0x6
 3257 06a4 3C       		.byte	0x3c
 3258 06a5 B6090000 		.4byte	.LASF104
 3259 06a9 A9000000 		.4byte	0xa9
 3260 06ad 01       		.byte	0x1
 3261 06ae B6060000 		.4byte	0x6b6
 3262 06b2 C1060000 		.4byte	0x6c1
 3263 06b6 07       		.uleb128 0x7
 3264 06b7 F9060000 		.4byte	0x6f9
 3265 06bb 09       		.uleb128 0x9
 3266 06bc A9000000 		.4byte	0xa9
 3267 06c0 00       		.byte	0
 3268 06c1 13       		.uleb128 0x13
 3269 06c2 0B080000 		.4byte	.LASF106
 3270 06c6 06       		.byte	0x6
 3271 06c7 40       		.byte	0x40
 3272 06c8 21080000 		.4byte	.LASF108
 3273 06cc D4060000 		.4byte	0x6d4
 3274 06d0 DA060000 		.4byte	0x6da
 3275 06d4 07       		.uleb128 0x7
 3276 06d5 F9060000 		.4byte	0x6f9
 3277 06d9 00       		.byte	0
 3278 06da 14       		.uleb128 0x14
 3279 06db 25000000 		.4byte	.LASF109
 3280 06df 06       		.byte	0x6
 3281 06e0 43       		.byte	0x43
 3282 06e1 71010000 		.4byte	.LASF110
 3283 06e5 B7020000 		.4byte	0x2b7
 3284 06e9 ED060000 		.4byte	0x6ed
 3285 06ed 07       		.uleb128 0x7
 3286 06ee F9060000 		.4byte	0x6f9
 3287 06f2 09       		.uleb128 0x9
 3288 06f3 9E000000 		.4byte	0x9e
 3289 06f7 00       		.byte	0
 3290 06f8 00       		.byte	0
 3291 06f9 0B       		.uleb128 0xb
 3292 06fa 04       		.byte	0x4
 3293 06fb 48030000 		.4byte	0x348
 3294 06ff 0B       		.uleb128 0xb
ARM GAS  C:\Users\hejmi\AppData\Local\Temp\ccFM6jcL.s 			page 73


 3295 0700 04       		.byte	0x4
 3296 0701 6E020000 		.4byte	0x26e
 3297 0705 0B       		.uleb128 0xb
 3298 0706 04       		.byte	0x4
 3299 0707 0B070000 		.4byte	0x70b
 3300 070b 15       		.uleb128 0x15
 3301 070c 6E020000 		.4byte	0x26e
 3302 0710 0B       		.uleb128 0xb
 3303 0711 04       		.byte	0x4
 3304 0712 BE020000 		.4byte	0x2be
 3305 0716 0B       		.uleb128 0xb
 3306 0717 04       		.byte	0x4
 3307 0718 B7020000 		.4byte	0x2b7
 3308 071c 16       		.uleb128 0x16
 3309 071d 1A040000 		.4byte	0x41a
 3310 0721 01       		.byte	0x1
 3311 0722 17       		.byte	0x17
 3312 0723 00000000 		.4byte	.LFB74
 3313 0727 CA000000 		.4byte	.LFE74-.LFB74
 3314 072b 01       		.uleb128 0x1
 3315 072c 9C       		.byte	0x9c
 3316 072d 35070000 		.4byte	0x735
 3317 0731 CE080000 		.4byte	0x8ce
 3318 0735 17       		.uleb128 0x17
 3319 0736 2C070000 		.4byte	.LASF113
 3320 073a CE080000 		.4byte	0x8ce
 3321 073e 00000000 		.4byte	.LLST0
 3322 0742 18       		.uleb128 0x18
 3323 0743 C30A0000 		.4byte	.LASF116
 3324 0747 01       		.byte	0x1
 3325 0748 17       		.byte	0x17
 3326 0749 BF000000 		.4byte	0xbf
 3327 074d 1E000000 		.4byte	.LLST1
 3328 0751 19       		.uleb128 0x19
 3329 0752 5C000000 		.4byte	.LBB3
 3330 0756 5C000000 		.4byte	.LBE3-.LBB3
 3331 075a E1070000 		.4byte	0x7e1
 3332 075e 1A       		.uleb128 0x1a
 3333 075f 86040000 		.4byte	.LASF111
 3334 0763 01       		.byte	0x1
 3335 0764 24       		.byte	0x24
 3336 0765 D3080000 		.4byte	0x8d3
 3337 0769 02       		.uleb128 0x2
 3338 076a 91       		.byte	0x91
 3339 076b 6C       		.sleb128 -20
 3340 076c 1B       		.uleb128 0x1b
 3341 076d 39020000 		.4byte	.LASF112
 3342 0771 01       		.byte	0x1
 3343 0772 28       		.byte	0x28
 3344 0773 A9000000 		.4byte	0xa9
 3345 0777 47000000 		.4byte	.LLST2
 3346 077b 1C       		.uleb128 0x1c
 3347 077c 72000000 		.4byte	.LVL9
 3348 0780 09010000 		.4byte	0x109
 3349 0784 A1070000 		.4byte	0x7a1
 3350 0788 1D       		.uleb128 0x1d
 3351 0789 01       		.uleb128 0x1
ARM GAS  C:\Users\hejmi\AppData\Local\Temp\ccFM6jcL.s 			page 74


 3352 078a 50       		.byte	0x50
 3353 078b 02       		.uleb128 0x2
 3354 078c 74       		.byte	0x74
 3355 078d 00       		.sleb128 0
 3356 078e 1D       		.uleb128 0x1d
 3357 078f 01       		.uleb128 0x1
 3358 0790 52       		.byte	0x52
 3359 0791 02       		.uleb128 0x2
 3360 0792 09       		.byte	0x9
 3361 0793 F8       		.byte	0xf8
 3362 0794 1D       		.uleb128 0x1d
 3363 0795 01       		.uleb128 0x1
 3364 0796 53       		.byte	0x53
 3365 0797 01       		.uleb128 0x1
 3366 0798 32       		.byte	0x32
 3367 0799 1D       		.uleb128 0x1d
 3368 079a 02       		.uleb128 0x2
 3369 079b 7D       		.byte	0x7d
 3370 079c 00       		.sleb128 0
 3371 079d 02       		.uleb128 0x2
 3372 079e 91       		.byte	0x91
 3373 079f 6C       		.sleb128 -20
 3374 07a0 00       		.byte	0
 3375 07a1 1C       		.uleb128 0x1c
 3376 07a2 AC000000 		.4byte	.LVL15
 3377 07a6 60010000 		.4byte	0x160
 3378 07aa C6070000 		.4byte	0x7c6
 3379 07ae 1D       		.uleb128 0x1d
 3380 07af 01       		.uleb128 0x1
 3381 07b0 50       		.byte	0x50
 3382 07b1 02       		.uleb128 0x2
 3383 07b2 74       		.byte	0x74
 3384 07b3 00       		.sleb128 0
 3385 07b4 1D       		.uleb128 0x1d
 3386 07b5 01       		.uleb128 0x1
 3387 07b6 52       		.byte	0x52
 3388 07b7 01       		.uleb128 0x1
 3389 07b8 34       		.byte	0x34
 3390 07b9 1D       		.uleb128 0x1d
 3391 07ba 01       		.uleb128 0x1
 3392 07bb 53       		.byte	0x53
 3393 07bc 01       		.uleb128 0x1
 3394 07bd 34       		.byte	0x34
 3395 07be 1D       		.uleb128 0x1d
 3396 07bf 02       		.uleb128 0x2
 3397 07c0 7D       		.byte	0x7d
 3398 07c1 00       		.sleb128 0
 3399 07c2 02       		.uleb128 0x2
 3400 07c3 91       		.byte	0x91
 3401 07c4 6C       		.sleb128 -20
 3402 07c5 00       		.byte	0
 3403 07c6 1E       		.uleb128 0x1e
 3404 07c7 B8000000 		.4byte	.LVL16
 3405 07cb 8E010000 		.4byte	0x18e
 3406 07cf 1D       		.uleb128 0x1d
 3407 07d0 01       		.uleb128 0x1
 3408 07d1 50       		.byte	0x50
ARM GAS  C:\Users\hejmi\AppData\Local\Temp\ccFM6jcL.s 			page 75


 3409 07d2 02       		.uleb128 0x2
 3410 07d3 74       		.byte	0x74
 3411 07d4 00       		.sleb128 0
 3412 07d5 1D       		.uleb128 0x1d
 3413 07d6 01       		.uleb128 0x1
 3414 07d7 52       		.byte	0x52
 3415 07d8 01       		.uleb128 0x1
 3416 07d9 30       		.byte	0x30
 3417 07da 1D       		.uleb128 0x1d
 3418 07db 01       		.uleb128 0x1
 3419 07dc 53       		.byte	0x53
 3420 07dd 01       		.uleb128 0x1
 3421 07de 34       		.byte	0x34
 3422 07df 00       		.byte	0
 3423 07e0 00       		.byte	0
 3424 07e1 1C       		.uleb128 0x1c
 3425 07e2 12000000 		.4byte	.LVL2
 3426 07e6 8E010000 		.4byte	0x18e
 3427 07ea 00080000 		.4byte	0x800
 3428 07ee 1D       		.uleb128 0x1d
 3429 07ef 01       		.uleb128 0x1
 3430 07f0 50       		.byte	0x50
 3431 07f1 02       		.uleb128 0x2
 3432 07f2 74       		.byte	0x74
 3433 07f3 00       		.sleb128 0
 3434 07f4 1D       		.uleb128 0x1d
 3435 07f5 01       		.uleb128 0x1
 3436 07f6 52       		.byte	0x52
 3437 07f7 02       		.uleb128 0x2
 3438 07f8 09       		.byte	0x9
 3439 07f9 80       		.byte	0x80
 3440 07fa 1D       		.uleb128 0x1d
 3441 07fb 01       		.uleb128 0x1
 3442 07fc 53       		.byte	0x53
 3443 07fd 01       		.uleb128 0x1
 3444 07fe 31       		.byte	0x31
 3445 07ff 00       		.byte	0
 3446 0800 1C       		.uleb128 0x1c
 3447 0801 1E000000 		.4byte	.LVL3
 3448 0805 8E010000 		.4byte	0x18e
 3449 0809 1F080000 		.4byte	0x81f
 3450 080d 1D       		.uleb128 0x1d
 3451 080e 01       		.uleb128 0x1
 3452 080f 50       		.byte	0x50
 3453 0810 02       		.uleb128 0x2
 3454 0811 74       		.byte	0x74
 3455 0812 00       		.sleb128 0
 3456 0813 1D       		.uleb128 0x1d
 3457 0814 01       		.uleb128 0x1
 3458 0815 52       		.byte	0x52
 3459 0816 02       		.uleb128 0x2
 3460 0817 09       		.byte	0x9
 3461 0818 FF       		.byte	0xff
 3462 0819 1D       		.uleb128 0x1d
 3463 081a 01       		.uleb128 0x1
 3464 081b 53       		.byte	0x53
 3465 081c 01       		.uleb128 0x1
ARM GAS  C:\Users\hejmi\AppData\Local\Temp\ccFM6jcL.s 			page 76


 3466 081d 31       		.byte	0x31
 3467 081e 00       		.byte	0
 3468 081f 1C       		.uleb128 0x1c
 3469 0820 2A000000 		.4byte	.LVL4
 3470 0824 8E010000 		.4byte	0x18e
 3471 0828 3D080000 		.4byte	0x83d
 3472 082c 1D       		.uleb128 0x1d
 3473 082d 01       		.uleb128 0x1
 3474 082e 50       		.byte	0x50
 3475 082f 02       		.uleb128 0x2
 3476 0830 74       		.byte	0x74
 3477 0831 00       		.sleb128 0
 3478 0832 1D       		.uleb128 0x1d
 3479 0833 01       		.uleb128 0x1
 3480 0834 52       		.byte	0x52
 3481 0835 01       		.uleb128 0x1
 3482 0836 30       		.byte	0x30
 3483 0837 1D       		.uleb128 0x1d
 3484 0838 01       		.uleb128 0x1
 3485 0839 53       		.byte	0x53
 3486 083a 01       		.uleb128 0x1
 3487 083b 30       		.byte	0x30
 3488 083c 00       		.byte	0
 3489 083d 1C       		.uleb128 0x1c
 3490 083e 36000000 		.4byte	.LVL5
 3491 0842 8E010000 		.4byte	0x18e
 3492 0846 57080000 		.4byte	0x857
 3493 084a 1D       		.uleb128 0x1d
 3494 084b 01       		.uleb128 0x1
 3495 084c 50       		.byte	0x50
 3496 084d 02       		.uleb128 0x2
 3497 084e 74       		.byte	0x74
 3498 084f 00       		.sleb128 0
 3499 0850 1D       		.uleb128 0x1d
 3500 0851 01       		.uleb128 0x1
 3501 0852 52       		.byte	0x52
 3502 0853 02       		.uleb128 0x2
 3503 0854 09       		.byte	0x9
 3504 0855 91       		.byte	0x91
 3505 0856 00       		.byte	0
 3506 0857 1C       		.uleb128 0x1c
 3507 0858 42000000 		.4byte	.LVL6
 3508 085c 8E010000 		.4byte	0x18e
 3509 0860 75080000 		.4byte	0x875
 3510 0864 1D       		.uleb128 0x1d
 3511 0865 01       		.uleb128 0x1
 3512 0866 50       		.byte	0x50
 3513 0867 02       		.uleb128 0x2
 3514 0868 74       		.byte	0x74
 3515 0869 00       		.sleb128 0
 3516 086a 1D       		.uleb128 0x1d
 3517 086b 01       		.uleb128 0x1
 3518 086c 52       		.byte	0x52
 3519 086d 01       		.uleb128 0x1
 3520 086e 30       		.byte	0x30
 3521 086f 1D       		.uleb128 0x1d
 3522 0870 01       		.uleb128 0x1
ARM GAS  C:\Users\hejmi\AppData\Local\Temp\ccFM6jcL.s 			page 77


 3523 0871 53       		.byte	0x53
 3524 0872 01       		.uleb128 0x1
 3525 0873 31       		.byte	0x31
 3526 0874 00       		.byte	0
 3527 0875 1C       		.uleb128 0x1c
 3528 0876 4E000000 		.4byte	.LVL7
 3529 087a 8E010000 		.4byte	0x18e
 3530 087e 94080000 		.4byte	0x894
 3531 0882 1D       		.uleb128 0x1d
 3532 0883 01       		.uleb128 0x1
 3533 0884 50       		.byte	0x50
 3534 0885 02       		.uleb128 0x2
 3535 0886 74       		.byte	0x74
 3536 0887 00       		.sleb128 0
 3537 0888 1D       		.uleb128 0x1d
 3538 0889 01       		.uleb128 0x1
 3539 088a 52       		.byte	0x52
 3540 088b 02       		.uleb128 0x2
 3541 088c 09       		.byte	0x9
 3542 088d FF       		.byte	0xff
 3543 088e 1D       		.uleb128 0x1d
 3544 088f 01       		.uleb128 0x1
 3545 0890 53       		.byte	0x53
 3546 0891 01       		.uleb128 0x1
 3547 0892 30       		.byte	0x30
 3548 0893 00       		.byte	0
 3549 0894 1C       		.uleb128 0x1c
 3550 0895 5A000000 		.4byte	.LVL8
 3551 0899 8E010000 		.4byte	0x18e
 3552 089d B3080000 		.4byte	0x8b3
 3553 08a1 1D       		.uleb128 0x1d
 3554 08a2 01       		.uleb128 0x1
 3555 08a3 50       		.byte	0x50
 3556 08a4 02       		.uleb128 0x2
 3557 08a5 74       		.byte	0x74
 3558 08a6 00       		.sleb128 0
 3559 08a7 1D       		.uleb128 0x1d
 3560 08a8 01       		.uleb128 0x1
 3561 08a9 52       		.byte	0x52
 3562 08aa 02       		.uleb128 0x2
 3563 08ab 09       		.byte	0x9
 3564 08ac 80       		.byte	0x80
 3565 08ad 1D       		.uleb128 0x1d
 3566 08ae 01       		.uleb128 0x1
 3567 08af 53       		.byte	0x53
 3568 08b0 01       		.uleb128 0x1
 3569 08b1 30       		.byte	0x30
 3570 08b2 00       		.byte	0
 3571 08b3 1E       		.uleb128 0x1e
 3572 08b4 C6000000 		.4byte	.LVL18
 3573 08b8 8E010000 		.4byte	0x18e
 3574 08bc 1D       		.uleb128 0x1d
 3575 08bd 01       		.uleb128 0x1
 3576 08be 50       		.byte	0x50
 3577 08bf 02       		.uleb128 0x2
 3578 08c0 74       		.byte	0x74
 3579 08c1 00       		.sleb128 0
ARM GAS  C:\Users\hejmi\AppData\Local\Temp\ccFM6jcL.s 			page 78


 3580 08c2 1D       		.uleb128 0x1d
 3581 08c3 01       		.uleb128 0x1
 3582 08c4 52       		.byte	0x52
 3583 08c5 01       		.uleb128 0x1
 3584 08c6 30       		.byte	0x30
 3585 08c7 1D       		.uleb128 0x1d
 3586 08c8 01       		.uleb128 0x1
 3587 08c9 53       		.byte	0x53
 3588 08ca 01       		.uleb128 0x1
 3589 08cb 32       		.byte	0x32
 3590 08cc 00       		.byte	0
 3591 08cd 00       		.byte	0
 3592 08ce 15       		.uleb128 0x15
 3593 08cf F9060000 		.4byte	0x6f9
 3594 08d3 1F       		.uleb128 0x1f
 3595 08d4 9E000000 		.4byte	0x9e
 3596 08d8 E3080000 		.4byte	0x8e3
 3597 08dc 20       		.uleb128 0x20
 3598 08dd D8000000 		.4byte	0xd8
 3599 08e1 03       		.byte	0x3
 3600 08e2 00       		.byte	0
 3601 08e3 16       		.uleb128 0x16
 3602 08e4 39040000 		.4byte	0x439
 3603 08e8 01       		.byte	0x1
 3604 08e9 48       		.byte	0x48
 3605 08ea 00000000 		.4byte	.LFB75
 3606 08ee 4C000000 		.4byte	.LFE75-.LFB75
 3607 08f2 01       		.uleb128 0x1
 3608 08f3 9C       		.byte	0x9c
 3609 08f4 FC080000 		.4byte	0x8fc
 3610 08f8 BD090000 		.4byte	0x9bd
 3611 08fc 17       		.uleb128 0x17
 3612 08fd 2C070000 		.4byte	.LASF113
 3613 0901 CE080000 		.4byte	0x8ce
 3614 0905 71000000 		.4byte	.LLST3
 3615 0909 1C       		.uleb128 0x1c
 3616 090a 0E000000 		.4byte	.LVL20
 3617 090e 8E010000 		.4byte	0x18e
 3618 0912 27090000 		.4byte	0x927
 3619 0916 1D       		.uleb128 0x1d
 3620 0917 01       		.uleb128 0x1
 3621 0918 50       		.byte	0x50
 3622 0919 02       		.uleb128 0x2
 3623 091a 74       		.byte	0x74
 3624 091b 00       		.sleb128 0
 3625 091c 1D       		.uleb128 0x1d
 3626 091d 01       		.uleb128 0x1
 3627 091e 52       		.byte	0x52
 3628 091f 01       		.uleb128 0x1
 3629 0920 30       		.byte	0x30
 3630 0921 1D       		.uleb128 0x1d
 3631 0922 01       		.uleb128 0x1
 3632 0923 53       		.byte	0x53
 3633 0924 01       		.uleb128 0x1
 3634 0925 31       		.byte	0x31
 3635 0926 00       		.byte	0
 3636 0927 1C       		.uleb128 0x1c
ARM GAS  C:\Users\hejmi\AppData\Local\Temp\ccFM6jcL.s 			page 79


 3637 0928 1A000000 		.4byte	.LVL21
 3638 092c 8E010000 		.4byte	0x18e
 3639 0930 46090000 		.4byte	0x946
 3640 0934 1D       		.uleb128 0x1d
 3641 0935 01       		.uleb128 0x1
 3642 0936 50       		.byte	0x50
 3643 0937 02       		.uleb128 0x2
 3644 0938 74       		.byte	0x74
 3645 0939 00       		.sleb128 0
 3646 093a 1D       		.uleb128 0x1d
 3647 093b 01       		.uleb128 0x1
 3648 093c 52       		.byte	0x52
 3649 093d 02       		.uleb128 0x2
 3650 093e 09       		.byte	0x9
 3651 093f FF       		.byte	0xff
 3652 0940 1D       		.uleb128 0x1d
 3653 0941 01       		.uleb128 0x1
 3654 0942 53       		.byte	0x53
 3655 0943 01       		.uleb128 0x1
 3656 0944 31       		.byte	0x31
 3657 0945 00       		.byte	0
 3658 0946 1C       		.uleb128 0x1c
 3659 0947 26000000 		.4byte	.LVL22
 3660 094b 8E010000 		.4byte	0x18e
 3661 094f 64090000 		.4byte	0x964
 3662 0953 1D       		.uleb128 0x1d
 3663 0954 01       		.uleb128 0x1
 3664 0955 50       		.byte	0x50
 3665 0956 02       		.uleb128 0x2
 3666 0957 74       		.byte	0x74
 3667 0958 00       		.sleb128 0
 3668 0959 1D       		.uleb128 0x1d
 3669 095a 01       		.uleb128 0x1
 3670 095b 52       		.byte	0x52
 3671 095c 01       		.uleb128 0x1
 3672 095d 30       		.byte	0x30
 3673 095e 1D       		.uleb128 0x1d
 3674 095f 01       		.uleb128 0x1
 3675 0960 53       		.byte	0x53
 3676 0961 01       		.uleb128 0x1
 3677 0962 30       		.byte	0x30
 3678 0963 00       		.byte	0
 3679 0964 1C       		.uleb128 0x1c
 3680 0965 32000000 		.4byte	.LVL23
 3681 0969 8E010000 		.4byte	0x18e
 3682 096d 83090000 		.4byte	0x983
 3683 0971 1D       		.uleb128 0x1d
 3684 0972 01       		.uleb128 0x1
 3685 0973 50       		.byte	0x50
 3686 0974 02       		.uleb128 0x2
 3687 0975 74       		.byte	0x74
 3688 0976 00       		.sleb128 0
 3689 0977 1D       		.uleb128 0x1d
 3690 0978 01       		.uleb128 0x1
 3691 0979 52       		.byte	0x52
 3692 097a 02       		.uleb128 0x2
 3693 097b 09       		.byte	0x9
ARM GAS  C:\Users\hejmi\AppData\Local\Temp\ccFM6jcL.s 			page 80


 3694 097c 91       		.byte	0x91
 3695 097d 1D       		.uleb128 0x1d
 3696 097e 01       		.uleb128 0x1
 3697 097f 53       		.byte	0x53
 3698 0980 01       		.uleb128 0x1
 3699 0981 30       		.byte	0x30
 3700 0982 00       		.byte	0
 3701 0983 1C       		.uleb128 0x1c
 3702 0984 3E000000 		.4byte	.LVL24
 3703 0988 8E010000 		.4byte	0x18e
 3704 098c A1090000 		.4byte	0x9a1
 3705 0990 1D       		.uleb128 0x1d
 3706 0991 01       		.uleb128 0x1
 3707 0992 50       		.byte	0x50
 3708 0993 02       		.uleb128 0x2
 3709 0994 74       		.byte	0x74
 3710 0995 00       		.sleb128 0
 3711 0996 1D       		.uleb128 0x1d
 3712 0997 01       		.uleb128 0x1
 3713 0998 52       		.byte	0x52
 3714 0999 01       		.uleb128 0x1
 3715 099a 30       		.byte	0x30
 3716 099b 1D       		.uleb128 0x1d
 3717 099c 01       		.uleb128 0x1
 3718 099d 53       		.byte	0x53
 3719 099e 01       		.uleb128 0x1
 3720 099f 31       		.byte	0x31
 3721 09a0 00       		.byte	0
 3722 09a1 1E       		.uleb128 0x1e
 3723 09a2 4A000000 		.4byte	.LVL25
 3724 09a6 8E010000 		.4byte	0x18e
 3725 09aa 1D       		.uleb128 0x1d
 3726 09ab 01       		.uleb128 0x1
 3727 09ac 50       		.byte	0x50
 3728 09ad 02       		.uleb128 0x2
 3729 09ae 74       		.byte	0x74
 3730 09af 00       		.sleb128 0
 3731 09b0 1D       		.uleb128 0x1d
 3732 09b1 01       		.uleb128 0x1
 3733 09b2 52       		.byte	0x52
 3734 09b3 02       		.uleb128 0x2
 3735 09b4 09       		.byte	0x9
 3736 09b5 FF       		.byte	0xff
 3737 09b6 1D       		.uleb128 0x1d
 3738 09b7 01       		.uleb128 0x1
 3739 09b8 53       		.byte	0x53
 3740 09b9 01       		.uleb128 0x1
 3741 09ba 30       		.byte	0x30
 3742 09bb 00       		.byte	0
 3743 09bc 00       		.byte	0
 3744 09bd 16       		.uleb128 0x16
 3745 09be 53040000 		.4byte	0x453
 3746 09c2 01       		.byte	0x1
 3747 09c3 56       		.byte	0x56
 3748 09c4 00000000 		.4byte	.LFB76
 3749 09c8 56000000 		.4byte	.LFE76-.LFB76
 3750 09cc 01       		.uleb128 0x1
ARM GAS  C:\Users\hejmi\AppData\Local\Temp\ccFM6jcL.s 			page 81


 3751 09cd 9C       		.byte	0x9c
 3752 09ce D6090000 		.4byte	0x9d6
 3753 09d2 6B0A0000 		.4byte	0xa6b
 3754 09d6 17       		.uleb128 0x17
 3755 09d7 2C070000 		.4byte	.LASF113
 3756 09db CE080000 		.4byte	0x8ce
 3757 09df 8F000000 		.4byte	.LLST4
 3758 09e3 21       		.uleb128 0x21
 3759 09e4 746D7000 		.ascii	"tmp\000"
 3760 09e8 01       		.byte	0x1
 3761 09e9 5A       		.byte	0x5a
 3762 09ea 9E000000 		.4byte	0x9e
 3763 09ee 02       		.uleb128 0x2
 3764 09ef 91       		.byte	0x91
 3765 09f0 6F       		.sleb128 -17
 3766 09f1 1A       		.uleb128 0x1a
 3767 09f2 99070000 		.4byte	.LASF114
 3768 09f6 01       		.byte	0x1
 3769 09f7 68       		.byte	0x68
 3770 09f8 6B0A0000 		.4byte	0xa6b
 3771 09fc 02       		.uleb128 0x2
 3772 09fd 91       		.byte	0x91
 3773 09fe 6C       		.sleb128 -20
 3774 09ff 1A       		.uleb128 0x1a
 3775 0a00 52060000 		.4byte	.LASF115
 3776 0a04 01       		.byte	0x1
 3777 0a05 6A       		.byte	0x6a
 3778 0a06 A9000000 		.4byte	0xa9
 3779 0a0a 01       		.uleb128 0x1
 3780 0a0b 55       		.byte	0x55
 3781 0a0c 1C       		.uleb128 0x1c
 3782 0a0d 24000000 		.4byte	.LVL28
 3783 0a11 37010000 		.4byte	0x137
 3784 0a15 2B0A0000 		.4byte	0xa2b
 3785 0a19 1D       		.uleb128 0x1d
 3786 0a1a 01       		.uleb128 0x1
 3787 0a1b 50       		.byte	0x50
 3788 0a1c 02       		.uleb128 0x2
 3789 0a1d 74       		.byte	0x74
 3790 0a1e 00       		.sleb128 0
 3791 0a1f 1D       		.uleb128 0x1d
 3792 0a20 01       		.uleb128 0x1
 3793 0a21 52       		.byte	0x52
 3794 0a22 01       		.uleb128 0x1
 3795 0a23 43       		.byte	0x43
 3796 0a24 1D       		.uleb128 0x1d
 3797 0a25 01       		.uleb128 0x1
 3798 0a26 53       		.byte	0x53
 3799 0a27 02       		.uleb128 0x2
 3800 0a28 91       		.byte	0x91
 3801 0a29 6F       		.sleb128 -17
 3802 0a2a 00       		.byte	0
 3803 0a2b 1C       		.uleb128 0x1c
 3804 0a2c 36000000 		.4byte	.LVL29
 3805 0a30 09010000 		.4byte	0x109
 3806 0a34 500A0000 		.4byte	0xa50
 3807 0a38 1D       		.uleb128 0x1d
ARM GAS  C:\Users\hejmi\AppData\Local\Temp\ccFM6jcL.s 			page 82


 3808 0a39 01       		.uleb128 0x1
 3809 0a3a 50       		.byte	0x50
 3810 0a3b 02       		.uleb128 0x2
 3811 0a3c 74       		.byte	0x74
 3812 0a3d 00       		.sleb128 0
 3813 0a3e 1D       		.uleb128 0x1d
 3814 0a3f 01       		.uleb128 0x1
 3815 0a40 52       		.byte	0x52
 3816 0a41 01       		.uleb128 0x1
 3817 0a42 4E       		.byte	0x4e
 3818 0a43 1D       		.uleb128 0x1d
 3819 0a44 01       		.uleb128 0x1
 3820 0a45 53       		.byte	0x53
 3821 0a46 01       		.uleb128 0x1
 3822 0a47 32       		.byte	0x32
 3823 0a48 1D       		.uleb128 0x1d
 3824 0a49 02       		.uleb128 0x2
 3825 0a4a 7D       		.byte	0x7d
 3826 0a4b 00       		.sleb128 0
 3827 0a4c 02       		.uleb128 0x2
 3828 0a4d 91       		.byte	0x91
 3829 0a4e 6C       		.sleb128 -20
 3830 0a4f 00       		.byte	0
 3831 0a50 1E       		.uleb128 0x1e
 3832 0a51 50000000 		.4byte	.LVL31
 3833 0a55 8E010000 		.4byte	0x18e
 3834 0a59 1D       		.uleb128 0x1d
 3835 0a5a 01       		.uleb128 0x1
 3836 0a5b 50       		.byte	0x50
 3837 0a5c 02       		.uleb128 0x2
 3838 0a5d 74       		.byte	0x74
 3839 0a5e 00       		.sleb128 0
 3840 0a5f 1D       		.uleb128 0x1d
 3841 0a60 01       		.uleb128 0x1
 3842 0a61 52       		.byte	0x52
 3843 0a62 01       		.uleb128 0x1
 3844 0a63 3B       		.byte	0x3b
 3845 0a64 1D       		.uleb128 0x1d
 3846 0a65 01       		.uleb128 0x1
 3847 0a66 53       		.byte	0x53
 3848 0a67 01       		.uleb128 0x1
 3849 0a68 31       		.byte	0x31
 3850 0a69 00       		.byte	0
 3851 0a6a 00       		.byte	0
 3852 0a6b 1F       		.uleb128 0x1f
 3853 0a6c 9E000000 		.4byte	0x9e
 3854 0a70 7B0A0000 		.4byte	0xa7b
 3855 0a74 20       		.uleb128 0x20
 3856 0a75 D8000000 		.4byte	0xd8
 3857 0a79 01       		.byte	0x1
 3858 0a7a 00       		.byte	0
 3859 0a7b 22       		.uleb128 0x22
 3860 0a7c 1B050000 		.4byte	0x51b
 3861 0a80 01       		.byte	0x1
 3862 0a81 5801     		.2byte	0x158
 3863 0a83 00000000 		.4byte	.LFB82
 3864 0a87 36000000 		.4byte	.LFE82-.LFB82
ARM GAS  C:\Users\hejmi\AppData\Local\Temp\ccFM6jcL.s 			page 83


 3865 0a8b 01       		.uleb128 0x1
 3866 0a8c 9C       		.byte	0x9c
 3867 0a8d 950A0000 		.4byte	0xa95
 3868 0a91 DE0A0000 		.4byte	0xade
 3869 0a95 17       		.uleb128 0x17
 3870 0a96 2C070000 		.4byte	.LASF113
 3871 0a9a CE080000 		.4byte	0x8ce
 3872 0a9e AD000000 		.4byte	.LLST5
 3873 0aa2 23       		.uleb128 0x23
 3874 0aa3 AD070000 		.4byte	.LASF117
 3875 0aa7 01       		.byte	0x1
 3876 0aa8 5801     		.2byte	0x158
 3877 0aaa FF060000 		.4byte	0x6ff
 3878 0aae CE000000 		.4byte	.LLST6
 3879 0ab2 24       		.uleb128 0x24
 3880 0ab3 8D050000 		.4byte	.LASF118
 3881 0ab7 01       		.byte	0x1
 3882 0ab8 5A01     		.2byte	0x15a
 3883 0aba 9E000000 		.4byte	0x9e
 3884 0abe 02       		.uleb128 0x2
 3885 0abf 91       		.byte	0x91
 3886 0ac0 77       		.sleb128 -9
 3887 0ac1 1E       		.uleb128 0x1e
 3888 0ac2 12000000 		.4byte	.LVL34
 3889 0ac6 37010000 		.4byte	0x137
 3890 0aca 1D       		.uleb128 0x1d
 3891 0acb 01       		.uleb128 0x1
 3892 0acc 50       		.byte	0x50
 3893 0acd 03       		.uleb128 0x3
 3894 0ace F3       		.byte	0xf3
 3895 0acf 01       		.uleb128 0x1
 3896 0ad0 50       		.byte	0x50
 3897 0ad1 1D       		.uleb128 0x1d
 3898 0ad2 01       		.uleb128 0x1
 3899 0ad3 52       		.byte	0x52
 3900 0ad4 01       		.uleb128 0x1
 3901 0ad5 31       		.byte	0x31
 3902 0ad6 1D       		.uleb128 0x1d
 3903 0ad7 01       		.uleb128 0x1
 3904 0ad8 53       		.byte	0x53
 3905 0ad9 02       		.uleb128 0x2
 3906 0ada 91       		.byte	0x91
 3907 0adb 77       		.sleb128 -9
 3908 0adc 00       		.byte	0
 3909 0add 00       		.byte	0
 3910 0ade 22       		.uleb128 0x22
 3911 0adf 3A060000 		.4byte	0x63a
 3912 0ae3 01       		.byte	0x1
 3913 0ae4 9301     		.2byte	0x193
 3914 0ae6 00000000 		.4byte	.LFB84
 3915 0aea 0E000000 		.4byte	.LFE84-.LFB84
 3916 0aee 01       		.uleb128 0x1
 3917 0aef 9C       		.byte	0x9c
 3918 0af0 F80A0000 		.4byte	0xaf8
 3919 0af4 140B0000 		.4byte	0xb14
 3920 0af8 17       		.uleb128 0x17
 3921 0af9 2C070000 		.4byte	.LASF113
ARM GAS  C:\Users\hejmi\AppData\Local\Temp\ccFM6jcL.s 			page 84


 3922 0afd CE080000 		.4byte	0x8ce
 3923 0b01 EC000000 		.4byte	.LLST7
 3924 0b05 25       		.uleb128 0x25
 3925 0b06 C6030000 		.4byte	.LASF119
 3926 0b0a 01       		.byte	0x1
 3927 0b0b 9301     		.2byte	0x193
 3928 0b0d A9000000 		.4byte	0xa9
 3929 0b11 01       		.uleb128 0x1
 3930 0b12 51       		.byte	0x51
 3931 0b13 00       		.byte	0
 3932 0b14 22       		.uleb128 0x22
 3933 0b15 5E050000 		.4byte	0x55e
 3934 0b19 01       		.byte	0x1
 3935 0b1a 9C01     		.2byte	0x19c
 3936 0b1c 00000000 		.4byte	.LFB85
 3937 0b20 48000000 		.4byte	.LFE85-.LFB85
 3938 0b24 01       		.uleb128 0x1
 3939 0b25 9C       		.byte	0x9c
 3940 0b26 2E0B0000 		.4byte	0xb2e
 3941 0b2a 990B0000 		.4byte	0xb99
 3942 0b2e 17       		.uleb128 0x17
 3943 0b2f 2C070000 		.4byte	.LASF113
 3944 0b33 CE080000 		.4byte	0x8ce
 3945 0b37 0D010000 		.4byte	.LLST8
 3946 0b3b 23       		.uleb128 0x23
 3947 0b3c D1090000 		.4byte	.LASF120
 3948 0b40 01       		.byte	0x1
 3949 0b41 9C01     		.2byte	0x19c
 3950 0b43 2B030000 		.4byte	0x32b
 3951 0b47 60010000 		.4byte	.LLST9
 3952 0b4b 26       		.uleb128 0x26
 3953 0b4c 746D7000 		.ascii	"tmp\000"
 3954 0b50 01       		.byte	0x1
 3955 0b51 9E01     		.2byte	0x19e
 3956 0b53 9E000000 		.4byte	0x9e
 3957 0b57 02       		.uleb128 0x2
 3958 0b58 91       		.byte	0x91
 3959 0b59 77       		.sleb128 -9
 3960 0b5a 1C       		.uleb128 0x1c
 3961 0b5b 18000000 		.4byte	.LVL39
 3962 0b5f 37010000 		.4byte	0x137
 3963 0b63 7B0B0000 		.4byte	0xb7b
 3964 0b67 1D       		.uleb128 0x1d
 3965 0b68 01       		.uleb128 0x1
 3966 0b69 50       		.byte	0x50
 3967 0b6a 03       		.uleb128 0x3
 3968 0b6b F3       		.byte	0xf3
 3969 0b6c 01       		.uleb128 0x1
 3970 0b6d 50       		.byte	0x50
 3971 0b6e 1D       		.uleb128 0x1d
 3972 0b6f 01       		.uleb128 0x1
 3973 0b70 52       		.byte	0x52
 3974 0b71 02       		.uleb128 0x2
 3975 0b72 08       		.byte	0x8
 3976 0b73 50       		.byte	0x50
 3977 0b74 1D       		.uleb128 0x1d
 3978 0b75 01       		.uleb128 0x1
ARM GAS  C:\Users\hejmi\AppData\Local\Temp\ccFM6jcL.s 			page 85


 3979 0b76 53       		.byte	0x53
 3980 0b77 02       		.uleb128 0x2
 3981 0b78 91       		.byte	0x91
 3982 0b79 77       		.sleb128 -9
 3983 0b7a 00       		.byte	0
 3984 0b7b 1E       		.uleb128 0x1e
 3985 0b7c 34000000 		.4byte	.LVL42
 3986 0b80 37010000 		.4byte	0x137
 3987 0b84 1D       		.uleb128 0x1d
 3988 0b85 01       		.uleb128 0x1
 3989 0b86 50       		.byte	0x50
 3990 0b87 03       		.uleb128 0x3
 3991 0b88 F3       		.byte	0xf3
 3992 0b89 01       		.uleb128 0x1
 3993 0b8a 50       		.byte	0x50
 3994 0b8b 1D       		.uleb128 0x1d
 3995 0b8c 01       		.uleb128 0x1
 3996 0b8d 52       		.byte	0x52
 3997 0b8e 02       		.uleb128 0x2
 3998 0b8f 08       		.byte	0x8
 3999 0b90 70       		.byte	0x70
 4000 0b91 1D       		.uleb128 0x1d
 4001 0b92 01       		.uleb128 0x1
 4002 0b93 53       		.byte	0x53
 4003 0b94 02       		.uleb128 0x2
 4004 0b95 91       		.byte	0x91
 4005 0b96 77       		.sleb128 -9
 4006 0b97 00       		.byte	0
 4007 0b98 00       		.byte	0
 4008 0b99 22       		.uleb128 0x22
 4009 0b9a E7040000 		.4byte	0x4e7
 4010 0b9e 01       		.byte	0x1
 4011 0b9f AC01     		.2byte	0x1ac
 4012 0ba1 00000000 		.4byte	.LFB86
 4013 0ba5 C4030000 		.4byte	.LFE86-.LFB86
 4014 0ba9 01       		.uleb128 0x1
 4015 0baa 9C       		.byte	0x9c
 4016 0bab B30B0000 		.4byte	0xbb3
 4017 0baf 7A150000 		.4byte	0x157a
 4018 0bb3 17       		.uleb128 0x17
 4019 0bb4 2C070000 		.4byte	.LASF113
 4020 0bb8 CE080000 		.4byte	0x8ce
 4021 0bbc B3010000 		.4byte	.LLST10
 4022 0bc0 1C       		.uleb128 0x1c
 4023 0bc1 0E000000 		.4byte	.LVL46
 4024 0bc5 8E010000 		.4byte	0x18e
 4025 0bc9 DF0B0000 		.4byte	0xbdf
 4026 0bcd 1D       		.uleb128 0x1d
 4027 0bce 01       		.uleb128 0x1
 4028 0bcf 50       		.byte	0x50
 4029 0bd0 02       		.uleb128 0x2
 4030 0bd1 74       		.byte	0x74
 4031 0bd2 00       		.sleb128 0
 4032 0bd3 1D       		.uleb128 0x1d
 4033 0bd4 01       		.uleb128 0x1
 4034 0bd5 52       		.byte	0x52
 4035 0bd6 02       		.uleb128 0x2
ARM GAS  C:\Users\hejmi\AppData\Local\Temp\ccFM6jcL.s 			page 86


 4036 0bd7 09       		.byte	0x9
 4037 0bd8 FF       		.byte	0xff
 4038 0bd9 1D       		.uleb128 0x1d
 4039 0bda 01       		.uleb128 0x1
 4040 0bdb 53       		.byte	0x53
 4041 0bdc 01       		.uleb128 0x1
 4042 0bdd 31       		.byte	0x31
 4043 0bde 00       		.byte	0
 4044 0bdf 1C       		.uleb128 0x1c
 4045 0be0 1A000000 		.4byte	.LVL47
 4046 0be4 8E010000 		.4byte	0x18e
 4047 0be8 FD0B0000 		.4byte	0xbfd
 4048 0bec 1D       		.uleb128 0x1d
 4049 0bed 01       		.uleb128 0x1
 4050 0bee 50       		.byte	0x50
 4051 0bef 02       		.uleb128 0x2
 4052 0bf0 74       		.byte	0x74
 4053 0bf1 00       		.sleb128 0
 4054 0bf2 1D       		.uleb128 0x1d
 4055 0bf3 01       		.uleb128 0x1
 4056 0bf4 52       		.byte	0x52
 4057 0bf5 01       		.uleb128 0x1
 4058 0bf6 30       		.byte	0x30
 4059 0bf7 1D       		.uleb128 0x1d
 4060 0bf8 01       		.uleb128 0x1
 4061 0bf9 53       		.byte	0x53
 4062 0bfa 01       		.uleb128 0x1
 4063 0bfb 30       		.byte	0x30
 4064 0bfc 00       		.byte	0
 4065 0bfd 1C       		.uleb128 0x1c
 4066 0bfe 26000000 		.4byte	.LVL48
 4067 0c02 8E010000 		.4byte	0x18e
 4068 0c06 1C0C0000 		.4byte	0xc1c
 4069 0c0a 1D       		.uleb128 0x1d
 4070 0c0b 01       		.uleb128 0x1
 4071 0c0c 50       		.byte	0x50
 4072 0c0d 02       		.uleb128 0x2
 4073 0c0e 74       		.byte	0x74
 4074 0c0f 00       		.sleb128 0
 4075 0c10 1D       		.uleb128 0x1d
 4076 0c11 01       		.uleb128 0x1
 4077 0c12 52       		.byte	0x52
 4078 0c13 02       		.uleb128 0x2
 4079 0c14 09       		.byte	0x9
 4080 0c15 FF       		.byte	0xff
 4081 0c16 1D       		.uleb128 0x1d
 4082 0c17 01       		.uleb128 0x1
 4083 0c18 53       		.byte	0x53
 4084 0c19 01       		.uleb128 0x1
 4085 0c1a 30       		.byte	0x30
 4086 0c1b 00       		.byte	0
 4087 0c1c 1C       		.uleb128 0x1c
 4088 0c1d 32000000 		.4byte	.LVL49
 4089 0c21 8E010000 		.4byte	0x18e
 4090 0c25 3A0C0000 		.4byte	0xc3a
 4091 0c29 1D       		.uleb128 0x1d
 4092 0c2a 01       		.uleb128 0x1
ARM GAS  C:\Users\hejmi\AppData\Local\Temp\ccFM6jcL.s 			page 87


 4093 0c2b 50       		.byte	0x50
 4094 0c2c 02       		.uleb128 0x2
 4095 0c2d 74       		.byte	0x74
 4096 0c2e 00       		.sleb128 0
 4097 0c2f 1D       		.uleb128 0x1d
 4098 0c30 01       		.uleb128 0x1
 4099 0c31 52       		.byte	0x52
 4100 0c32 01       		.uleb128 0x1
 4101 0c33 39       		.byte	0x39
 4102 0c34 1D       		.uleb128 0x1d
 4103 0c35 01       		.uleb128 0x1
 4104 0c36 53       		.byte	0x53
 4105 0c37 01       		.uleb128 0x1
 4106 0c38 30       		.byte	0x30
 4107 0c39 00       		.byte	0
 4108 0c3a 1C       		.uleb128 0x1c
 4109 0c3b 3E000000 		.4byte	.LVL50
 4110 0c3f 8E010000 		.4byte	0x18e
 4111 0c43 580C0000 		.4byte	0xc58
 4112 0c47 1D       		.uleb128 0x1d
 4113 0c48 01       		.uleb128 0x1
 4114 0c49 50       		.byte	0x50
 4115 0c4a 02       		.uleb128 0x2
 4116 0c4b 74       		.byte	0x74
 4117 0c4c 00       		.sleb128 0
 4118 0c4d 1D       		.uleb128 0x1d
 4119 0c4e 01       		.uleb128 0x1
 4120 0c4f 52       		.byte	0x52
 4121 0c50 01       		.uleb128 0x1
 4122 0c51 40       		.byte	0x40
 4123 0c52 1D       		.uleb128 0x1d
 4124 0c53 01       		.uleb128 0x1
 4125 0c54 53       		.byte	0x53
 4126 0c55 01       		.uleb128 0x1
 4127 0c56 30       		.byte	0x30
 4128 0c57 00       		.byte	0
 4129 0c58 1C       		.uleb128 0x1c
 4130 0c59 4A000000 		.4byte	.LVL51
 4131 0c5d 8E010000 		.4byte	0x18e
 4132 0c61 760C0000 		.4byte	0xc76
 4133 0c65 1D       		.uleb128 0x1d
 4134 0c66 01       		.uleb128 0x1
 4135 0c67 50       		.byte	0x50
 4136 0c68 02       		.uleb128 0x2
 4137 0c69 74       		.byte	0x74
 4138 0c6a 00       		.sleb128 0
 4139 0c6b 1D       		.uleb128 0x1d
 4140 0c6c 01       		.uleb128 0x1
 4141 0c6d 52       		.byte	0x52
 4142 0c6e 01       		.uleb128 0x1
 4143 0c6f 41       		.byte	0x41
 4144 0c70 1D       		.uleb128 0x1d
 4145 0c71 01       		.uleb128 0x1
 4146 0c72 53       		.byte	0x53
 4147 0c73 01       		.uleb128 0x1
 4148 0c74 30       		.byte	0x30
 4149 0c75 00       		.byte	0
ARM GAS  C:\Users\hejmi\AppData\Local\Temp\ccFM6jcL.s 			page 88


 4150 0c76 1C       		.uleb128 0x1c
 4151 0c77 56000000 		.4byte	.LVL52
 4152 0c7b 8E010000 		.4byte	0x18e
 4153 0c7f 950C0000 		.4byte	0xc95
 4154 0c83 1D       		.uleb128 0x1d
 4155 0c84 01       		.uleb128 0x1
 4156 0c85 50       		.byte	0x50
 4157 0c86 02       		.uleb128 0x2
 4158 0c87 74       		.byte	0x74
 4159 0c88 00       		.sleb128 0
 4160 0c89 1D       		.uleb128 0x1d
 4161 0c8a 01       		.uleb128 0x1
 4162 0c8b 52       		.byte	0x52
 4163 0c8c 02       		.uleb128 0x2
 4164 0c8d 08       		.byte	0x8
 4165 0c8e 24       		.byte	0x24
 4166 0c8f 1D       		.uleb128 0x1d
 4167 0c90 01       		.uleb128 0x1
 4168 0c91 53       		.byte	0x53
 4169 0c92 01       		.uleb128 0x1
 4170 0c93 31       		.byte	0x31
 4171 0c94 00       		.byte	0
 4172 0c95 1C       		.uleb128 0x1c
 4173 0c96 62000000 		.4byte	.LVL53
 4174 0c9a 8E010000 		.4byte	0x18e
 4175 0c9e B50C0000 		.4byte	0xcb5
 4176 0ca2 1D       		.uleb128 0x1d
 4177 0ca3 01       		.uleb128 0x1
 4178 0ca4 50       		.byte	0x50
 4179 0ca5 02       		.uleb128 0x2
 4180 0ca6 74       		.byte	0x74
 4181 0ca7 00       		.sleb128 0
 4182 0ca8 1D       		.uleb128 0x1d
 4183 0ca9 01       		.uleb128 0x1
 4184 0caa 52       		.byte	0x52
 4185 0cab 02       		.uleb128 0x2
 4186 0cac 08       		.byte	0x8
 4187 0cad 25       		.byte	0x25
 4188 0cae 1D       		.uleb128 0x1d
 4189 0caf 01       		.uleb128 0x1
 4190 0cb0 53       		.byte	0x53
 4191 0cb1 02       		.uleb128 0x2
 4192 0cb2 09       		.byte	0x9
 4193 0cb3 FF       		.byte	0xff
 4194 0cb4 00       		.byte	0
 4195 0cb5 1C       		.uleb128 0x1c
 4196 0cb6 6E000000 		.4byte	.LVL54
 4197 0cba 8E010000 		.4byte	0x18e
 4198 0cbe D40C0000 		.4byte	0xcd4
 4199 0cc2 1D       		.uleb128 0x1d
 4200 0cc3 01       		.uleb128 0x1
 4201 0cc4 50       		.byte	0x50
 4202 0cc5 02       		.uleb128 0x2
 4203 0cc6 74       		.byte	0x74
 4204 0cc7 00       		.sleb128 0
 4205 0cc8 1D       		.uleb128 0x1d
 4206 0cc9 01       		.uleb128 0x1
ARM GAS  C:\Users\hejmi\AppData\Local\Temp\ccFM6jcL.s 			page 89


 4207 0cca 52       		.byte	0x52
 4208 0ccb 02       		.uleb128 0x2
 4209 0ccc 08       		.byte	0x8
 4210 0ccd 75       		.byte	0x75
 4211 0cce 1D       		.uleb128 0x1d
 4212 0ccf 01       		.uleb128 0x1
 4213 0cd0 53       		.byte	0x53
 4214 0cd1 01       		.uleb128 0x1
 4215 0cd2 30       		.byte	0x30
 4216 0cd3 00       		.byte	0
 4217 0cd4 1C       		.uleb128 0x1c
 4218 0cd5 7A000000 		.4byte	.LVL55
 4219 0cd9 8E010000 		.4byte	0x18e
 4220 0cdd F30C0000 		.4byte	0xcf3
 4221 0ce1 1D       		.uleb128 0x1d
 4222 0ce2 01       		.uleb128 0x1
 4223 0ce3 50       		.byte	0x50
 4224 0ce4 02       		.uleb128 0x2
 4225 0ce5 74       		.byte	0x74
 4226 0ce6 00       		.sleb128 0
 4227 0ce7 1D       		.uleb128 0x1d
 4228 0ce8 01       		.uleb128 0x1
 4229 0ce9 52       		.byte	0x52
 4230 0cea 02       		.uleb128 0x2
 4231 0ceb 09       		.byte	0x9
 4232 0cec FF       		.byte	0xff
 4233 0ced 1D       		.uleb128 0x1d
 4234 0cee 01       		.uleb128 0x1
 4235 0cef 53       		.byte	0x53
 4236 0cf0 01       		.uleb128 0x1
 4237 0cf1 31       		.byte	0x31
 4238 0cf2 00       		.byte	0
 4239 0cf3 1C       		.uleb128 0x1c
 4240 0cf4 86000000 		.4byte	.LVL56
 4241 0cf8 8E010000 		.4byte	0x18e
 4242 0cfc 130D0000 		.4byte	0xd13
 4243 0d00 1D       		.uleb128 0x1d
 4244 0d01 01       		.uleb128 0x1
 4245 0d02 50       		.byte	0x50
 4246 0d03 02       		.uleb128 0x2
 4247 0d04 74       		.byte	0x74
 4248 0d05 00       		.sleb128 0
 4249 0d06 1D       		.uleb128 0x1d
 4250 0d07 01       		.uleb128 0x1
 4251 0d08 52       		.byte	0x52
 4252 0d09 02       		.uleb128 0x2
 4253 0d0a 08       		.byte	0x8
 4254 0d0b 4E       		.byte	0x4e
 4255 0d0c 1D       		.uleb128 0x1d
 4256 0d0d 01       		.uleb128 0x1
 4257 0d0e 53       		.byte	0x53
 4258 0d0f 02       		.uleb128 0x2
 4259 0d10 08       		.byte	0x8
 4260 0d11 2C       		.byte	0x2c
 4261 0d12 00       		.byte	0
 4262 0d13 1C       		.uleb128 0x1c
 4263 0d14 92000000 		.4byte	.LVL57
ARM GAS  C:\Users\hejmi\AppData\Local\Temp\ccFM6jcL.s 			page 90


 4264 0d18 8E010000 		.4byte	0x18e
 4265 0d1c 320D0000 		.4byte	0xd32
 4266 0d20 1D       		.uleb128 0x1d
 4267 0d21 01       		.uleb128 0x1
 4268 0d22 50       		.byte	0x50
 4269 0d23 02       		.uleb128 0x2
 4270 0d24 74       		.byte	0x74
 4271 0d25 00       		.sleb128 0
 4272 0d26 1D       		.uleb128 0x1d
 4273 0d27 01       		.uleb128 0x1
 4274 0d28 52       		.byte	0x52
 4275 0d29 02       		.uleb128 0x2
 4276 0d2a 08       		.byte	0x8
 4277 0d2b 48       		.byte	0x48
 4278 0d2c 1D       		.uleb128 0x1d
 4279 0d2d 01       		.uleb128 0x1
 4280 0d2e 53       		.byte	0x53
 4281 0d2f 01       		.uleb128 0x1
 4282 0d30 30       		.byte	0x30
 4283 0d31 00       		.byte	0
 4284 0d32 1C       		.uleb128 0x1c
 4285 0d33 9E000000 		.4byte	.LVL58
 4286 0d37 8E010000 		.4byte	0x18e
 4287 0d3b 520D0000 		.4byte	0xd52
 4288 0d3f 1D       		.uleb128 0x1d
 4289 0d40 01       		.uleb128 0x1
 4290 0d41 50       		.byte	0x50
 4291 0d42 02       		.uleb128 0x2
 4292 0d43 74       		.byte	0x74
 4293 0d44 00       		.sleb128 0
 4294 0d45 1D       		.uleb128 0x1d
 4295 0d46 01       		.uleb128 0x1
 4296 0d47 52       		.byte	0x52
 4297 0d48 02       		.uleb128 0x2
 4298 0d49 08       		.byte	0x8
 4299 0d4a 30       		.byte	0x30
 4300 0d4b 1D       		.uleb128 0x1d
 4301 0d4c 01       		.uleb128 0x1
 4302 0d4d 53       		.byte	0x53
 4303 0d4e 02       		.uleb128 0x2
 4304 0d4f 08       		.byte	0x8
 4305 0d50 20       		.byte	0x20
 4306 0d51 00       		.byte	0
 4307 0d52 1C       		.uleb128 0x1c
 4308 0d53 AA000000 		.4byte	.LVL59
 4309 0d57 8E010000 		.4byte	0x18e
 4310 0d5b 710D0000 		.4byte	0xd71
 4311 0d5f 1D       		.uleb128 0x1d
 4312 0d60 01       		.uleb128 0x1
 4313 0d61 50       		.byte	0x50
 4314 0d62 02       		.uleb128 0x2
 4315 0d63 74       		.byte	0x74
 4316 0d64 00       		.sleb128 0
 4317 0d65 1D       		.uleb128 0x1d
 4318 0d66 01       		.uleb128 0x1
 4319 0d67 52       		.byte	0x52
 4320 0d68 02       		.uleb128 0x2
ARM GAS  C:\Users\hejmi\AppData\Local\Temp\ccFM6jcL.s 			page 91


 4321 0d69 09       		.byte	0x9
 4322 0d6a FF       		.byte	0xff
 4323 0d6b 1D       		.uleb128 0x1d
 4324 0d6c 01       		.uleb128 0x1
 4325 0d6d 53       		.byte	0x53
 4326 0d6e 01       		.uleb128 0x1
 4327 0d6f 30       		.byte	0x30
 4328 0d70 00       		.byte	0
 4329 0d71 1C       		.uleb128 0x1c
 4330 0d72 B6000000 		.4byte	.LVL60
 4331 0d76 8E010000 		.4byte	0x18e
 4332 0d7a 900D0000 		.4byte	0xd90
 4333 0d7e 1D       		.uleb128 0x1d
 4334 0d7f 01       		.uleb128 0x1
 4335 0d80 50       		.byte	0x50
 4336 0d81 02       		.uleb128 0x2
 4337 0d82 74       		.byte	0x74
 4338 0d83 00       		.sleb128 0
 4339 0d84 1D       		.uleb128 0x1d
 4340 0d85 01       		.uleb128 0x1
 4341 0d86 52       		.byte	0x52
 4342 0d87 02       		.uleb128 0x2
 4343 0d88 08       		.byte	0x8
 4344 0d89 30       		.byte	0x30
 4345 0d8a 1D       		.uleb128 0x1d
 4346 0d8b 01       		.uleb128 0x1
 4347 0d8c 53       		.byte	0x53
 4348 0d8d 01       		.uleb128 0x1
 4349 0d8e 39       		.byte	0x39
 4350 0d8f 00       		.byte	0
 4351 0d90 1C       		.uleb128 0x1c
 4352 0d91 C2000000 		.4byte	.LVL61
 4353 0d95 8E010000 		.4byte	0x18e
 4354 0d99 AF0D0000 		.4byte	0xdaf
 4355 0d9d 1D       		.uleb128 0x1d
 4356 0d9e 01       		.uleb128 0x1
 4357 0d9f 50       		.byte	0x50
 4358 0da0 02       		.uleb128 0x2
 4359 0da1 74       		.byte	0x74
 4360 0da2 00       		.sleb128 0
 4361 0da3 1D       		.uleb128 0x1d
 4362 0da4 01       		.uleb128 0x1
 4363 0da5 52       		.byte	0x52
 4364 0da6 02       		.uleb128 0x2
 4365 0da7 08       		.byte	0x8
 4366 0da8 54       		.byte	0x54
 4367 0da9 1D       		.uleb128 0x1d
 4368 0daa 01       		.uleb128 0x1
 4369 0dab 53       		.byte	0x53
 4370 0dac 01       		.uleb128 0x1
 4371 0dad 30       		.byte	0x30
 4372 0dae 00       		.byte	0
 4373 0daf 1C       		.uleb128 0x1c
 4374 0db0 CE000000 		.4byte	.LVL62
 4375 0db4 8E010000 		.4byte	0x18e
 4376 0db8 CE0D0000 		.4byte	0xdce
 4377 0dbc 1D       		.uleb128 0x1d
ARM GAS  C:\Users\hejmi\AppData\Local\Temp\ccFM6jcL.s 			page 92


 4378 0dbd 01       		.uleb128 0x1
 4379 0dbe 50       		.byte	0x50
 4380 0dbf 02       		.uleb128 0x2
 4381 0dc0 74       		.byte	0x74
 4382 0dc1 00       		.sleb128 0
 4383 0dc2 1D       		.uleb128 0x1d
 4384 0dc3 01       		.uleb128 0x1
 4385 0dc4 52       		.byte	0x52
 4386 0dc5 02       		.uleb128 0x2
 4387 0dc6 08       		.byte	0x8
 4388 0dc7 31       		.byte	0x31
 4389 0dc8 1D       		.uleb128 0x1d
 4390 0dc9 01       		.uleb128 0x1
 4391 0dca 53       		.byte	0x53
 4392 0dcb 01       		.uleb128 0x1
 4393 0dcc 34       		.byte	0x34
 4394 0dcd 00       		.byte	0
 4395 0dce 1C       		.uleb128 0x1c
 4396 0dcf DA000000 		.4byte	.LVL63
 4397 0dd3 8E010000 		.4byte	0x18e
 4398 0dd7 ED0D0000 		.4byte	0xded
 4399 0ddb 1D       		.uleb128 0x1d
 4400 0ddc 01       		.uleb128 0x1
 4401 0ddd 50       		.byte	0x50
 4402 0dde 02       		.uleb128 0x2
 4403 0ddf 74       		.byte	0x74
 4404 0de0 00       		.sleb128 0
 4405 0de1 1D       		.uleb128 0x1d
 4406 0de2 01       		.uleb128 0x1
 4407 0de3 52       		.byte	0x52
 4408 0de4 02       		.uleb128 0x2
 4409 0de5 08       		.byte	0x8
 4410 0de6 32       		.byte	0x32
 4411 0de7 1D       		.uleb128 0x1d
 4412 0de8 01       		.uleb128 0x1
 4413 0de9 53       		.byte	0x53
 4414 0dea 01       		.uleb128 0x1
 4415 0deb 33       		.byte	0x33
 4416 0dec 00       		.byte	0
 4417 0ded 1C       		.uleb128 0x1c
 4418 0dee E6000000 		.4byte	.LVL64
 4419 0df2 8E010000 		.4byte	0x18e
 4420 0df6 0D0E0000 		.4byte	0xe0d
 4421 0dfa 1D       		.uleb128 0x1d
 4422 0dfb 01       		.uleb128 0x1
 4423 0dfc 50       		.byte	0x50
 4424 0dfd 02       		.uleb128 0x2
 4425 0dfe 74       		.byte	0x74
 4426 0dff 00       		.sleb128 0
 4427 0e00 1D       		.uleb128 0x1d
 4428 0e01 01       		.uleb128 0x1
 4429 0e02 52       		.byte	0x52
 4430 0e03 02       		.uleb128 0x2
 4431 0e04 08       		.byte	0x8
 4432 0e05 40       		.byte	0x40
 4433 0e06 1D       		.uleb128 0x1d
 4434 0e07 01       		.uleb128 0x1
ARM GAS  C:\Users\hejmi\AppData\Local\Temp\ccFM6jcL.s 			page 93


 4435 0e08 53       		.byte	0x53
 4436 0e09 02       		.uleb128 0x2
 4437 0e0a 09       		.byte	0x9
 4438 0e0b 83       		.byte	0x83
 4439 0e0c 00       		.byte	0
 4440 0e0d 1C       		.uleb128 0x1c
 4441 0e0e F2000000 		.4byte	.LVL65
 4442 0e12 8E010000 		.4byte	0x18e
 4443 0e16 2D0E0000 		.4byte	0xe2d
 4444 0e1a 1D       		.uleb128 0x1d
 4445 0e1b 01       		.uleb128 0x1
 4446 0e1c 50       		.byte	0x50
 4447 0e1d 02       		.uleb128 0x2
 4448 0e1e 74       		.byte	0x74
 4449 0e1f 00       		.sleb128 0
 4450 0e20 1D       		.uleb128 0x1d
 4451 0e21 01       		.uleb128 0x1
 4452 0e22 52       		.byte	0x52
 4453 0e23 02       		.uleb128 0x2
 4454 0e24 08       		.byte	0x8
 4455 0e25 46       		.byte	0x46
 4456 0e26 1D       		.uleb128 0x1d
 4457 0e27 01       		.uleb128 0x1
 4458 0e28 53       		.byte	0x53
 4459 0e29 02       		.uleb128 0x2
 4460 0e2a 08       		.byte	0x8
 4461 0e2b 25       		.byte	0x25
 4462 0e2c 00       		.byte	0
 4463 0e2d 1C       		.uleb128 0x1c
 4464 0e2e FE000000 		.4byte	.LVL66
 4465 0e32 8E010000 		.4byte	0x18e
 4466 0e36 4C0E0000 		.4byte	0xe4c
 4467 0e3a 1D       		.uleb128 0x1d
 4468 0e3b 01       		.uleb128 0x1
 4469 0e3c 50       		.byte	0x50
 4470 0e3d 02       		.uleb128 0x2
 4471 0e3e 74       		.byte	0x74
 4472 0e3f 00       		.sleb128 0
 4473 0e40 1D       		.uleb128 0x1d
 4474 0e41 01       		.uleb128 0x1
 4475 0e42 52       		.byte	0x52
 4476 0e43 02       		.uleb128 0x2
 4477 0e44 08       		.byte	0x8
 4478 0e45 60       		.byte	0x60
 4479 0e46 1D       		.uleb128 0x1d
 4480 0e47 01       		.uleb128 0x1
 4481 0e48 53       		.byte	0x53
 4482 0e49 01       		.uleb128 0x1
 4483 0e4a 30       		.byte	0x30
 4484 0e4b 00       		.byte	0
 4485 0e4c 1C       		.uleb128 0x1c
 4486 0e4d 0A010000 		.4byte	.LVL67
 4487 0e51 8E010000 		.4byte	0x18e
 4488 0e55 6B0E0000 		.4byte	0xe6b
 4489 0e59 1D       		.uleb128 0x1d
 4490 0e5a 01       		.uleb128 0x1
 4491 0e5b 50       		.byte	0x50
ARM GAS  C:\Users\hejmi\AppData\Local\Temp\ccFM6jcL.s 			page 94


 4492 0e5c 02       		.uleb128 0x2
 4493 0e5d 74       		.byte	0x74
 4494 0e5e 00       		.sleb128 0
 4495 0e5f 1D       		.uleb128 0x1d
 4496 0e60 01       		.uleb128 0x1
 4497 0e61 52       		.byte	0x52
 4498 0e62 02       		.uleb128 0x2
 4499 0e63 08       		.byte	0x8
 4500 0e64 27       		.byte	0x27
 4501 0e65 1D       		.uleb128 0x1d
 4502 0e66 01       		.uleb128 0x1
 4503 0e67 53       		.byte	0x53
 4504 0e68 01       		.uleb128 0x1
 4505 0e69 30       		.byte	0x30
 4506 0e6a 00       		.byte	0
 4507 0e6b 1C       		.uleb128 0x1c
 4508 0e6c 16010000 		.4byte	.LVL68
 4509 0e70 8E010000 		.4byte	0x18e
 4510 0e74 8A0E0000 		.4byte	0xe8a
 4511 0e78 1D       		.uleb128 0x1d
 4512 0e79 01       		.uleb128 0x1
 4513 0e7a 50       		.byte	0x50
 4514 0e7b 02       		.uleb128 0x2
 4515 0e7c 74       		.byte	0x74
 4516 0e7d 00       		.sleb128 0
 4517 0e7e 1D       		.uleb128 0x1d
 4518 0e7f 01       		.uleb128 0x1
 4519 0e80 52       		.byte	0x52
 4520 0e81 02       		.uleb128 0x2
 4521 0e82 08       		.byte	0x8
 4522 0e83 50       		.byte	0x50
 4523 0e84 1D       		.uleb128 0x1d
 4524 0e85 01       		.uleb128 0x1
 4525 0e86 53       		.byte	0x53
 4526 0e87 01       		.uleb128 0x1
 4527 0e88 36       		.byte	0x36
 4528 0e89 00       		.byte	0
 4529 0e8a 1C       		.uleb128 0x1c
 4530 0e8b 22010000 		.4byte	.LVL69
 4531 0e8f 8E010000 		.4byte	0x18e
 4532 0e93 A90E0000 		.4byte	0xea9
 4533 0e97 1D       		.uleb128 0x1d
 4534 0e98 01       		.uleb128 0x1
 4535 0e99 50       		.byte	0x50
 4536 0e9a 02       		.uleb128 0x2
 4537 0e9b 74       		.byte	0x74
 4538 0e9c 00       		.sleb128 0
 4539 0e9d 1D       		.uleb128 0x1d
 4540 0e9e 01       		.uleb128 0x1
 4541 0e9f 52       		.byte	0x52
 4542 0ea0 02       		.uleb128 0x2
 4543 0ea1 08       		.byte	0x8
 4544 0ea2 51       		.byte	0x51
 4545 0ea3 1D       		.uleb128 0x1d
 4546 0ea4 01       		.uleb128 0x1
 4547 0ea5 53       		.byte	0x53
 4548 0ea6 01       		.uleb128 0x1
ARM GAS  C:\Users\hejmi\AppData\Local\Temp\ccFM6jcL.s 			page 95


 4549 0ea7 30       		.byte	0x30
 4550 0ea8 00       		.byte	0
 4551 0ea9 1C       		.uleb128 0x1c
 4552 0eaa 2E010000 		.4byte	.LVL70
 4553 0eae 8E010000 		.4byte	0x18e
 4554 0eb2 C90E0000 		.4byte	0xec9
 4555 0eb6 1D       		.uleb128 0x1d
 4556 0eb7 01       		.uleb128 0x1
 4557 0eb8 50       		.byte	0x50
 4558 0eb9 02       		.uleb128 0x2
 4559 0eba 74       		.byte	0x74
 4560 0ebb 00       		.sleb128 0
 4561 0ebc 1D       		.uleb128 0x1d
 4562 0ebd 01       		.uleb128 0x1
 4563 0ebe 52       		.byte	0x52
 4564 0ebf 02       		.uleb128 0x2
 4565 0ec0 08       		.byte	0x8
 4566 0ec1 52       		.byte	0x52
 4567 0ec2 1D       		.uleb128 0x1d
 4568 0ec3 01       		.uleb128 0x1
 4569 0ec4 53       		.byte	0x53
 4570 0ec5 02       		.uleb128 0x2
 4571 0ec6 09       		.byte	0x9
 4572 0ec7 96       		.byte	0x96
 4573 0ec8 00       		.byte	0
 4574 0ec9 1C       		.uleb128 0x1c
 4575 0eca 3A010000 		.4byte	.LVL71
 4576 0ece 8E010000 		.4byte	0x18e
 4577 0ed2 E80E0000 		.4byte	0xee8
 4578 0ed6 1D       		.uleb128 0x1d
 4579 0ed7 01       		.uleb128 0x1
 4580 0ed8 50       		.byte	0x50
 4581 0ed9 02       		.uleb128 0x2
 4582 0eda 74       		.byte	0x74
 4583 0edb 00       		.sleb128 0
 4584 0edc 1D       		.uleb128 0x1d
 4585 0edd 01       		.uleb128 0x1
 4586 0ede 52       		.byte	0x52
 4587 0edf 02       		.uleb128 0x2
 4588 0ee0 08       		.byte	0x8
 4589 0ee1 56       		.byte	0x56
 4590 0ee2 1D       		.uleb128 0x1d
 4591 0ee3 01       		.uleb128 0x1
 4592 0ee4 53       		.byte	0x53
 4593 0ee5 01       		.uleb128 0x1
 4594 0ee6 38       		.byte	0x38
 4595 0ee7 00       		.byte	0
 4596 0ee8 1C       		.uleb128 0x1c
 4597 0ee9 46010000 		.4byte	.LVL72
 4598 0eed 8E010000 		.4byte	0x18e
 4599 0ef1 080F0000 		.4byte	0xf08
 4600 0ef5 1D       		.uleb128 0x1d
 4601 0ef6 01       		.uleb128 0x1
 4602 0ef7 50       		.byte	0x50
 4603 0ef8 02       		.uleb128 0x2
 4604 0ef9 74       		.byte	0x74
 4605 0efa 00       		.sleb128 0
ARM GAS  C:\Users\hejmi\AppData\Local\Temp\ccFM6jcL.s 			page 96


 4606 0efb 1D       		.uleb128 0x1d
 4607 0efc 01       		.uleb128 0x1
 4608 0efd 52       		.byte	0x52
 4609 0efe 02       		.uleb128 0x2
 4610 0eff 08       		.byte	0x8
 4611 0f00 57       		.byte	0x57
 4612 0f01 1D       		.uleb128 0x1d
 4613 0f02 01       		.uleb128 0x1
 4614 0f03 53       		.byte	0x53
 4615 0f04 02       		.uleb128 0x2
 4616 0f05 08       		.byte	0x8
 4617 0f06 30       		.byte	0x30
 4618 0f07 00       		.byte	0
 4619 0f08 1C       		.uleb128 0x1c
 4620 0f09 52010000 		.4byte	.LVL73
 4621 0f0d 8E010000 		.4byte	0x18e
 4622 0f11 270F0000 		.4byte	0xf27
 4623 0f15 1D       		.uleb128 0x1d
 4624 0f16 01       		.uleb128 0x1
 4625 0f17 50       		.byte	0x50
 4626 0f18 02       		.uleb128 0x2
 4627 0f19 74       		.byte	0x74
 4628 0f1a 00       		.sleb128 0
 4629 0f1b 1D       		.uleb128 0x1d
 4630 0f1c 01       		.uleb128 0x1
 4631 0f1d 52       		.byte	0x52
 4632 0f1e 02       		.uleb128 0x2
 4633 0f1f 08       		.byte	0x8
 4634 0f20 61       		.byte	0x61
 4635 0f21 1D       		.uleb128 0x1d
 4636 0f22 01       		.uleb128 0x1
 4637 0f23 53       		.byte	0x53
 4638 0f24 01       		.uleb128 0x1
 4639 0f25 30       		.byte	0x30
 4640 0f26 00       		.byte	0
 4641 0f27 1C       		.uleb128 0x1c
 4642 0f28 5E010000 		.4byte	.LVL74
 4643 0f2c 8E010000 		.4byte	0x18e
 4644 0f30 460F0000 		.4byte	0xf46
 4645 0f34 1D       		.uleb128 0x1d
 4646 0f35 01       		.uleb128 0x1
 4647 0f36 50       		.byte	0x50
 4648 0f37 02       		.uleb128 0x2
 4649 0f38 74       		.byte	0x74
 4650 0f39 00       		.sleb128 0
 4651 0f3a 1D       		.uleb128 0x1d
 4652 0f3b 01       		.uleb128 0x1
 4653 0f3c 52       		.byte	0x52
 4654 0f3d 02       		.uleb128 0x2
 4655 0f3e 08       		.byte	0x8
 4656 0f3f 62       		.byte	0x62
 4657 0f40 1D       		.uleb128 0x1d
 4658 0f41 01       		.uleb128 0x1
 4659 0f42 53       		.byte	0x53
 4660 0f43 01       		.uleb128 0x1
 4661 0f44 30       		.byte	0x30
 4662 0f45 00       		.byte	0
ARM GAS  C:\Users\hejmi\AppData\Local\Temp\ccFM6jcL.s 			page 97


 4663 0f46 1C       		.uleb128 0x1c
 4664 0f47 6A010000 		.4byte	.LVL75
 4665 0f4b 8E010000 		.4byte	0x18e
 4666 0f4f 650F0000 		.4byte	0xf65
 4667 0f53 1D       		.uleb128 0x1d
 4668 0f54 01       		.uleb128 0x1
 4669 0f55 50       		.byte	0x50
 4670 0f56 02       		.uleb128 0x2
 4671 0f57 74       		.byte	0x74
 4672 0f58 00       		.sleb128 0
 4673 0f59 1D       		.uleb128 0x1d
 4674 0f5a 01       		.uleb128 0x1
 4675 0f5b 52       		.byte	0x52
 4676 0f5c 02       		.uleb128 0x2
 4677 0f5d 08       		.byte	0x8
 4678 0f5e 64       		.byte	0x64
 4679 0f5f 1D       		.uleb128 0x1d
 4680 0f60 01       		.uleb128 0x1
 4681 0f61 53       		.byte	0x53
 4682 0f62 01       		.uleb128 0x1
 4683 0f63 30       		.byte	0x30
 4684 0f64 00       		.byte	0
 4685 0f65 1C       		.uleb128 0x1c
 4686 0f66 76010000 		.4byte	.LVL76
 4687 0f6a 8E010000 		.4byte	0x18e
 4688 0f6e 840F0000 		.4byte	0xf84
 4689 0f72 1D       		.uleb128 0x1d
 4690 0f73 01       		.uleb128 0x1
 4691 0f74 50       		.byte	0x50
 4692 0f75 02       		.uleb128 0x2
 4693 0f76 74       		.byte	0x74
 4694 0f77 00       		.sleb128 0
 4695 0f78 1D       		.uleb128 0x1d
 4696 0f79 01       		.uleb128 0x1
 4697 0f7a 52       		.byte	0x52
 4698 0f7b 02       		.uleb128 0x2
 4699 0f7c 08       		.byte	0x8
 4700 0f7d 65       		.byte	0x65
 4701 0f7e 1D       		.uleb128 0x1d
 4702 0f7f 01       		.uleb128 0x1
 4703 0f80 53       		.byte	0x53
 4704 0f81 01       		.uleb128 0x1
 4705 0f82 30       		.byte	0x30
 4706 0f83 00       		.byte	0
 4707 0f84 1C       		.uleb128 0x1c
 4708 0f85 82010000 		.4byte	.LVL77
 4709 0f89 8E010000 		.4byte	0x18e
 4710 0f8d A40F0000 		.4byte	0xfa4
 4711 0f91 1D       		.uleb128 0x1d
 4712 0f92 01       		.uleb128 0x1
 4713 0f93 50       		.byte	0x50
 4714 0f94 02       		.uleb128 0x2
 4715 0f95 74       		.byte	0x74
 4716 0f96 00       		.sleb128 0
 4717 0f97 1D       		.uleb128 0x1d
 4718 0f98 01       		.uleb128 0x1
 4719 0f99 52       		.byte	0x52
ARM GAS  C:\Users\hejmi\AppData\Local\Temp\ccFM6jcL.s 			page 98


 4720 0f9a 02       		.uleb128 0x2
 4721 0f9b 08       		.byte	0x8
 4722 0f9c 66       		.byte	0x66
 4723 0f9d 1D       		.uleb128 0x1d
 4724 0f9e 01       		.uleb128 0x1
 4725 0f9f 53       		.byte	0x53
 4726 0fa0 02       		.uleb128 0x2
 4727 0fa1 09       		.byte	0x9
 4728 0fa2 A0       		.byte	0xa0
 4729 0fa3 00       		.byte	0
 4730 0fa4 1C       		.uleb128 0x1c
 4731 0fa5 8E010000 		.4byte	.LVL78
 4732 0fa9 8E010000 		.4byte	0x18e
 4733 0fad C30F0000 		.4byte	0xfc3
 4734 0fb1 1D       		.uleb128 0x1d
 4735 0fb2 01       		.uleb128 0x1
 4736 0fb3 50       		.byte	0x50
 4737 0fb4 02       		.uleb128 0x2
 4738 0fb5 74       		.byte	0x74
 4739 0fb6 00       		.sleb128 0
 4740 0fb7 1D       		.uleb128 0x1d
 4741 0fb8 01       		.uleb128 0x1
 4742 0fb9 52       		.byte	0x52
 4743 0fba 02       		.uleb128 0x2
 4744 0fbb 09       		.byte	0x9
 4745 0fbc FF       		.byte	0xff
 4746 0fbd 1D       		.uleb128 0x1d
 4747 0fbe 01       		.uleb128 0x1
 4748 0fbf 53       		.byte	0x53
 4749 0fc0 01       		.uleb128 0x1
 4750 0fc1 31       		.byte	0x31
 4751 0fc2 00       		.byte	0
 4752 0fc3 1C       		.uleb128 0x1c
 4753 0fc4 9A010000 		.4byte	.LVL79
 4754 0fc8 8E010000 		.4byte	0x18e
 4755 0fcc E30F0000 		.4byte	0xfe3
 4756 0fd0 1D       		.uleb128 0x1d
 4757 0fd1 01       		.uleb128 0x1
 4758 0fd2 50       		.byte	0x50
 4759 0fd3 02       		.uleb128 0x2
 4760 0fd4 74       		.byte	0x74
 4761 0fd5 00       		.sleb128 0
 4762 0fd6 1D       		.uleb128 0x1d
 4763 0fd7 01       		.uleb128 0x1
 4764 0fd8 52       		.byte	0x52
 4765 0fd9 02       		.uleb128 0x2
 4766 0fda 08       		.byte	0x8
 4767 0fdb 22       		.byte	0x22
 4768 0fdc 1D       		.uleb128 0x1d
 4769 0fdd 01       		.uleb128 0x1
 4770 0fde 53       		.byte	0x53
 4771 0fdf 02       		.uleb128 0x2
 4772 0fe0 08       		.byte	0x8
 4773 0fe1 32       		.byte	0x32
 4774 0fe2 00       		.byte	0
 4775 0fe3 1C       		.uleb128 0x1c
 4776 0fe4 A6010000 		.4byte	.LVL80
ARM GAS  C:\Users\hejmi\AppData\Local\Temp\ccFM6jcL.s 			page 99


 4777 0fe8 8E010000 		.4byte	0x18e
 4778 0fec 02100000 		.4byte	0x1002
 4779 0ff0 1D       		.uleb128 0x1d
 4780 0ff1 01       		.uleb128 0x1
 4781 0ff2 50       		.byte	0x50
 4782 0ff3 02       		.uleb128 0x2
 4783 0ff4 74       		.byte	0x74
 4784 0ff5 00       		.sleb128 0
 4785 0ff6 1D       		.uleb128 0x1d
 4786 0ff7 01       		.uleb128 0x1
 4787 0ff8 52       		.byte	0x52
 4788 0ff9 02       		.uleb128 0x2
 4789 0ffa 08       		.byte	0x8
 4790 0ffb 47       		.byte	0x47
 4791 0ffc 1D       		.uleb128 0x1d
 4792 0ffd 01       		.uleb128 0x1
 4793 0ffe 53       		.byte	0x53
 4794 0fff 01       		.uleb128 0x1
 4795 1000 44       		.byte	0x44
 4796 1001 00       		.byte	0
 4797 1002 1C       		.uleb128 0x1c
 4798 1003 B2010000 		.4byte	.LVL81
 4799 1007 8E010000 		.4byte	0x18e
 4800 100b 22100000 		.4byte	0x1022
 4801 100f 1D       		.uleb128 0x1d
 4802 1010 01       		.uleb128 0x1
 4803 1011 50       		.byte	0x50
 4804 1012 02       		.uleb128 0x2
 4805 1013 74       		.byte	0x74
 4806 1014 00       		.sleb128 0
 4807 1015 1D       		.uleb128 0x1d
 4808 1016 01       		.uleb128 0x1
 4809 1017 52       		.byte	0x52
 4810 1018 02       		.uleb128 0x2
 4811 1019 08       		.byte	0x8
 4812 101a 49       		.byte	0x49
 4813 101b 1D       		.uleb128 0x1d
 4814 101c 01       		.uleb128 0x1
 4815 101d 53       		.byte	0x53
 4816 101e 02       		.uleb128 0x2
 4817 101f 09       		.byte	0x9
 4818 1020 FF       		.byte	0xff
 4819 1021 00       		.byte	0
 4820 1022 1C       		.uleb128 0x1c
 4821 1023 BE010000 		.4byte	.LVL82
 4822 1027 8E010000 		.4byte	0x18e
 4823 102b 41100000 		.4byte	0x1041
 4824 102f 1D       		.uleb128 0x1d
 4825 1030 01       		.uleb128 0x1
 4826 1031 50       		.byte	0x50
 4827 1032 02       		.uleb128 0x2
 4828 1033 74       		.byte	0x74
 4829 1034 00       		.sleb128 0
 4830 1035 1D       		.uleb128 0x1d
 4831 1036 01       		.uleb128 0x1
 4832 1037 52       		.byte	0x52
 4833 1038 02       		.uleb128 0x2
ARM GAS  C:\Users\hejmi\AppData\Local\Temp\ccFM6jcL.s 			page 100


 4834 1039 08       		.byte	0x8
 4835 103a 4A       		.byte	0x4a
 4836 103b 1D       		.uleb128 0x1d
 4837 103c 01       		.uleb128 0x1
 4838 103d 53       		.byte	0x53
 4839 103e 01       		.uleb128 0x1
 4840 103f 30       		.byte	0x30
 4841 1040 00       		.byte	0
 4842 1041 1C       		.uleb128 0x1c
 4843 1042 CA010000 		.4byte	.LVL83
 4844 1046 8E010000 		.4byte	0x18e
 4845 104a 60100000 		.4byte	0x1060
 4846 104e 1D       		.uleb128 0x1d
 4847 104f 01       		.uleb128 0x1
 4848 1050 50       		.byte	0x50
 4849 1051 02       		.uleb128 0x2
 4850 1052 74       		.byte	0x74
 4851 1053 00       		.sleb128 0
 4852 1054 1D       		.uleb128 0x1d
 4853 1055 01       		.uleb128 0x1
 4854 1056 52       		.byte	0x52
 4855 1057 02       		.uleb128 0x2
 4856 1058 09       		.byte	0x9
 4857 1059 FF       		.byte	0xff
 4858 105a 1D       		.uleb128 0x1d
 4859 105b 01       		.uleb128 0x1
 4860 105c 53       		.byte	0x53
 4861 105d 01       		.uleb128 0x1
 4862 105e 30       		.byte	0x30
 4863 105f 00       		.byte	0
 4864 1060 1C       		.uleb128 0x1c
 4865 1061 D6010000 		.4byte	.LVL84
 4866 1065 8E010000 		.4byte	0x18e
 4867 1069 7F100000 		.4byte	0x107f
 4868 106d 1D       		.uleb128 0x1d
 4869 106e 01       		.uleb128 0x1
 4870 106f 50       		.byte	0x50
 4871 1070 02       		.uleb128 0x2
 4872 1071 74       		.byte	0x74
 4873 1072 00       		.sleb128 0
 4874 1073 1D       		.uleb128 0x1d
 4875 1074 01       		.uleb128 0x1
 4876 1075 52       		.byte	0x52
 4877 1076 02       		.uleb128 0x2
 4878 1077 08       		.byte	0x8
 4879 1078 7A       		.byte	0x7a
 4880 1079 1D       		.uleb128 0x1d
 4881 107a 01       		.uleb128 0x1
 4882 107b 53       		.byte	0x53
 4883 107c 01       		.uleb128 0x1
 4884 107d 3A       		.byte	0x3a
 4885 107e 00       		.byte	0
 4886 107f 1C       		.uleb128 0x1c
 4887 1080 E2010000 		.4byte	.LVL85
 4888 1084 8E010000 		.4byte	0x18e
 4889 1088 9E100000 		.4byte	0x109e
 4890 108c 1D       		.uleb128 0x1d
ARM GAS  C:\Users\hejmi\AppData\Local\Temp\ccFM6jcL.s 			page 101


 4891 108d 01       		.uleb128 0x1
 4892 108e 50       		.byte	0x50
 4893 108f 02       		.uleb128 0x2
 4894 1090 74       		.byte	0x74
 4895 1091 00       		.sleb128 0
 4896 1092 1D       		.uleb128 0x1d
 4897 1093 01       		.uleb128 0x1
 4898 1094 52       		.byte	0x52
 4899 1095 02       		.uleb128 0x2
 4900 1096 08       		.byte	0x8
 4901 1097 7B       		.byte	0x7b
 4902 1098 1D       		.uleb128 0x1d
 4903 1099 01       		.uleb128 0x1
 4904 109a 53       		.byte	0x53
 4905 109b 01       		.uleb128 0x1
 4906 109c 30       		.byte	0x30
 4907 109d 00       		.byte	0
 4908 109e 1C       		.uleb128 0x1c
 4909 109f EE010000 		.4byte	.LVL86
 4910 10a3 8E010000 		.4byte	0x18e
 4911 10a7 BE100000 		.4byte	0x10be
 4912 10ab 1D       		.uleb128 0x1d
 4913 10ac 01       		.uleb128 0x1
 4914 10ad 50       		.byte	0x50
 4915 10ae 02       		.uleb128 0x2
 4916 10af 74       		.byte	0x74
 4917 10b0 00       		.sleb128 0
 4918 10b1 1D       		.uleb128 0x1d
 4919 10b2 01       		.uleb128 0x1
 4920 10b3 52       		.byte	0x52
 4921 10b4 02       		.uleb128 0x2
 4922 10b5 08       		.byte	0x8
 4923 10b6 78       		.byte	0x78
 4924 10b7 1D       		.uleb128 0x1d
 4925 10b8 01       		.uleb128 0x1
 4926 10b9 53       		.byte	0x53
 4927 10ba 02       		.uleb128 0x2
 4928 10bb 08       		.byte	0x8
 4929 10bc 21       		.byte	0x21
 4930 10bd 00       		.byte	0
 4931 10be 1C       		.uleb128 0x1c
 4932 10bf FA010000 		.4byte	.LVL87
 4933 10c3 8E010000 		.4byte	0x18e
 4934 10c7 DD100000 		.4byte	0x10dd
 4935 10cb 1D       		.uleb128 0x1d
 4936 10cc 01       		.uleb128 0x1
 4937 10cd 50       		.byte	0x50
 4938 10ce 02       		.uleb128 0x2
 4939 10cf 74       		.byte	0x74
 4940 10d0 00       		.sleb128 0
 4941 10d1 1D       		.uleb128 0x1d
 4942 10d2 01       		.uleb128 0x1
 4943 10d3 52       		.byte	0x52
 4944 10d4 02       		.uleb128 0x2
 4945 10d5 09       		.byte	0x9
 4946 10d6 FF       		.byte	0xff
 4947 10d7 1D       		.uleb128 0x1d
ARM GAS  C:\Users\hejmi\AppData\Local\Temp\ccFM6jcL.s 			page 102


 4948 10d8 01       		.uleb128 0x1
 4949 10d9 53       		.byte	0x53
 4950 10da 01       		.uleb128 0x1
 4951 10db 31       		.byte	0x31
 4952 10dc 00       		.byte	0
 4953 10dd 1C       		.uleb128 0x1c
 4954 10de 06020000 		.4byte	.LVL88
 4955 10e2 8E010000 		.4byte	0x18e
 4956 10e6 FD100000 		.4byte	0x10fd
 4957 10ea 1D       		.uleb128 0x1d
 4958 10eb 01       		.uleb128 0x1
 4959 10ec 50       		.byte	0x50
 4960 10ed 02       		.uleb128 0x2
 4961 10ee 74       		.byte	0x74
 4962 10ef 00       		.sleb128 0
 4963 10f0 1D       		.uleb128 0x1d
 4964 10f1 01       		.uleb128 0x1
 4965 10f2 52       		.byte	0x52
 4966 10f3 02       		.uleb128 0x2
 4967 10f4 08       		.byte	0x8
 4968 10f5 23       		.byte	0x23
 4969 10f6 1D       		.uleb128 0x1d
 4970 10f7 01       		.uleb128 0x1
 4971 10f8 53       		.byte	0x53
 4972 10f9 02       		.uleb128 0x2
 4973 10fa 08       		.byte	0x8
 4974 10fb 34       		.byte	0x34
 4975 10fc 00       		.byte	0
 4976 10fd 1C       		.uleb128 0x1c
 4977 10fe 12020000 		.4byte	.LVL89
 4978 1102 8E010000 		.4byte	0x18e
 4979 1106 1C110000 		.4byte	0x111c
 4980 110a 1D       		.uleb128 0x1d
 4981 110b 01       		.uleb128 0x1
 4982 110c 50       		.byte	0x50
 4983 110d 02       		.uleb128 0x2
 4984 110e 74       		.byte	0x74
 4985 110f 00       		.sleb128 0
 4986 1110 1D       		.uleb128 0x1d
 4987 1111 01       		.uleb128 0x1
 4988 1112 52       		.byte	0x52
 4989 1113 02       		.uleb128 0x2
 4990 1114 08       		.byte	0x8
 4991 1115 42       		.byte	0x42
 4992 1116 1D       		.uleb128 0x1d
 4993 1117 01       		.uleb128 0x1
 4994 1118 53       		.byte	0x53
 4995 1119 01       		.uleb128 0x1
 4996 111a 30       		.byte	0x30
 4997 111b 00       		.byte	0
 4998 111c 1C       		.uleb128 0x1c
 4999 111d 1E020000 		.4byte	.LVL90
 5000 1121 8E010000 		.4byte	0x18e
 5001 1125 3C110000 		.4byte	0x113c
 5002 1129 1D       		.uleb128 0x1d
 5003 112a 01       		.uleb128 0x1
 5004 112b 50       		.byte	0x50
ARM GAS  C:\Users\hejmi\AppData\Local\Temp\ccFM6jcL.s 			page 103


 5005 112c 02       		.uleb128 0x2
 5006 112d 74       		.byte	0x74
 5007 112e 00       		.sleb128 0
 5008 112f 1D       		.uleb128 0x1d
 5009 1130 01       		.uleb128 0x1
 5010 1131 52       		.byte	0x52
 5011 1132 02       		.uleb128 0x2
 5012 1133 08       		.byte	0x8
 5013 1134 44       		.byte	0x44
 5014 1135 1D       		.uleb128 0x1d
 5015 1136 01       		.uleb128 0x1
 5016 1137 53       		.byte	0x53
 5017 1138 02       		.uleb128 0x2
 5018 1139 09       		.byte	0x9
 5019 113a FF       		.byte	0xff
 5020 113b 00       		.byte	0
 5021 113c 1C       		.uleb128 0x1c
 5022 113d 2A020000 		.4byte	.LVL91
 5023 1141 8E010000 		.4byte	0x18e
 5024 1145 5C110000 		.4byte	0x115c
 5025 1149 1D       		.uleb128 0x1d
 5026 114a 01       		.uleb128 0x1
 5027 114b 50       		.byte	0x50
 5028 114c 02       		.uleb128 0x2
 5029 114d 74       		.byte	0x74
 5030 114e 00       		.sleb128 0
 5031 114f 1D       		.uleb128 0x1d
 5032 1150 01       		.uleb128 0x1
 5033 1151 52       		.byte	0x52
 5034 1152 02       		.uleb128 0x2
 5035 1153 08       		.byte	0x8
 5036 1154 45       		.byte	0x45
 5037 1155 1D       		.uleb128 0x1d
 5038 1156 01       		.uleb128 0x1
 5039 1157 53       		.byte	0x53
 5040 1158 02       		.uleb128 0x2
 5041 1159 08       		.byte	0x8
 5042 115a 26       		.byte	0x26
 5043 115b 00       		.byte	0
 5044 115c 1C       		.uleb128 0x1c
 5045 115d 36020000 		.4byte	.LVL92
 5046 1161 8E010000 		.4byte	0x18e
 5047 1165 7B110000 		.4byte	0x117b
 5048 1169 1D       		.uleb128 0x1d
 5049 116a 01       		.uleb128 0x1
 5050 116b 50       		.byte	0x50
 5051 116c 02       		.uleb128 0x2
 5052 116d 74       		.byte	0x74
 5053 116e 00       		.sleb128 0
 5054 116f 1D       		.uleb128 0x1d
 5055 1170 01       		.uleb128 0x1
 5056 1171 52       		.byte	0x52
 5057 1172 02       		.uleb128 0x2
 5058 1173 08       		.byte	0x8
 5059 1174 46       		.byte	0x46
 5060 1175 1D       		.uleb128 0x1d
 5061 1176 01       		.uleb128 0x1
ARM GAS  C:\Users\hejmi\AppData\Local\Temp\ccFM6jcL.s 			page 104


 5062 1177 53       		.byte	0x53
 5063 1178 01       		.uleb128 0x1
 5064 1179 35       		.byte	0x35
 5065 117a 00       		.byte	0
 5066 117b 1C       		.uleb128 0x1c
 5067 117c 42020000 		.4byte	.LVL93
 5068 1180 8E010000 		.4byte	0x18e
 5069 1184 9B110000 		.4byte	0x119b
 5070 1188 1D       		.uleb128 0x1d
 5071 1189 01       		.uleb128 0x1
 5072 118a 50       		.byte	0x50
 5073 118b 02       		.uleb128 0x2
 5074 118c 74       		.byte	0x74
 5075 118d 00       		.sleb128 0
 5076 118e 1D       		.uleb128 0x1d
 5077 118f 01       		.uleb128 0x1
 5078 1190 52       		.byte	0x52
 5079 1191 02       		.uleb128 0x2
 5080 1192 08       		.byte	0x8
 5081 1193 40       		.byte	0x40
 5082 1194 1D       		.uleb128 0x1d
 5083 1195 01       		.uleb128 0x1
 5084 1196 53       		.byte	0x53
 5085 1197 02       		.uleb128 0x2
 5086 1198 08       		.byte	0x8
 5087 1199 40       		.byte	0x40
 5088 119a 00       		.byte	0
 5089 119b 1C       		.uleb128 0x1c
 5090 119c 4E020000 		.4byte	.LVL94
 5091 11a0 8E010000 		.4byte	0x18e
 5092 11a4 B9110000 		.4byte	0x11b9
 5093 11a8 1D       		.uleb128 0x1d
 5094 11a9 01       		.uleb128 0x1
 5095 11aa 50       		.byte	0x50
 5096 11ab 02       		.uleb128 0x2
 5097 11ac 74       		.byte	0x74
 5098 11ad 00       		.sleb128 0
 5099 11ae 1D       		.uleb128 0x1d
 5100 11af 01       		.uleb128 0x1
 5101 11b0 52       		.byte	0x52
 5102 11b1 01       		.uleb128 0x1
 5103 11b2 3E       		.byte	0x3e
 5104 11b3 1D       		.uleb128 0x1d
 5105 11b4 01       		.uleb128 0x1
 5106 11b5 53       		.byte	0x53
 5107 11b6 01       		.uleb128 0x1
 5108 11b7 36       		.byte	0x36
 5109 11b8 00       		.byte	0
 5110 11b9 1C       		.uleb128 0x1c
 5111 11ba 5A020000 		.4byte	.LVL95
 5112 11be 8E010000 		.4byte	0x18e
 5113 11c2 D8110000 		.4byte	0x11d8
 5114 11c6 1D       		.uleb128 0x1d
 5115 11c7 01       		.uleb128 0x1
 5116 11c8 50       		.byte	0x50
 5117 11c9 02       		.uleb128 0x2
 5118 11ca 74       		.byte	0x74
ARM GAS  C:\Users\hejmi\AppData\Local\Temp\ccFM6jcL.s 			page 105


 5119 11cb 00       		.sleb128 0
 5120 11cc 1D       		.uleb128 0x1d
 5121 11cd 01       		.uleb128 0x1
 5122 11ce 52       		.byte	0x52
 5123 11cf 02       		.uleb128 0x2
 5124 11d0 08       		.byte	0x8
 5125 11d1 20       		.byte	0x20
 5126 11d2 1D       		.uleb128 0x1d
 5127 11d3 01       		.uleb128 0x1
 5128 11d4 53       		.byte	0x53
 5129 11d5 01       		.uleb128 0x1
 5130 11d6 4A       		.byte	0x4a
 5131 11d7 00       		.byte	0
 5132 11d8 1C       		.uleb128 0x1c
 5133 11d9 66020000 		.4byte	.LVL96
 5134 11dd 8E010000 		.4byte	0x18e
 5135 11e1 F8110000 		.4byte	0x11f8
 5136 11e5 1D       		.uleb128 0x1d
 5137 11e6 01       		.uleb128 0x1
 5138 11e7 50       		.byte	0x50
 5139 11e8 02       		.uleb128 0x2
 5140 11e9 74       		.byte	0x74
 5141 11ea 00       		.sleb128 0
 5142 11eb 1D       		.uleb128 0x1d
 5143 11ec 01       		.uleb128 0x1
 5144 11ed 52       		.byte	0x52
 5145 11ee 02       		.uleb128 0x2
 5146 11ef 08       		.byte	0x8
 5147 11f0 43       		.byte	0x43
 5148 11f1 1D       		.uleb128 0x1d
 5149 11f2 01       		.uleb128 0x1
 5150 11f3 53       		.byte	0x53
 5151 11f4 02       		.uleb128 0x2
 5152 11f5 08       		.byte	0x8
 5153 11f6 40       		.byte	0x40
 5154 11f7 00       		.byte	0
 5155 11f8 1C       		.uleb128 0x1c
 5156 11f9 72020000 		.4byte	.LVL97
 5157 11fd 8E010000 		.4byte	0x18e
 5158 1201 17120000 		.4byte	0x1217
 5159 1205 1D       		.uleb128 0x1d
 5160 1206 01       		.uleb128 0x1
 5161 1207 50       		.byte	0x50
 5162 1208 02       		.uleb128 0x2
 5163 1209 74       		.byte	0x74
 5164 120a 00       		.sleb128 0
 5165 120b 1D       		.uleb128 0x1d
 5166 120c 01       		.uleb128 0x1
 5167 120d 52       		.byte	0x52
 5168 120e 02       		.uleb128 0x2
 5169 120f 09       		.byte	0x9
 5170 1210 FF       		.byte	0xff
 5171 1211 1D       		.uleb128 0x1d
 5172 1212 01       		.uleb128 0x1
 5173 1213 53       		.byte	0x53
 5174 1214 01       		.uleb128 0x1
 5175 1215 30       		.byte	0x30
ARM GAS  C:\Users\hejmi\AppData\Local\Temp\ccFM6jcL.s 			page 106


 5176 1216 00       		.byte	0
 5177 1217 1C       		.uleb128 0x1c
 5178 1218 7E020000 		.4byte	.LVL98
 5179 121c 8E010000 		.4byte	0x18e
 5180 1220 36120000 		.4byte	0x1236
 5181 1224 1D       		.uleb128 0x1d
 5182 1225 01       		.uleb128 0x1
 5183 1226 50       		.byte	0x50
 5184 1227 02       		.uleb128 0x2
 5185 1228 74       		.byte	0x74
 5186 1229 00       		.sleb128 0
 5187 122a 1D       		.uleb128 0x1d
 5188 122b 01       		.uleb128 0x1
 5189 122c 52       		.byte	0x52
 5190 122d 02       		.uleb128 0x2
 5191 122e 08       		.byte	0x8
 5192 122f 34       		.byte	0x34
 5193 1230 1D       		.uleb128 0x1d
 5194 1231 01       		.uleb128 0x1
 5195 1232 53       		.byte	0x53
 5196 1233 01       		.uleb128 0x1
 5197 1234 33       		.byte	0x33
 5198 1235 00       		.byte	0
 5199 1236 1C       		.uleb128 0x1c
 5200 1237 8A020000 		.4byte	.LVL99
 5201 123b 8E010000 		.4byte	0x18e
 5202 123f 56120000 		.4byte	0x1256
 5203 1243 1D       		.uleb128 0x1d
 5204 1244 01       		.uleb128 0x1
 5205 1245 50       		.byte	0x50
 5206 1246 02       		.uleb128 0x2
 5207 1247 74       		.byte	0x74
 5208 1248 00       		.sleb128 0
 5209 1249 1D       		.uleb128 0x1d
 5210 124a 01       		.uleb128 0x1
 5211 124b 52       		.byte	0x52
 5212 124c 02       		.uleb128 0x2
 5213 124d 08       		.byte	0x8
 5214 124e 35       		.byte	0x35
 5215 124f 1D       		.uleb128 0x1d
 5216 1250 01       		.uleb128 0x1
 5217 1251 53       		.byte	0x53
 5218 1252 02       		.uleb128 0x2
 5219 1253 08       		.byte	0x8
 5220 1254 44       		.byte	0x44
 5221 1255 00       		.byte	0
 5222 1256 1C       		.uleb128 0x1c
 5223 1257 96020000 		.4byte	.LVL100
 5224 125b 8E010000 		.4byte	0x18e
 5225 125f 75120000 		.4byte	0x1275
 5226 1263 1D       		.uleb128 0x1d
 5227 1264 01       		.uleb128 0x1
 5228 1265 50       		.byte	0x50
 5229 1266 02       		.uleb128 0x2
 5230 1267 74       		.byte	0x74
 5231 1268 00       		.sleb128 0
 5232 1269 1D       		.uleb128 0x1d
ARM GAS  C:\Users\hejmi\AppData\Local\Temp\ccFM6jcL.s 			page 107


 5233 126a 01       		.uleb128 0x1
 5234 126b 52       		.byte	0x52
 5235 126c 02       		.uleb128 0x2
 5236 126d 09       		.byte	0x9
 5237 126e FF       		.byte	0xff
 5238 126f 1D       		.uleb128 0x1d
 5239 1270 01       		.uleb128 0x1
 5240 1271 53       		.byte	0x53
 5241 1272 01       		.uleb128 0x1
 5242 1273 31       		.byte	0x31
 5243 1274 00       		.byte	0
 5244 1275 1C       		.uleb128 0x1c
 5245 1276 A2020000 		.4byte	.LVL101
 5246 127a 8E010000 		.4byte	0x18e
 5247 127e 94120000 		.4byte	0x1294
 5248 1282 1D       		.uleb128 0x1d
 5249 1283 01       		.uleb128 0x1
 5250 1284 50       		.byte	0x50
 5251 1285 02       		.uleb128 0x2
 5252 1286 74       		.byte	0x74
 5253 1287 00       		.sleb128 0
 5254 1288 1D       		.uleb128 0x1d
 5255 1289 01       		.uleb128 0x1
 5256 128a 52       		.byte	0x52
 5257 128b 02       		.uleb128 0x2
 5258 128c 08       		.byte	0x8
 5259 128d 31       		.byte	0x31
 5260 128e 1D       		.uleb128 0x1d
 5261 128f 01       		.uleb128 0x1
 5262 1290 53       		.byte	0x53
 5263 1291 01       		.uleb128 0x1
 5264 1292 34       		.byte	0x34
 5265 1293 00       		.byte	0
 5266 1294 1C       		.uleb128 0x1c
 5267 1295 AE020000 		.4byte	.LVL102
 5268 1299 8E010000 		.4byte	0x18e
 5269 129d B3120000 		.4byte	0x12b3
 5270 12a1 1D       		.uleb128 0x1d
 5271 12a2 01       		.uleb128 0x1
 5272 12a3 50       		.byte	0x50
 5273 12a4 02       		.uleb128 0x2
 5274 12a5 74       		.byte	0x74
 5275 12a6 00       		.sleb128 0
 5276 12a7 1D       		.uleb128 0x1d
 5277 12a8 01       		.uleb128 0x1
 5278 12a9 52       		.byte	0x52
 5279 12aa 02       		.uleb128 0x2
 5280 12ab 08       		.byte	0x8
 5281 12ac 4B       		.byte	0x4b
 5282 12ad 1D       		.uleb128 0x1d
 5283 12ae 01       		.uleb128 0x1
 5284 12af 53       		.byte	0x53
 5285 12b0 01       		.uleb128 0x1
 5286 12b1 39       		.byte	0x39
 5287 12b2 00       		.byte	0
 5288 12b3 1C       		.uleb128 0x1c
 5289 12b4 BA020000 		.4byte	.LVL103
ARM GAS  C:\Users\hejmi\AppData\Local\Temp\ccFM6jcL.s 			page 108


 5290 12b8 8E010000 		.4byte	0x18e
 5291 12bc D2120000 		.4byte	0x12d2
 5292 12c0 1D       		.uleb128 0x1d
 5293 12c1 01       		.uleb128 0x1
 5294 12c2 50       		.byte	0x50
 5295 12c3 02       		.uleb128 0x2
 5296 12c4 74       		.byte	0x74
 5297 12c5 00       		.sleb128 0
 5298 12c6 1D       		.uleb128 0x1d
 5299 12c7 01       		.uleb128 0x1
 5300 12c8 52       		.byte	0x52
 5301 12c9 02       		.uleb128 0x2
 5302 12ca 08       		.byte	0x8
 5303 12cb 4C       		.byte	0x4c
 5304 12cc 1D       		.uleb128 0x1d
 5305 12cd 01       		.uleb128 0x1
 5306 12ce 53       		.byte	0x53
 5307 12cf 01       		.uleb128 0x1
 5308 12d0 35       		.byte	0x35
 5309 12d1 00       		.byte	0
 5310 12d2 1C       		.uleb128 0x1c
 5311 12d3 C6020000 		.4byte	.LVL104
 5312 12d7 8E010000 		.4byte	0x18e
 5313 12db F1120000 		.4byte	0x12f1
 5314 12df 1D       		.uleb128 0x1d
 5315 12e0 01       		.uleb128 0x1
 5316 12e1 50       		.byte	0x50
 5317 12e2 02       		.uleb128 0x2
 5318 12e3 74       		.byte	0x74
 5319 12e4 00       		.sleb128 0
 5320 12e5 1D       		.uleb128 0x1d
 5321 12e6 01       		.uleb128 0x1
 5322 12e7 52       		.byte	0x52
 5323 12e8 02       		.uleb128 0x2
 5324 12e9 08       		.byte	0x8
 5325 12ea 4D       		.byte	0x4d
 5326 12eb 1D       		.uleb128 0x1d
 5327 12ec 01       		.uleb128 0x1
 5328 12ed 53       		.byte	0x53
 5329 12ee 01       		.uleb128 0x1
 5330 12ef 34       		.byte	0x34
 5331 12f0 00       		.byte	0
 5332 12f1 1C       		.uleb128 0x1c
 5333 12f2 D2020000 		.4byte	.LVL105
 5334 12f6 8E010000 		.4byte	0x18e
 5335 12fa 10130000 		.4byte	0x1310
 5336 12fe 1D       		.uleb128 0x1d
 5337 12ff 01       		.uleb128 0x1
 5338 1300 50       		.byte	0x50
 5339 1301 02       		.uleb128 0x2
 5340 1302 74       		.byte	0x74
 5341 1303 00       		.sleb128 0
 5342 1304 1D       		.uleb128 0x1d
 5343 1305 01       		.uleb128 0x1
 5344 1306 52       		.byte	0x52
 5345 1307 02       		.uleb128 0x2
 5346 1308 09       		.byte	0x9
ARM GAS  C:\Users\hejmi\AppData\Local\Temp\ccFM6jcL.s 			page 109


 5347 1309 FF       		.byte	0xff
 5348 130a 1D       		.uleb128 0x1d
 5349 130b 01       		.uleb128 0x1
 5350 130c 53       		.byte	0x53
 5351 130d 01       		.uleb128 0x1
 5352 130e 30       		.byte	0x30
 5353 130f 00       		.byte	0
 5354 1310 1C       		.uleb128 0x1c
 5355 1311 DE020000 		.4byte	.LVL106
 5356 1315 8E010000 		.4byte	0x18e
 5357 1319 2F130000 		.4byte	0x132f
 5358 131d 1D       		.uleb128 0x1d
 5359 131e 01       		.uleb128 0x1
 5360 131f 50       		.byte	0x50
 5361 1320 02       		.uleb128 0x2
 5362 1321 74       		.byte	0x74
 5363 1322 00       		.sleb128 0
 5364 1323 1D       		.uleb128 0x1d
 5365 1324 01       		.uleb128 0x1
 5366 1325 52       		.byte	0x52
 5367 1326 02       		.uleb128 0x2
 5368 1327 08       		.byte	0x8
 5369 1328 44       		.byte	0x44
 5370 1329 1D       		.uleb128 0x1d
 5371 132a 01       		.uleb128 0x1
 5372 132b 53       		.byte	0x53
 5373 132c 01       		.uleb128 0x1
 5374 132d 30       		.byte	0x30
 5375 132e 00       		.byte	0
 5376 132f 1C       		.uleb128 0x1c
 5377 1330 EA020000 		.4byte	.LVL107
 5378 1334 8E010000 		.4byte	0x18e
 5379 1338 4F130000 		.4byte	0x134f
 5380 133c 1D       		.uleb128 0x1d
 5381 133d 01       		.uleb128 0x1
 5382 133e 50       		.byte	0x50
 5383 133f 02       		.uleb128 0x2
 5384 1340 74       		.byte	0x74
 5385 1341 00       		.sleb128 0
 5386 1342 1D       		.uleb128 0x1d
 5387 1343 01       		.uleb128 0x1
 5388 1344 52       		.byte	0x52
 5389 1345 02       		.uleb128 0x2
 5390 1346 08       		.byte	0x8
 5391 1347 45       		.byte	0x45
 5392 1348 1D       		.uleb128 0x1d
 5393 1349 01       		.uleb128 0x1
 5394 134a 53       		.byte	0x53
 5395 134b 02       		.uleb128 0x2
 5396 134c 08       		.byte	0x8
 5397 134d 20       		.byte	0x20
 5398 134e 00       		.byte	0
 5399 134f 1C       		.uleb128 0x1c
 5400 1350 F6020000 		.4byte	.LVL108
 5401 1354 8E010000 		.4byte	0x18e
 5402 1358 6E130000 		.4byte	0x136e
 5403 135c 1D       		.uleb128 0x1d
ARM GAS  C:\Users\hejmi\AppData\Local\Temp\ccFM6jcL.s 			page 110


 5404 135d 01       		.uleb128 0x1
 5405 135e 50       		.byte	0x50
 5406 135f 02       		.uleb128 0x2
 5407 1360 74       		.byte	0x74
 5408 1361 00       		.sleb128 0
 5409 1362 1D       		.uleb128 0x1d
 5410 1363 01       		.uleb128 0x1
 5411 1364 52       		.byte	0x52
 5412 1365 02       		.uleb128 0x2
 5413 1366 08       		.byte	0x8
 5414 1367 47       		.byte	0x47
 5415 1368 1D       		.uleb128 0x1d
 5416 1369 01       		.uleb128 0x1
 5417 136a 53       		.byte	0x53
 5418 136b 01       		.uleb128 0x1
 5419 136c 38       		.byte	0x38
 5420 136d 00       		.byte	0
 5421 136e 1C       		.uleb128 0x1c
 5422 136f 02030000 		.4byte	.LVL109
 5423 1373 8E010000 		.4byte	0x18e
 5424 1377 8E130000 		.4byte	0x138e
 5425 137b 1D       		.uleb128 0x1d
 5426 137c 01       		.uleb128 0x1
 5427 137d 50       		.byte	0x50
 5428 137e 02       		.uleb128 0x2
 5429 137f 74       		.byte	0x74
 5430 1380 00       		.sleb128 0
 5431 1381 1D       		.uleb128 0x1d
 5432 1382 01       		.uleb128 0x1
 5433 1383 52       		.byte	0x52
 5434 1384 02       		.uleb128 0x2
 5435 1385 08       		.byte	0x8
 5436 1386 48       		.byte	0x48
 5437 1387 1D       		.uleb128 0x1d
 5438 1388 01       		.uleb128 0x1
 5439 1389 53       		.byte	0x53
 5440 138a 02       		.uleb128 0x2
 5441 138b 08       		.byte	0x8
 5442 138c 28       		.byte	0x28
 5443 138d 00       		.byte	0
 5444 138e 1C       		.uleb128 0x1c
 5445 138f 0E030000 		.4byte	.LVL110
 5446 1393 8E010000 		.4byte	0x18e
 5447 1397 AD130000 		.4byte	0x13ad
 5448 139b 1D       		.uleb128 0x1d
 5449 139c 01       		.uleb128 0x1
 5450 139d 50       		.byte	0x50
 5451 139e 02       		.uleb128 0x2
 5452 139f 74       		.byte	0x74
 5453 13a0 00       		.sleb128 0
 5454 13a1 1D       		.uleb128 0x1d
 5455 13a2 01       		.uleb128 0x1
 5456 13a3 52       		.byte	0x52
 5457 13a4 02       		.uleb128 0x2
 5458 13a5 08       		.byte	0x8
 5459 13a6 67       		.byte	0x67
 5460 13a7 1D       		.uleb128 0x1d
ARM GAS  C:\Users\hejmi\AppData\Local\Temp\ccFM6jcL.s 			page 111


 5461 13a8 01       		.uleb128 0x1
 5462 13a9 53       		.byte	0x53
 5463 13aa 01       		.uleb128 0x1
 5464 13ab 30       		.byte	0x30
 5465 13ac 00       		.byte	0
 5466 13ad 1C       		.uleb128 0x1c
 5467 13ae 1A030000 		.4byte	.LVL111
 5468 13b2 8E010000 		.4byte	0x18e
 5469 13b6 CC130000 		.4byte	0x13cc
 5470 13ba 1D       		.uleb128 0x1d
 5471 13bb 01       		.uleb128 0x1
 5472 13bc 50       		.byte	0x50
 5473 13bd 02       		.uleb128 0x2
 5474 13be 74       		.byte	0x74
 5475 13bf 00       		.sleb128 0
 5476 13c0 1D       		.uleb128 0x1d
 5477 13c1 01       		.uleb128 0x1
 5478 13c2 52       		.byte	0x52
 5479 13c3 02       		.uleb128 0x2
 5480 13c4 08       		.byte	0x8
 5481 13c5 70       		.byte	0x70
 5482 13c6 1D       		.uleb128 0x1d
 5483 13c7 01       		.uleb128 0x1
 5484 13c8 53       		.byte	0x53
 5485 13c9 01       		.uleb128 0x1
 5486 13ca 34       		.byte	0x34
 5487 13cb 00       		.byte	0
 5488 13cc 1C       		.uleb128 0x1c
 5489 13cd 26030000 		.4byte	.LVL112
 5490 13d1 8E010000 		.4byte	0x18e
 5491 13d5 EB130000 		.4byte	0x13eb
 5492 13d9 1D       		.uleb128 0x1d
 5493 13da 01       		.uleb128 0x1
 5494 13db 50       		.byte	0x50
 5495 13dc 02       		.uleb128 0x2
 5496 13dd 74       		.byte	0x74
 5497 13de 00       		.sleb128 0
 5498 13df 1D       		.uleb128 0x1d
 5499 13e0 01       		.uleb128 0x1
 5500 13e1 52       		.byte	0x52
 5501 13e2 02       		.uleb128 0x2
 5502 13e3 08       		.byte	0x8
 5503 13e4 71       		.byte	0x71
 5504 13e5 1D       		.uleb128 0x1d
 5505 13e6 01       		.uleb128 0x1
 5506 13e7 53       		.byte	0x53
 5507 13e8 01       		.uleb128 0x1
 5508 13e9 31       		.byte	0x31
 5509 13ea 00       		.byte	0
 5510 13eb 1C       		.uleb128 0x1c
 5511 13ec 32030000 		.4byte	.LVL113
 5512 13f0 8E010000 		.4byte	0x18e
 5513 13f4 0B140000 		.4byte	0x140b
 5514 13f8 1D       		.uleb128 0x1d
 5515 13f9 01       		.uleb128 0x1
 5516 13fa 50       		.byte	0x50
 5517 13fb 02       		.uleb128 0x2
ARM GAS  C:\Users\hejmi\AppData\Local\Temp\ccFM6jcL.s 			page 112


 5518 13fc 74       		.byte	0x74
 5519 13fd 00       		.sleb128 0
 5520 13fe 1D       		.uleb128 0x1d
 5521 13ff 01       		.uleb128 0x1
 5522 1400 52       		.byte	0x52
 5523 1401 02       		.uleb128 0x2
 5524 1402 08       		.byte	0x8
 5525 1403 72       		.byte	0x72
 5526 1404 1D       		.uleb128 0x1d
 5527 1405 01       		.uleb128 0x1
 5528 1406 53       		.byte	0x53
 5529 1407 02       		.uleb128 0x2
 5530 1408 09       		.byte	0x9
 5531 1409 FE       		.byte	0xfe
 5532 140a 00       		.byte	0
 5533 140b 1C       		.uleb128 0x1c
 5534 140c 3E030000 		.4byte	.LVL114
 5535 1410 8E010000 		.4byte	0x18e
 5536 1414 2A140000 		.4byte	0x142a
 5537 1418 1D       		.uleb128 0x1d
 5538 1419 01       		.uleb128 0x1
 5539 141a 50       		.byte	0x50
 5540 141b 02       		.uleb128 0x2
 5541 141c 74       		.byte	0x74
 5542 141d 00       		.sleb128 0
 5543 141e 1D       		.uleb128 0x1d
 5544 141f 01       		.uleb128 0x1
 5545 1420 52       		.byte	0x52
 5546 1421 02       		.uleb128 0x2
 5547 1422 08       		.byte	0x8
 5548 1423 76       		.byte	0x76
 5549 1424 1D       		.uleb128 0x1d
 5550 1425 01       		.uleb128 0x1
 5551 1426 53       		.byte	0x53
 5552 1427 01       		.uleb128 0x1
 5553 1428 30       		.byte	0x30
 5554 1429 00       		.byte	0
 5555 142a 1C       		.uleb128 0x1c
 5556 142b 4A030000 		.4byte	.LVL115
 5557 142f 8E010000 		.4byte	0x18e
 5558 1433 49140000 		.4byte	0x1449
 5559 1437 1D       		.uleb128 0x1d
 5560 1438 01       		.uleb128 0x1
 5561 1439 50       		.byte	0x50
 5562 143a 02       		.uleb128 0x2
 5563 143b 74       		.byte	0x74
 5564 143c 00       		.sleb128 0
 5565 143d 1D       		.uleb128 0x1d
 5566 143e 01       		.uleb128 0x1
 5567 143f 52       		.byte	0x52
 5568 1440 02       		.uleb128 0x2
 5569 1441 08       		.byte	0x8
 5570 1442 77       		.byte	0x77
 5571 1443 1D       		.uleb128 0x1d
 5572 1444 01       		.uleb128 0x1
 5573 1445 53       		.byte	0x53
 5574 1446 01       		.uleb128 0x1
ARM GAS  C:\Users\hejmi\AppData\Local\Temp\ccFM6jcL.s 			page 113


 5575 1447 30       		.byte	0x30
 5576 1448 00       		.byte	0
 5577 1449 1C       		.uleb128 0x1c
 5578 144a 56030000 		.4byte	.LVL116
 5579 144e 8E010000 		.4byte	0x18e
 5580 1452 68140000 		.4byte	0x1468
 5581 1456 1D       		.uleb128 0x1d
 5582 1457 01       		.uleb128 0x1
 5583 1458 50       		.byte	0x50
 5584 1459 02       		.uleb128 0x2
 5585 145a 74       		.byte	0x74
 5586 145b 00       		.sleb128 0
 5587 145c 1D       		.uleb128 0x1d
 5588 145d 01       		.uleb128 0x1
 5589 145e 52       		.byte	0x52
 5590 145f 02       		.uleb128 0x2
 5591 1460 09       		.byte	0x9
 5592 1461 FF       		.byte	0xff
 5593 1462 1D       		.uleb128 0x1d
 5594 1463 01       		.uleb128 0x1
 5595 1464 53       		.byte	0x53
 5596 1465 01       		.uleb128 0x1
 5597 1466 31       		.byte	0x31
 5598 1467 00       		.byte	0
 5599 1468 1C       		.uleb128 0x1c
 5600 1469 62030000 		.4byte	.LVL117
 5601 146d 8E010000 		.4byte	0x18e
 5602 1471 86140000 		.4byte	0x1486
 5603 1475 1D       		.uleb128 0x1d
 5604 1476 01       		.uleb128 0x1
 5605 1477 50       		.byte	0x50
 5606 1478 02       		.uleb128 0x2
 5607 1479 74       		.byte	0x74
 5608 147a 00       		.sleb128 0
 5609 147b 1D       		.uleb128 0x1d
 5610 147c 01       		.uleb128 0x1
 5611 147d 52       		.byte	0x52
 5612 147e 01       		.uleb128 0x1
 5613 147f 3D       		.byte	0x3d
 5614 1480 1D       		.uleb128 0x1d
 5615 1481 01       		.uleb128 0x1
 5616 1482 53       		.byte	0x53
 5617 1483 01       		.uleb128 0x1
 5618 1484 31       		.byte	0x31
 5619 1485 00       		.byte	0
 5620 1486 1C       		.uleb128 0x1c
 5621 1487 6E030000 		.4byte	.LVL118
 5622 148b 8E010000 		.4byte	0x18e
 5623 148f A5140000 		.4byte	0x14a5
 5624 1493 1D       		.uleb128 0x1d
 5625 1494 01       		.uleb128 0x1
 5626 1495 50       		.byte	0x50
 5627 1496 02       		.uleb128 0x2
 5628 1497 74       		.byte	0x74
 5629 1498 00       		.sleb128 0
 5630 1499 1D       		.uleb128 0x1d
 5631 149a 01       		.uleb128 0x1
ARM GAS  C:\Users\hejmi\AppData\Local\Temp\ccFM6jcL.s 			page 114


 5632 149b 52       		.byte	0x52
 5633 149c 02       		.uleb128 0x2
 5634 149d 09       		.byte	0x9
 5635 149e FF       		.byte	0xff
 5636 149f 1D       		.uleb128 0x1d
 5637 14a0 01       		.uleb128 0x1
 5638 14a1 53       		.byte	0x53
 5639 14a2 01       		.uleb128 0x1
 5640 14a3 30       		.byte	0x30
 5641 14a4 00       		.byte	0
 5642 14a5 1C       		.uleb128 0x1c
 5643 14a6 7A030000 		.4byte	.LVL119
 5644 14aa 8E010000 		.4byte	0x18e
 5645 14ae C4140000 		.4byte	0x14c4
 5646 14b2 1D       		.uleb128 0x1d
 5647 14b3 01       		.uleb128 0x1
 5648 14b4 50       		.byte	0x50
 5649 14b5 02       		.uleb128 0x2
 5650 14b6 74       		.byte	0x74
 5651 14b7 00       		.sleb128 0
 5652 14b8 1D       		.uleb128 0x1d
 5653 14b9 01       		.uleb128 0x1
 5654 14ba 52       		.byte	0x52
 5655 14bb 02       		.uleb128 0x2
 5656 14bc 09       		.byte	0x9
 5657 14bd 80       		.byte	0x80
 5658 14be 1D       		.uleb128 0x1d
 5659 14bf 01       		.uleb128 0x1
 5660 14c0 53       		.byte	0x53
 5661 14c1 01       		.uleb128 0x1
 5662 14c2 31       		.byte	0x31
 5663 14c3 00       		.byte	0
 5664 14c4 1C       		.uleb128 0x1c
 5665 14c5 86030000 		.4byte	.LVL120
 5666 14c9 8E010000 		.4byte	0x18e
 5667 14cd E3140000 		.4byte	0x14e3
 5668 14d1 1D       		.uleb128 0x1d
 5669 14d2 01       		.uleb128 0x1
 5670 14d3 50       		.byte	0x50
 5671 14d4 02       		.uleb128 0x2
 5672 14d5 74       		.byte	0x74
 5673 14d6 00       		.sleb128 0
 5674 14d7 1D       		.uleb128 0x1d
 5675 14d8 01       		.uleb128 0x1
 5676 14d9 52       		.byte	0x52
 5677 14da 01       		.uleb128 0x1
 5678 14db 31       		.byte	0x31
 5679 14dc 1D       		.uleb128 0x1d
 5680 14dd 01       		.uleb128 0x1
 5681 14de 53       		.byte	0x53
 5682 14df 02       		.uleb128 0x2
 5683 14e0 09       		.byte	0x9
 5684 14e1 F8       		.byte	0xf8
 5685 14e2 00       		.byte	0
 5686 14e3 1C       		.uleb128 0x1c
 5687 14e4 92030000 		.4byte	.LVL121
 5688 14e8 8E010000 		.4byte	0x18e
ARM GAS  C:\Users\hejmi\AppData\Local\Temp\ccFM6jcL.s 			page 115


 5689 14ec 02150000 		.4byte	0x1502
 5690 14f0 1D       		.uleb128 0x1d
 5691 14f1 01       		.uleb128 0x1
 5692 14f2 50       		.byte	0x50
 5693 14f3 02       		.uleb128 0x2
 5694 14f4 74       		.byte	0x74
 5695 14f5 00       		.sleb128 0
 5696 14f6 1D       		.uleb128 0x1d
 5697 14f7 01       		.uleb128 0x1
 5698 14f8 52       		.byte	0x52
 5699 14f9 02       		.uleb128 0x2
 5700 14fa 09       		.byte	0x9
 5701 14fb FF       		.byte	0xff
 5702 14fc 1D       		.uleb128 0x1d
 5703 14fd 01       		.uleb128 0x1
 5704 14fe 53       		.byte	0x53
 5705 14ff 01       		.uleb128 0x1
 5706 1500 31       		.byte	0x31
 5707 1501 00       		.byte	0
 5708 1502 1C       		.uleb128 0x1c
 5709 1503 9E030000 		.4byte	.LVL122
 5710 1507 8E010000 		.4byte	0x18e
 5711 150b 21150000 		.4byte	0x1521
 5712 150f 1D       		.uleb128 0x1d
 5713 1510 01       		.uleb128 0x1
 5714 1511 50       		.byte	0x50
 5715 1512 02       		.uleb128 0x2
 5716 1513 74       		.byte	0x74
 5717 1514 00       		.sleb128 0
 5718 1515 1D       		.uleb128 0x1d
 5719 1516 01       		.uleb128 0x1
 5720 1517 52       		.byte	0x52
 5721 1518 02       		.uleb128 0x2
 5722 1519 09       		.byte	0x9
 5723 151a 8E       		.byte	0x8e
 5724 151b 1D       		.uleb128 0x1d
 5725 151c 01       		.uleb128 0x1
 5726 151d 53       		.byte	0x53
 5727 151e 01       		.uleb128 0x1
 5728 151f 31       		.byte	0x31
 5729 1520 00       		.byte	0
 5730 1521 1C       		.uleb128 0x1c
 5731 1522 AA030000 		.4byte	.LVL123
 5732 1526 8E010000 		.4byte	0x18e
 5733 152a 3F150000 		.4byte	0x153f
 5734 152e 1D       		.uleb128 0x1d
 5735 152f 01       		.uleb128 0x1
 5736 1530 50       		.byte	0x50
 5737 1531 02       		.uleb128 0x2
 5738 1532 74       		.byte	0x74
 5739 1533 00       		.sleb128 0
 5740 1534 1D       		.uleb128 0x1d
 5741 1535 01       		.uleb128 0x1
 5742 1536 52       		.byte	0x52
 5743 1537 01       		.uleb128 0x1
 5744 1538 30       		.byte	0x30
 5745 1539 1D       		.uleb128 0x1d
ARM GAS  C:\Users\hejmi\AppData\Local\Temp\ccFM6jcL.s 			page 116


 5746 153a 01       		.uleb128 0x1
 5747 153b 53       		.byte	0x53
 5748 153c 01       		.uleb128 0x1
 5749 153d 31       		.byte	0x31
 5750 153e 00       		.byte	0
 5751 153f 1C       		.uleb128 0x1c
 5752 1540 B6030000 		.4byte	.LVL124
 5753 1544 8E010000 		.4byte	0x18e
 5754 1548 5E150000 		.4byte	0x155e
 5755 154c 1D       		.uleb128 0x1d
 5756 154d 01       		.uleb128 0x1
 5757 154e 50       		.byte	0x50
 5758 154f 02       		.uleb128 0x2
 5759 1550 74       		.byte	0x74
 5760 1551 00       		.sleb128 0
 5761 1552 1D       		.uleb128 0x1d
 5762 1553 01       		.uleb128 0x1
 5763 1554 52       		.byte	0x52
 5764 1555 02       		.uleb128 0x2
 5765 1556 09       		.byte	0x9
 5766 1557 FF       		.byte	0xff
 5767 1558 1D       		.uleb128 0x1d
 5768 1559 01       		.uleb128 0x1
 5769 155a 53       		.byte	0x53
 5770 155b 01       		.uleb128 0x1
 5771 155c 30       		.byte	0x30
 5772 155d 00       		.byte	0
 5773 155e 1E       		.uleb128 0x1e
 5774 155f C2030000 		.4byte	.LVL125
 5775 1563 8E010000 		.4byte	0x18e
 5776 1567 1D       		.uleb128 0x1d
 5777 1568 01       		.uleb128 0x1
 5778 1569 50       		.byte	0x50
 5779 156a 02       		.uleb128 0x2
 5780 156b 74       		.byte	0x74
 5781 156c 00       		.sleb128 0
 5782 156d 1D       		.uleb128 0x1d
 5783 156e 01       		.uleb128 0x1
 5784 156f 52       		.byte	0x52
 5785 1570 02       		.uleb128 0x2
 5786 1571 09       		.byte	0x9
 5787 1572 80       		.byte	0x80
 5788 1573 1D       		.uleb128 0x1d
 5789 1574 01       		.uleb128 0x1
 5790 1575 53       		.byte	0x53
 5791 1576 01       		.uleb128 0x1
 5792 1577 30       		.byte	0x30
 5793 1578 00       		.byte	0
 5794 1579 00       		.byte	0
 5795 157a 22       		.uleb128 0x22
 5796 157b 01050000 		.4byte	0x501
 5797 157f 01       		.byte	0x1
 5798 1580 0202     		.2byte	0x202
 5799 1582 00000000 		.4byte	.LFB87
 5800 1586 40000000 		.4byte	.LFE87-.LFB87
 5801 158a 01       		.uleb128 0x1
 5802 158b 9C       		.byte	0x9c
ARM GAS  C:\Users\hejmi\AppData\Local\Temp\ccFM6jcL.s 			page 117


 5803 158c 94150000 		.4byte	0x1594
 5804 1590 23160000 		.4byte	0x1623
 5805 1594 17       		.uleb128 0x17
 5806 1595 2C070000 		.4byte	.LASF113
 5807 1599 CE080000 		.4byte	0x8ce
 5808 159d D1010000 		.4byte	.LLST11
 5809 15a1 24       		.uleb128 0x24
 5810 15a2 6D000000 		.4byte	.LASF121
 5811 15a6 01       		.byte	0x1
 5812 15a7 0602     		.2byte	0x206
 5813 15a9 9E000000 		.4byte	0x9e
 5814 15ad 02       		.uleb128 0x2
 5815 15ae 91       		.byte	0x91
 5816 15af 77       		.sleb128 -9
 5817 15b0 1C       		.uleb128 0x1c
 5818 15b1 10000000 		.4byte	.LVL127
 5819 15b5 8E010000 		.4byte	0x18e
 5820 15b9 CE150000 		.4byte	0x15ce
 5821 15bd 1D       		.uleb128 0x1d
 5822 15be 01       		.uleb128 0x1
 5823 15bf 50       		.byte	0x50
 5824 15c0 02       		.uleb128 0x2
 5825 15c1 74       		.byte	0x74
 5826 15c2 00       		.sleb128 0
 5827 15c3 1D       		.uleb128 0x1d
 5828 15c4 01       		.uleb128 0x1
 5829 15c5 52       		.byte	0x52
 5830 15c6 01       		.uleb128 0x1
 5831 15c7 3A       		.byte	0x3a
 5832 15c8 1D       		.uleb128 0x1d
 5833 15c9 01       		.uleb128 0x1
 5834 15ca 53       		.byte	0x53
 5835 15cb 01       		.uleb128 0x1
 5836 15cc 34       		.byte	0x34
 5837 15cd 00       		.byte	0
 5838 15ce 1C       		.uleb128 0x1c
 5839 15cf 1E000000 		.4byte	.LVL128
 5840 15d3 37010000 		.4byte	0x137
 5841 15d7 EE150000 		.4byte	0x15ee
 5842 15db 1D       		.uleb128 0x1d
 5843 15dc 01       		.uleb128 0x1
 5844 15dd 50       		.byte	0x50
 5845 15de 02       		.uleb128 0x2
 5846 15df 74       		.byte	0x74
 5847 15e0 00       		.sleb128 0
 5848 15e1 1D       		.uleb128 0x1d
 5849 15e2 01       		.uleb128 0x1
 5850 15e3 52       		.byte	0x52
 5851 15e4 02       		.uleb128 0x2
 5852 15e5 09       		.byte	0x9
 5853 15e6 84       		.byte	0x84
 5854 15e7 1D       		.uleb128 0x1d
 5855 15e8 01       		.uleb128 0x1
 5856 15e9 53       		.byte	0x53
 5857 15ea 02       		.uleb128 0x2
 5858 15eb 91       		.byte	0x91
 5859 15ec 77       		.sleb128 -9
ARM GAS  C:\Users\hejmi\AppData\Local\Temp\ccFM6jcL.s 			page 118


 5860 15ed 00       		.byte	0
 5861 15ee 1C       		.uleb128 0x1c
 5862 15ef 30000000 		.4byte	.LVL129
 5863 15f3 8E010000 		.4byte	0x18e
 5864 15f7 08160000 		.4byte	0x1608
 5865 15fb 1D       		.uleb128 0x1d
 5866 15fc 01       		.uleb128 0x1
 5867 15fd 50       		.byte	0x50
 5868 15fe 02       		.uleb128 0x2
 5869 15ff 74       		.byte	0x74
 5870 1600 00       		.sleb128 0
 5871 1601 1D       		.uleb128 0x1d
 5872 1602 01       		.uleb128 0x1
 5873 1603 52       		.byte	0x52
 5874 1604 02       		.uleb128 0x2
 5875 1605 09       		.byte	0x9
 5876 1606 84       		.byte	0x84
 5877 1607 00       		.byte	0
 5878 1608 1E       		.uleb128 0x1e
 5879 1609 3C000000 		.4byte	.LVL130
 5880 160d 8E010000 		.4byte	0x18e
 5881 1611 1D       		.uleb128 0x1d
 5882 1612 01       		.uleb128 0x1
 5883 1613 50       		.byte	0x50
 5884 1614 02       		.uleb128 0x2
 5885 1615 74       		.byte	0x74
 5886 1616 00       		.sleb128 0
 5887 1617 1D       		.uleb128 0x1d
 5888 1618 01       		.uleb128 0x1
 5889 1619 52       		.byte	0x52
 5890 161a 01       		.uleb128 0x1
 5891 161b 3B       		.byte	0x3b
 5892 161c 1D       		.uleb128 0x1d
 5893 161d 01       		.uleb128 0x1
 5894 161e 53       		.byte	0x53
 5895 161f 01       		.uleb128 0x1
 5896 1620 31       		.byte	0x31
 5897 1621 00       		.byte	0
 5898 1622 00       		.byte	0
 5899 1623 22       		.uleb128 0x22
 5900 1624 AE040000 		.4byte	0x4ae
 5901 1628 01       		.byte	0x1
 5902 1629 2402     		.2byte	0x224
 5903 162b 00000000 		.4byte	.LFB89
 5904 162f 66000000 		.4byte	.LFE89-.LFB89
 5905 1633 01       		.uleb128 0x1
 5906 1634 9C       		.byte	0x9c
 5907 1635 3D160000 		.4byte	0x163d
 5908 1639 3E170000 		.4byte	0x173e
 5909 163d 17       		.uleb128 0x17
 5910 163e 2C070000 		.4byte	.LASF113
 5911 1642 CE080000 		.4byte	0x8ce
 5912 1646 EF010000 		.4byte	.LLST12
 5913 164a 1C       		.uleb128 0x1c
 5914 164b 0E000000 		.4byte	.LVL132
 5915 164f 8E010000 		.4byte	0x18e
 5916 1653 69160000 		.4byte	0x1669
ARM GAS  C:\Users\hejmi\AppData\Local\Temp\ccFM6jcL.s 			page 119


 5917 1657 1D       		.uleb128 0x1d
 5918 1658 01       		.uleb128 0x1
 5919 1659 50       		.byte	0x50
 5920 165a 02       		.uleb128 0x2
 5921 165b 74       		.byte	0x74
 5922 165c 00       		.sleb128 0
 5923 165d 1D       		.uleb128 0x1d
 5924 165e 01       		.uleb128 0x1
 5925 165f 52       		.byte	0x52
 5926 1660 02       		.uleb128 0x2
 5927 1661 09       		.byte	0x9
 5928 1662 88       		.byte	0x88
 5929 1663 1D       		.uleb128 0x1d
 5930 1664 01       		.uleb128 0x1
 5931 1665 53       		.byte	0x53
 5932 1666 01       		.uleb128 0x1
 5933 1667 30       		.byte	0x30
 5934 1668 00       		.byte	0
 5935 1669 1C       		.uleb128 0x1c
 5936 166a 1A000000 		.4byte	.LVL133
 5937 166e 8E010000 		.4byte	0x18e
 5938 1672 88160000 		.4byte	0x1688
 5939 1676 1D       		.uleb128 0x1d
 5940 1677 01       		.uleb128 0x1
 5941 1678 50       		.byte	0x50
 5942 1679 02       		.uleb128 0x2
 5943 167a 74       		.byte	0x74
 5944 167b 00       		.sleb128 0
 5945 167c 1D       		.uleb128 0x1d
 5946 167d 01       		.uleb128 0x1
 5947 167e 52       		.byte	0x52
 5948 167f 02       		.uleb128 0x2
 5949 1680 09       		.byte	0x9
 5950 1681 80       		.byte	0x80
 5951 1682 1D       		.uleb128 0x1d
 5952 1683 01       		.uleb128 0x1
 5953 1684 53       		.byte	0x53
 5954 1685 01       		.uleb128 0x1
 5955 1686 31       		.byte	0x31
 5956 1687 00       		.byte	0
 5957 1688 1C       		.uleb128 0x1c
 5958 1689 26000000 		.4byte	.LVL134
 5959 168d 8E010000 		.4byte	0x18e
 5960 1691 A7160000 		.4byte	0x16a7
 5961 1695 1D       		.uleb128 0x1d
 5962 1696 01       		.uleb128 0x1
 5963 1697 50       		.byte	0x50
 5964 1698 02       		.uleb128 0x2
 5965 1699 74       		.byte	0x74
 5966 169a 00       		.sleb128 0
 5967 169b 1D       		.uleb128 0x1d
 5968 169c 01       		.uleb128 0x1
 5969 169d 52       		.byte	0x52
 5970 169e 02       		.uleb128 0x2
 5971 169f 09       		.byte	0x9
 5972 16a0 FF       		.byte	0xff
 5973 16a1 1D       		.uleb128 0x1d
ARM GAS  C:\Users\hejmi\AppData\Local\Temp\ccFM6jcL.s 			page 120


 5974 16a2 01       		.uleb128 0x1
 5975 16a3 53       		.byte	0x53
 5976 16a4 01       		.uleb128 0x1
 5977 16a5 31       		.byte	0x31
 5978 16a6 00       		.byte	0
 5979 16a7 1C       		.uleb128 0x1c
 5980 16a8 32000000 		.4byte	.LVL135
 5981 16ac 8E010000 		.4byte	0x18e
 5982 16b0 C5160000 		.4byte	0x16c5
 5983 16b4 1D       		.uleb128 0x1d
 5984 16b5 01       		.uleb128 0x1
 5985 16b6 50       		.byte	0x50
 5986 16b7 02       		.uleb128 0x2
 5987 16b8 74       		.byte	0x74
 5988 16b9 00       		.sleb128 0
 5989 16ba 1D       		.uleb128 0x1d
 5990 16bb 01       		.uleb128 0x1
 5991 16bc 52       		.byte	0x52
 5992 16bd 01       		.uleb128 0x1
 5993 16be 30       		.byte	0x30
 5994 16bf 1D       		.uleb128 0x1d
 5995 16c0 01       		.uleb128 0x1
 5996 16c1 53       		.byte	0x53
 5997 16c2 01       		.uleb128 0x1
 5998 16c3 30       		.byte	0x30
 5999 16c4 00       		.byte	0
 6000 16c5 1C       		.uleb128 0x1c
 6001 16c6 40000000 		.4byte	.LVL136
 6002 16ca 37010000 		.4byte	0x137
 6003 16ce E5160000 		.4byte	0x16e5
 6004 16d2 1D       		.uleb128 0x1d
 6005 16d3 01       		.uleb128 0x1
 6006 16d4 50       		.byte	0x50
 6007 16d5 02       		.uleb128 0x2
 6008 16d6 74       		.byte	0x74
 6009 16d7 00       		.sleb128 0
 6010 16d8 1D       		.uleb128 0x1d
 6011 16d9 01       		.uleb128 0x1
 6012 16da 52       		.byte	0x52
 6013 16db 02       		.uleb128 0x2
 6014 16dc 09       		.byte	0x9
 6015 16dd 91       		.byte	0x91
 6016 16de 1D       		.uleb128 0x1d
 6017 16df 01       		.uleb128 0x1
 6018 16e0 53       		.byte	0x53
 6019 16e1 02       		.uleb128 0x2
 6020 16e2 74       		.byte	0x74
 6021 16e3 0E       		.sleb128 14
 6022 16e4 00       		.byte	0
 6023 16e5 1C       		.uleb128 0x1c
 6024 16e6 4C000000 		.4byte	.LVL137
 6025 16ea 8E010000 		.4byte	0x18e
 6026 16ee 03170000 		.4byte	0x1703
 6027 16f2 1D       		.uleb128 0x1d
 6028 16f3 01       		.uleb128 0x1
 6029 16f4 50       		.byte	0x50
 6030 16f5 02       		.uleb128 0x2
ARM GAS  C:\Users\hejmi\AppData\Local\Temp\ccFM6jcL.s 			page 121


 6031 16f6 74       		.byte	0x74
 6032 16f7 00       		.sleb128 0
 6033 16f8 1D       		.uleb128 0x1d
 6034 16f9 01       		.uleb128 0x1
 6035 16fa 52       		.byte	0x52
 6036 16fb 01       		.uleb128 0x1
 6037 16fc 30       		.byte	0x30
 6038 16fd 1D       		.uleb128 0x1d
 6039 16fe 01       		.uleb128 0x1
 6040 16ff 53       		.byte	0x53
 6041 1700 01       		.uleb128 0x1
 6042 1701 31       		.byte	0x31
 6043 1702 00       		.byte	0
 6044 1703 1C       		.uleb128 0x1c
 6045 1704 58000000 		.4byte	.LVL138
 6046 1708 8E010000 		.4byte	0x18e
 6047 170c 22170000 		.4byte	0x1722
 6048 1710 1D       		.uleb128 0x1d
 6049 1711 01       		.uleb128 0x1
 6050 1712 50       		.byte	0x50
 6051 1713 02       		.uleb128 0x2
 6052 1714 74       		.byte	0x74
 6053 1715 00       		.sleb128 0
 6054 1716 1D       		.uleb128 0x1d
 6055 1717 01       		.uleb128 0x1
 6056 1718 52       		.byte	0x52
 6057 1719 02       		.uleb128 0x2
 6058 171a 09       		.byte	0x9
 6059 171b FF       		.byte	0xff
 6060 171c 1D       		.uleb128 0x1d
 6061 171d 01       		.uleb128 0x1
 6062 171e 53       		.byte	0x53
 6063 171f 01       		.uleb128 0x1
 6064 1720 30       		.byte	0x30
 6065 1721 00       		.byte	0
 6066 1722 1E       		.uleb128 0x1e
 6067 1723 64000000 		.4byte	.LVL139
 6068 1727 8E010000 		.4byte	0x18e
 6069 172b 1D       		.uleb128 0x1d
 6070 172c 01       		.uleb128 0x1
 6071 172d 50       		.byte	0x50
 6072 172e 02       		.uleb128 0x2
 6073 172f 74       		.byte	0x74
 6074 1730 00       		.sleb128 0
 6075 1731 1D       		.uleb128 0x1d
 6076 1732 01       		.uleb128 0x1
 6077 1733 52       		.byte	0x52
 6078 1734 02       		.uleb128 0x2
 6079 1735 09       		.byte	0x9
 6080 1736 80       		.byte	0x80
 6081 1737 1D       		.uleb128 0x1d
 6082 1738 01       		.uleb128 0x1
 6083 1739 53       		.byte	0x53
 6084 173a 01       		.uleb128 0x1
 6085 173b 30       		.byte	0x30
 6086 173c 00       		.byte	0
 6087 173d 00       		.byte	0
ARM GAS  C:\Users\hejmi\AppData\Local\Temp\ccFM6jcL.s 			page 122


 6088 173e 27       		.uleb128 0x27
 6089 173f EF050000 		.4byte	0x5ef
 6090 1743 01       		.byte	0x1
 6091 1744 3A02     		.2byte	0x23a
 6092 1746 00000000 		.4byte	.LFB90
 6093 174a 68000000 		.4byte	.LFE90-.LFB90
 6094 174e 01       		.uleb128 0x1
 6095 174f 9C       		.byte	0x9c
 6096 1750 58170000 		.4byte	0x1758
 6097 1754 B7170000 		.4byte	0x17b7
 6098 1758 17       		.uleb128 0x17
 6099 1759 2C070000 		.4byte	.LASF113
 6100 175d CE080000 		.4byte	0x8ce
 6101 1761 0D020000 		.4byte	.LLST13
 6102 1765 23       		.uleb128 0x23
 6103 1766 CE030000 		.4byte	.LASF122
 6104 176a 01       		.byte	0x1
 6105 176b 3A02     		.2byte	0x23a
 6106 176d 25000000 		.4byte	0x25
 6107 1771 39020000 		.4byte	.LLST14
 6108 1775 24       		.uleb128 0x24
 6109 1776 FF090000 		.4byte	.LASF123
 6110 177a 01       		.byte	0x1
 6111 177b 3F02     		.2byte	0x23f
 6112 177d 6B0A0000 		.4byte	0xa6b
 6113 1781 02       		.uleb128 0x2
 6114 1782 91       		.byte	0x91
 6115 1783 6C       		.sleb128 -20
 6116 1784 28       		.uleb128 0x28
 6117 1785 746D7000 		.ascii	"tmp\000"
 6118 1789 01       		.byte	0x1
 6119 178a 4002     		.2byte	0x240
 6120 178c A9000000 		.4byte	0xa9
 6121 1790 67020000 		.4byte	.LLST15
 6122 1794 1E       		.uleb128 0x1e
 6123 1795 4E000000 		.4byte	.LVL150
 6124 1799 60010000 		.4byte	0x160
 6125 179d 1D       		.uleb128 0x1d
 6126 179e 01       		.uleb128 0x1
 6127 179f 50       		.byte	0x50
 6128 17a0 02       		.uleb128 0x2
 6129 17a1 75       		.byte	0x75
 6130 17a2 00       		.sleb128 0
 6131 17a3 1D       		.uleb128 0x1d
 6132 17a4 01       		.uleb128 0x1
 6133 17a5 52       		.byte	0x52
 6134 17a6 02       		.uleb128 0x2
 6135 17a7 08       		.byte	0x8
 6136 17a8 44       		.byte	0x44
 6137 17a9 1D       		.uleb128 0x1d
 6138 17aa 01       		.uleb128 0x1
 6139 17ab 53       		.byte	0x53
 6140 17ac 01       		.uleb128 0x1
 6141 17ad 32       		.byte	0x32
 6142 17ae 1D       		.uleb128 0x1d
 6143 17af 02       		.uleb128 0x2
 6144 17b0 7D       		.byte	0x7d
ARM GAS  C:\Users\hejmi\AppData\Local\Temp\ccFM6jcL.s 			page 123


 6145 17b1 00       		.sleb128 0
 6146 17b2 02       		.uleb128 0x2
 6147 17b3 91       		.byte	0x91
 6148 17b4 6C       		.sleb128 -20
 6149 17b5 00       		.byte	0
 6150 17b6 00       		.byte	0
 6151 17b7 22       		.uleb128 0x22
 6152 17b8 C8040000 		.4byte	0x4c8
 6153 17bc 01       		.byte	0x1
 6154 17bd 0C02     		.2byte	0x20c
 6155 17bf 00000000 		.4byte	.LFB88
 6156 17c3 66000000 		.4byte	.LFE88-.LFB88
 6157 17c7 01       		.uleb128 0x1
 6158 17c8 9C       		.byte	0x9c
 6159 17c9 D1170000 		.4byte	0x17d1
 6160 17cd CE180000 		.4byte	0x18ce
 6161 17d1 17       		.uleb128 0x17
 6162 17d2 2C070000 		.4byte	.LASF113
 6163 17d6 CE080000 		.4byte	0x8ce
 6164 17da 7A020000 		.4byte	.LLST16
 6165 17de 23       		.uleb128 0x23
 6166 17df A4090000 		.4byte	.LASF124
 6167 17e3 01       		.byte	0x1
 6168 17e4 0C02     		.2byte	0x20c
 6169 17e6 B7020000 		.4byte	0x2b7
 6170 17ea 98020000 		.4byte	.LLST17
 6171 17ee 24       		.uleb128 0x24
 6172 17ef C3040000 		.4byte	.LASF125
 6173 17f3 01       		.byte	0x1
 6174 17f4 1B02     		.2byte	0x21b
 6175 17f6 9E000000 		.4byte	0x9e
 6176 17fa 02       		.uleb128 0x2
 6177 17fb 91       		.byte	0x91
 6178 17fc 77       		.sleb128 -9
 6179 17fd 19       		.uleb128 0x19
 6180 17fe 08000000 		.4byte	.LBB5
 6181 1802 1E000000 		.4byte	.LBE5-.LBB5
 6182 1806 50180000 		.4byte	0x1850
 6183 180a 26       		.uleb128 0x26
 6184 180b 746D7000 		.ascii	"tmp\000"
 6185 180f 01       		.byte	0x1
 6186 1810 1102     		.2byte	0x211
 6187 1812 9E000000 		.4byte	0x9e
 6188 1816 02       		.uleb128 0x2
 6189 1817 91       		.byte	0x91
 6190 1818 76       		.sleb128 -10
 6191 1819 1C       		.uleb128 0x1c
 6192 181a 14000000 		.4byte	.LVL154
 6193 181e 37010000 		.4byte	0x137
 6194 1822 39180000 		.4byte	0x1839
 6195 1826 1D       		.uleb128 0x1d
 6196 1827 01       		.uleb128 0x1
 6197 1828 50       		.byte	0x50
 6198 1829 02       		.uleb128 0x2
 6199 182a 74       		.byte	0x74
 6200 182b 00       		.sleb128 0
 6201 182c 1D       		.uleb128 0x1d
ARM GAS  C:\Users\hejmi\AppData\Local\Temp\ccFM6jcL.s 			page 124


 6202 182d 01       		.uleb128 0x1
 6203 182e 52       		.byte	0x52
 6204 182f 02       		.uleb128 0x2
 6205 1830 09       		.byte	0x9
 6206 1831 89       		.byte	0x89
 6207 1832 1D       		.uleb128 0x1d
 6208 1833 01       		.uleb128 0x1
 6209 1834 53       		.byte	0x53
 6210 1835 02       		.uleb128 0x2
 6211 1836 91       		.byte	0x91
 6212 1837 76       		.sleb128 -10
 6213 1838 00       		.byte	0
 6214 1839 1E       		.uleb128 0x1e
 6215 183a 26000000 		.4byte	.LVL155
 6216 183e 8E010000 		.4byte	0x18e
 6217 1842 1D       		.uleb128 0x1d
 6218 1843 01       		.uleb128 0x1
 6219 1844 50       		.byte	0x50
 6220 1845 02       		.uleb128 0x2
 6221 1846 74       		.byte	0x74
 6222 1847 00       		.sleb128 0
 6223 1848 1D       		.uleb128 0x1d
 6224 1849 01       		.uleb128 0x1
 6225 184a 52       		.byte	0x52
 6226 184b 02       		.uleb128 0x2
 6227 184c 09       		.byte	0x9
 6228 184d 89       		.byte	0x89
 6229 184e 00       		.byte	0
 6230 184f 00       		.byte	0
 6231 1850 1C       		.uleb128 0x1c
 6232 1851 2C000000 		.4byte	.LVL156
 6233 1855 23160000 		.4byte	0x1623
 6234 1859 64180000 		.4byte	0x1864
 6235 185d 1D       		.uleb128 0x1d
 6236 185e 01       		.uleb128 0x1
 6237 185f 50       		.byte	0x50
 6238 1860 02       		.uleb128 0x2
 6239 1861 74       		.byte	0x74
 6240 1862 00       		.sleb128 0
 6241 1863 00       		.byte	0
 6242 1864 1C       		.uleb128 0x1c
 6243 1865 3A000000 		.4byte	.LVL157
 6244 1869 37010000 		.4byte	0x137
 6245 186d 84180000 		.4byte	0x1884
 6246 1871 1D       		.uleb128 0x1d
 6247 1872 01       		.uleb128 0x1
 6248 1873 50       		.byte	0x50
 6249 1874 02       		.uleb128 0x2
 6250 1875 74       		.byte	0x74
 6251 1876 00       		.sleb128 0
 6252 1877 1D       		.uleb128 0x1d
 6253 1878 01       		.uleb128 0x1
 6254 1879 52       		.byte	0x52
 6255 187a 02       		.uleb128 0x2
 6256 187b 08       		.byte	0x8
 6257 187c 60       		.byte	0x60
 6258 187d 1D       		.uleb128 0x1d
ARM GAS  C:\Users\hejmi\AppData\Local\Temp\ccFM6jcL.s 			page 125


 6259 187e 01       		.uleb128 0x1
 6260 187f 53       		.byte	0x53
 6261 1880 02       		.uleb128 0x2
 6262 1881 91       		.byte	0x91
 6263 1882 77       		.sleb128 -9
 6264 1883 00       		.byte	0
 6265 1884 1C       		.uleb128 0x1c
 6266 1885 4C000000 		.4byte	.LVL158
 6267 1889 8E010000 		.4byte	0x18e
 6268 188d 9E180000 		.4byte	0x189e
 6269 1891 1D       		.uleb128 0x1d
 6270 1892 01       		.uleb128 0x1
 6271 1893 50       		.byte	0x50
 6272 1894 02       		.uleb128 0x2
 6273 1895 74       		.byte	0x74
 6274 1896 00       		.sleb128 0
 6275 1897 1D       		.uleb128 0x1d
 6276 1898 01       		.uleb128 0x1
 6277 1899 52       		.byte	0x52
 6278 189a 02       		.uleb128 0x2
 6279 189b 08       		.byte	0x8
 6280 189c 60       		.byte	0x60
 6281 189d 00       		.byte	0
 6282 189e 1C       		.uleb128 0x1c
 6283 189f 56000000 		.4byte	.LVL159
 6284 18a3 3E170000 		.4byte	0x173e
 6285 18a7 B2180000 		.4byte	0x18b2
 6286 18ab 1D       		.uleb128 0x1d
 6287 18ac 01       		.uleb128 0x1
 6288 18ad 50       		.byte	0x50
 6289 18ae 02       		.uleb128 0x2
 6290 18af 74       		.byte	0x74
 6291 18b0 00       		.sleb128 0
 6292 18b1 00       		.byte	0
 6293 18b2 1E       		.uleb128 0x1e
 6294 18b3 62000000 		.4byte	.LVL160
 6295 18b7 8E010000 		.4byte	0x18e
 6296 18bb 1D       		.uleb128 0x1d
 6297 18bc 01       		.uleb128 0x1
 6298 18bd 50       		.byte	0x50
 6299 18be 02       		.uleb128 0x2
 6300 18bf 74       		.byte	0x74
 6301 18c0 00       		.sleb128 0
 6302 18c1 1D       		.uleb128 0x1d
 6303 18c2 01       		.uleb128 0x1
 6304 18c3 52       		.byte	0x52
 6305 18c4 01       		.uleb128 0x1
 6306 18c5 31       		.byte	0x31
 6307 18c6 1D       		.uleb128 0x1d
 6308 18c7 01       		.uleb128 0x1
 6309 18c8 53       		.byte	0x53
 6310 18c9 02       		.uleb128 0x2
 6311 18ca 09       		.byte	0x9
 6312 18cb FF       		.byte	0xff
 6313 18cc 00       		.byte	0
 6314 18cd 00       		.byte	0
 6315 18ce 22       		.uleb128 0x22
ARM GAS  C:\Users\hejmi\AppData\Local\Temp\ccFM6jcL.s 			page 126


 6316 18cf 12060000 		.4byte	0x612
 6317 18d3 01       		.byte	0x1
 6318 18d4 4B02     		.2byte	0x24b
 6319 18d6 00000000 		.4byte	.LFB91
 6320 18da 48010000 		.4byte	.LFE91-.LFB91
 6321 18de 01       		.uleb128 0x1
 6322 18df 9C       		.byte	0x9c
 6323 18e0 E8180000 		.4byte	0x18e8
 6324 18e4 C41B0000 		.4byte	0x1bc4
 6325 18e8 17       		.uleb128 0x17
 6326 18e9 2C070000 		.4byte	.LASF113
 6327 18ed CE080000 		.4byte	0x8ce
 6328 18f1 B9020000 		.4byte	.LLST18
 6329 18f5 23       		.uleb128 0x23
 6330 18f6 62020000 		.4byte	.LASF126
 6331 18fa 01       		.byte	0x1
 6332 18fb 4B02     		.2byte	0x24b
 6333 18fd 68020000 		.4byte	0x268
 6334 1901 D7020000 		.4byte	.LLST19
 6335 1905 23       		.uleb128 0x23
 6336 1906 5B030000 		.4byte	.LASF127
 6337 190a 01       		.byte	0x1
 6338 190b 4B02     		.2byte	0x24b
 6339 190d 16070000 		.4byte	0x716
 6340 1911 F5020000 		.4byte	.LLST20
 6341 1915 26       		.uleb128 0x26
 6342 1916 746D7000 		.ascii	"tmp\000"
 6343 191a 01       		.byte	0x1
 6344 191b 4D02     		.2byte	0x24d
 6345 191d 9E000000 		.4byte	0x9e
 6346 1921 02       		.uleb128 0x2
 6347 1922 91       		.byte	0x91
 6348 1923 67       		.sleb128 -25
 6349 1924 1C       		.uleb128 0x1c
 6350 1925 16000000 		.4byte	.LVL164
 6351 1929 8E010000 		.4byte	0x18e
 6352 192d 43190000 		.4byte	0x1943
 6353 1931 1D       		.uleb128 0x1d
 6354 1932 01       		.uleb128 0x1
 6355 1933 50       		.byte	0x50
 6356 1934 02       		.uleb128 0x2
 6357 1935 74       		.byte	0x74
 6358 1936 00       		.sleb128 0
 6359 1937 1D       		.uleb128 0x1d
 6360 1938 01       		.uleb128 0x1
 6361 1939 52       		.byte	0x52
 6362 193a 02       		.uleb128 0x2
 6363 193b 09       		.byte	0x9
 6364 193c 80       		.byte	0x80
 6365 193d 1D       		.uleb128 0x1d
 6366 193e 01       		.uleb128 0x1
 6367 193f 53       		.byte	0x53
 6368 1940 01       		.uleb128 0x1
 6369 1941 31       		.byte	0x31
 6370 1942 00       		.byte	0
 6371 1943 1C       		.uleb128 0x1c
 6372 1944 22000000 		.4byte	.LVL165
ARM GAS  C:\Users\hejmi\AppData\Local\Temp\ccFM6jcL.s 			page 127


 6373 1948 8E010000 		.4byte	0x18e
 6374 194c 62190000 		.4byte	0x1962
 6375 1950 1D       		.uleb128 0x1d
 6376 1951 01       		.uleb128 0x1
 6377 1952 50       		.byte	0x50
 6378 1953 02       		.uleb128 0x2
 6379 1954 74       		.byte	0x74
 6380 1955 00       		.sleb128 0
 6381 1956 1D       		.uleb128 0x1d
 6382 1957 01       		.uleb128 0x1
 6383 1958 52       		.byte	0x52
 6384 1959 02       		.uleb128 0x2
 6385 195a 09       		.byte	0x9
 6386 195b FF       		.byte	0xff
 6387 195c 1D       		.uleb128 0x1d
 6388 195d 01       		.uleb128 0x1
 6389 195e 53       		.byte	0x53
 6390 195f 01       		.uleb128 0x1
 6391 1960 31       		.byte	0x31
 6392 1961 00       		.byte	0
 6393 1962 1C       		.uleb128 0x1c
 6394 1963 2E000000 		.4byte	.LVL166
 6395 1967 8E010000 		.4byte	0x18e
 6396 196b 80190000 		.4byte	0x1980
 6397 196f 1D       		.uleb128 0x1d
 6398 1970 01       		.uleb128 0x1
 6399 1971 50       		.byte	0x50
 6400 1972 02       		.uleb128 0x2
 6401 1973 74       		.byte	0x74
 6402 1974 00       		.sleb128 0
 6403 1975 1D       		.uleb128 0x1d
 6404 1976 01       		.uleb128 0x1
 6405 1977 52       		.byte	0x52
 6406 1978 01       		.uleb128 0x1
 6407 1979 30       		.byte	0x30
 6408 197a 1D       		.uleb128 0x1d
 6409 197b 01       		.uleb128 0x1
 6410 197c 53       		.byte	0x53
 6411 197d 01       		.uleb128 0x1
 6412 197e 30       		.byte	0x30
 6413 197f 00       		.byte	0
 6414 1980 1C       		.uleb128 0x1c
 6415 1981 3A000000 		.4byte	.LVL167
 6416 1985 8E010000 		.4byte	0x18e
 6417 1989 9F190000 		.4byte	0x199f
 6418 198d 1D       		.uleb128 0x1d
 6419 198e 01       		.uleb128 0x1
 6420 198f 50       		.byte	0x50
 6421 1990 02       		.uleb128 0x2
 6422 1991 74       		.byte	0x74
 6423 1992 00       		.sleb128 0
 6424 1993 1D       		.uleb128 0x1d
 6425 1994 01       		.uleb128 0x1
 6426 1995 52       		.byte	0x52
 6427 1996 02       		.uleb128 0x2
 6428 1997 09       		.byte	0x9
 6429 1998 FF       		.byte	0xff
ARM GAS  C:\Users\hejmi\AppData\Local\Temp\ccFM6jcL.s 			page 128


 6430 1999 1D       		.uleb128 0x1d
 6431 199a 01       		.uleb128 0x1
 6432 199b 53       		.byte	0x53
 6433 199c 01       		.uleb128 0x1
 6434 199d 36       		.byte	0x36
 6435 199e 00       		.byte	0
 6436 199f 1C       		.uleb128 0x1c
 6437 19a0 48000000 		.4byte	.LVL168
 6438 19a4 37010000 		.4byte	0x137
 6439 19a8 BF190000 		.4byte	0x19bf
 6440 19ac 1D       		.uleb128 0x1d
 6441 19ad 01       		.uleb128 0x1
 6442 19ae 50       		.byte	0x50
 6443 19af 02       		.uleb128 0x2
 6444 19b0 74       		.byte	0x74
 6445 19b1 00       		.sleb128 0
 6446 19b2 1D       		.uleb128 0x1d
 6447 19b3 01       		.uleb128 0x1
 6448 19b4 52       		.byte	0x52
 6449 19b5 02       		.uleb128 0x2
 6450 19b6 09       		.byte	0x9
 6451 19b7 83       		.byte	0x83
 6452 19b8 1D       		.uleb128 0x1d
 6453 19b9 01       		.uleb128 0x1
 6454 19ba 53       		.byte	0x53
 6455 19bb 02       		.uleb128 0x2
 6456 19bc 91       		.byte	0x91
 6457 19bd 67       		.sleb128 -25
 6458 19be 00       		.byte	0
 6459 19bf 1C       		.uleb128 0x1c
 6460 19c0 5A000000 		.4byte	.LVL169
 6461 19c4 8E010000 		.4byte	0x18e
 6462 19c8 D9190000 		.4byte	0x19d9
 6463 19cc 1D       		.uleb128 0x1d
 6464 19cd 01       		.uleb128 0x1
 6465 19ce 50       		.byte	0x50
 6466 19cf 02       		.uleb128 0x2
 6467 19d0 74       		.byte	0x74
 6468 19d1 00       		.sleb128 0
 6469 19d2 1D       		.uleb128 0x1d
 6470 19d3 01       		.uleb128 0x1
 6471 19d4 52       		.byte	0x52
 6472 19d5 02       		.uleb128 0x2
 6473 19d6 09       		.byte	0x9
 6474 19d7 83       		.byte	0x83
 6475 19d8 00       		.byte	0
 6476 19d9 1C       		.uleb128 0x1c
 6477 19da 66000000 		.4byte	.LVL170
 6478 19de 8E010000 		.4byte	0x18e
 6479 19e2 F8190000 		.4byte	0x19f8
 6480 19e6 1D       		.uleb128 0x1d
 6481 19e7 01       		.uleb128 0x1
 6482 19e8 50       		.byte	0x50
 6483 19e9 02       		.uleb128 0x2
 6484 19ea 74       		.byte	0x74
 6485 19eb 00       		.sleb128 0
 6486 19ec 1D       		.uleb128 0x1d
ARM GAS  C:\Users\hejmi\AppData\Local\Temp\ccFM6jcL.s 			page 129


 6487 19ed 01       		.uleb128 0x1
 6488 19ee 52       		.byte	0x52
 6489 19ef 02       		.uleb128 0x2
 6490 19f0 09       		.byte	0x9
 6491 19f1 FF       		.byte	0xff
 6492 19f2 1D       		.uleb128 0x1d
 6493 19f3 01       		.uleb128 0x1
 6494 19f4 53       		.byte	0x53
 6495 19f5 01       		.uleb128 0x1
 6496 19f6 37       		.byte	0x37
 6497 19f7 00       		.byte	0
 6498 19f8 1C       		.uleb128 0x1c
 6499 19f9 72000000 		.4byte	.LVL171
 6500 19fd 8E010000 		.4byte	0x18e
 6501 1a01 171A0000 		.4byte	0x1a17
 6502 1a05 1D       		.uleb128 0x1d
 6503 1a06 01       		.uleb128 0x1
 6504 1a07 50       		.byte	0x50
 6505 1a08 02       		.uleb128 0x2
 6506 1a09 74       		.byte	0x74
 6507 1a0a 00       		.sleb128 0
 6508 1a0b 1D       		.uleb128 0x1d
 6509 1a0c 01       		.uleb128 0x1
 6510 1a0d 52       		.byte	0x52
 6511 1a0e 02       		.uleb128 0x2
 6512 1a0f 09       		.byte	0x9
 6513 1a10 81       		.byte	0x81
 6514 1a11 1D       		.uleb128 0x1d
 6515 1a12 01       		.uleb128 0x1
 6516 1a13 53       		.byte	0x53
 6517 1a14 01       		.uleb128 0x1
 6518 1a15 31       		.byte	0x31
 6519 1a16 00       		.byte	0
 6520 1a17 1C       		.uleb128 0x1c
 6521 1a18 7E000000 		.4byte	.LVL172
 6522 1a1c 8E010000 		.4byte	0x18e
 6523 1a20 361A0000 		.4byte	0x1a36
 6524 1a24 1D       		.uleb128 0x1d
 6525 1a25 01       		.uleb128 0x1
 6526 1a26 50       		.byte	0x50
 6527 1a27 02       		.uleb128 0x2
 6528 1a28 74       		.byte	0x74
 6529 1a29 00       		.sleb128 0
 6530 1a2a 1D       		.uleb128 0x1d
 6531 1a2b 01       		.uleb128 0x1
 6532 1a2c 52       		.byte	0x52
 6533 1a2d 02       		.uleb128 0x2
 6534 1a2e 09       		.byte	0x9
 6535 1a2f 80       		.byte	0x80
 6536 1a30 1D       		.uleb128 0x1d
 6537 1a31 01       		.uleb128 0x1
 6538 1a32 53       		.byte	0x53
 6539 1a33 01       		.uleb128 0x1
 6540 1a34 31       		.byte	0x31
 6541 1a35 00       		.byte	0
 6542 1a36 1C       		.uleb128 0x1c
 6543 1a37 8A000000 		.4byte	.LVL173
ARM GAS  C:\Users\hejmi\AppData\Local\Temp\ccFM6jcL.s 			page 130


 6544 1a3b 8E010000 		.4byte	0x18e
 6545 1a3f 561A0000 		.4byte	0x1a56
 6546 1a43 1D       		.uleb128 0x1d
 6547 1a44 01       		.uleb128 0x1
 6548 1a45 50       		.byte	0x50
 6549 1a46 02       		.uleb128 0x2
 6550 1a47 74       		.byte	0x74
 6551 1a48 00       		.sleb128 0
 6552 1a49 1D       		.uleb128 0x1d
 6553 1a4a 01       		.uleb128 0x1
 6554 1a4b 52       		.byte	0x52
 6555 1a4c 02       		.uleb128 0x2
 6556 1a4d 09       		.byte	0x9
 6557 1a4e 94       		.byte	0x94
 6558 1a4f 1D       		.uleb128 0x1d
 6559 1a50 01       		.uleb128 0x1
 6560 1a51 53       		.byte	0x53
 6561 1a52 02       		.uleb128 0x2
 6562 1a53 08       		.byte	0x8
 6563 1a54 6B       		.byte	0x6b
 6564 1a55 00       		.byte	0
 6565 1a56 1C       		.uleb128 0x1c
 6566 1a57 96000000 		.4byte	.LVL174
 6567 1a5b 8E010000 		.4byte	0x18e
 6568 1a5f 751A0000 		.4byte	0x1a75
 6569 1a63 1D       		.uleb128 0x1d
 6570 1a64 01       		.uleb128 0x1
 6571 1a65 50       		.byte	0x50
 6572 1a66 02       		.uleb128 0x2
 6573 1a67 74       		.byte	0x74
 6574 1a68 00       		.sleb128 0
 6575 1a69 1D       		.uleb128 0x1d
 6576 1a6a 01       		.uleb128 0x1
 6577 1a6b 52       		.byte	0x52
 6578 1a6c 02       		.uleb128 0x2
 6579 1a6d 09       		.byte	0x9
 6580 1a6e 83       		.byte	0x83
 6581 1a6f 1D       		.uleb128 0x1d
 6582 1a70 01       		.uleb128 0x1
 6583 1a71 53       		.byte	0x53
 6584 1a72 01       		.uleb128 0x1
 6585 1a73 30       		.byte	0x30
 6586 1a74 00       		.byte	0
 6587 1a75 1C       		.uleb128 0x1c
 6588 1a76 B0000000 		.4byte	.LVL175
 6589 1a7a 37010000 		.4byte	0x137
 6590 1a7e 951A0000 		.4byte	0x1a95
 6591 1a82 1D       		.uleb128 0x1d
 6592 1a83 01       		.uleb128 0x1
 6593 1a84 50       		.byte	0x50
 6594 1a85 02       		.uleb128 0x2
 6595 1a86 74       		.byte	0x74
 6596 1a87 00       		.sleb128 0
 6597 1a88 1D       		.uleb128 0x1d
 6598 1a89 01       		.uleb128 0x1
 6599 1a8a 52       		.byte	0x52
 6600 1a8b 02       		.uleb128 0x2
ARM GAS  C:\Users\hejmi\AppData\Local\Temp\ccFM6jcL.s 			page 131


 6601 1a8c 09       		.byte	0x9
 6602 1a8d 83       		.byte	0x83
 6603 1a8e 1D       		.uleb128 0x1d
 6604 1a8f 01       		.uleb128 0x1
 6605 1a90 53       		.byte	0x53
 6606 1a91 02       		.uleb128 0x2
 6607 1a92 91       		.byte	0x91
 6608 1a93 67       		.sleb128 -25
 6609 1a94 00       		.byte	0
 6610 1a95 1C       		.uleb128 0x1c
 6611 1a96 BE000000 		.4byte	.LVL176
 6612 1a9a 8E010000 		.4byte	0x18e
 6613 1a9e B41A0000 		.4byte	0x1ab4
 6614 1aa2 1D       		.uleb128 0x1d
 6615 1aa3 01       		.uleb128 0x1
 6616 1aa4 50       		.byte	0x50
 6617 1aa5 02       		.uleb128 0x2
 6618 1aa6 74       		.byte	0x74
 6619 1aa7 00       		.sleb128 0
 6620 1aa8 1D       		.uleb128 0x1d
 6621 1aa9 01       		.uleb128 0x1
 6622 1aaa 52       		.byte	0x52
 6623 1aab 02       		.uleb128 0x2
 6624 1aac 09       		.byte	0x9
 6625 1aad 83       		.byte	0x83
 6626 1aae 1D       		.uleb128 0x1d
 6627 1aaf 01       		.uleb128 0x1
 6628 1ab0 53       		.byte	0x53
 6629 1ab1 01       		.uleb128 0x1
 6630 1ab2 31       		.byte	0x31
 6631 1ab3 00       		.byte	0
 6632 1ab4 1C       		.uleb128 0x1c
 6633 1ab5 CC000000 		.4byte	.LVL177
 6634 1ab9 37010000 		.4byte	0x137
 6635 1abd D41A0000 		.4byte	0x1ad4
 6636 1ac1 1D       		.uleb128 0x1d
 6637 1ac2 01       		.uleb128 0x1
 6638 1ac3 50       		.byte	0x50
 6639 1ac4 02       		.uleb128 0x2
 6640 1ac5 74       		.byte	0x74
 6641 1ac6 00       		.sleb128 0
 6642 1ac7 1D       		.uleb128 0x1d
 6643 1ac8 01       		.uleb128 0x1
 6644 1ac9 52       		.byte	0x52
 6645 1aca 02       		.uleb128 0x2
 6646 1acb 09       		.byte	0x9
 6647 1acc 92       		.byte	0x92
 6648 1acd 1D       		.uleb128 0x1d
 6649 1ace 01       		.uleb128 0x1
 6650 1acf 53       		.byte	0x53
 6651 1ad0 02       		.uleb128 0x2
 6652 1ad1 91       		.byte	0x91
 6653 1ad2 67       		.sleb128 -25
 6654 1ad3 00       		.byte	0
 6655 1ad4 1C       		.uleb128 0x1c
 6656 1ad5 E6000000 		.4byte	.LVL178
 6657 1ad9 8E010000 		.4byte	0x18e
ARM GAS  C:\Users\hejmi\AppData\Local\Temp\ccFM6jcL.s 			page 132


 6658 1add F31A0000 		.4byte	0x1af3
 6659 1ae1 1D       		.uleb128 0x1d
 6660 1ae2 01       		.uleb128 0x1
 6661 1ae3 50       		.byte	0x50
 6662 1ae4 02       		.uleb128 0x2
 6663 1ae5 74       		.byte	0x74
 6664 1ae6 00       		.sleb128 0
 6665 1ae7 1D       		.uleb128 0x1d
 6666 1ae8 01       		.uleb128 0x1
 6667 1ae9 52       		.byte	0x52
 6668 1aea 02       		.uleb128 0x2
 6669 1aeb 09       		.byte	0x9
 6670 1aec 81       		.byte	0x81
 6671 1aed 1D       		.uleb128 0x1d
 6672 1aee 01       		.uleb128 0x1
 6673 1aef 53       		.byte	0x53
 6674 1af0 01       		.uleb128 0x1
 6675 1af1 30       		.byte	0x30
 6676 1af2 00       		.byte	0
 6677 1af3 1C       		.uleb128 0x1c
 6678 1af4 F2000000 		.4byte	.LVL179
 6679 1af8 8E010000 		.4byte	0x18e
 6680 1afc 121B0000 		.4byte	0x1b12
 6681 1b00 1D       		.uleb128 0x1d
 6682 1b01 01       		.uleb128 0x1
 6683 1b02 50       		.byte	0x50
 6684 1b03 02       		.uleb128 0x2
 6685 1b04 74       		.byte	0x74
 6686 1b05 00       		.sleb128 0
 6687 1b06 1D       		.uleb128 0x1d
 6688 1b07 01       		.uleb128 0x1
 6689 1b08 52       		.byte	0x52
 6690 1b09 02       		.uleb128 0x2
 6691 1b0a 09       		.byte	0x9
 6692 1b0b FF       		.byte	0xff
 6693 1b0c 1D       		.uleb128 0x1d
 6694 1b0d 01       		.uleb128 0x1
 6695 1b0e 53       		.byte	0x53
 6696 1b0f 01       		.uleb128 0x1
 6697 1b10 36       		.byte	0x36
 6698 1b11 00       		.byte	0
 6699 1b12 1C       		.uleb128 0x1c
 6700 1b13 00010000 		.4byte	.LVL180
 6701 1b17 37010000 		.4byte	0x137
 6702 1b1b 321B0000 		.4byte	0x1b32
 6703 1b1f 1D       		.uleb128 0x1d
 6704 1b20 01       		.uleb128 0x1
 6705 1b21 50       		.byte	0x50
 6706 1b22 02       		.uleb128 0x2
 6707 1b23 74       		.byte	0x74
 6708 1b24 00       		.sleb128 0
 6709 1b25 1D       		.uleb128 0x1d
 6710 1b26 01       		.uleb128 0x1
 6711 1b27 52       		.byte	0x52
 6712 1b28 02       		.uleb128 0x2
 6713 1b29 09       		.byte	0x9
 6714 1b2a 83       		.byte	0x83
ARM GAS  C:\Users\hejmi\AppData\Local\Temp\ccFM6jcL.s 			page 133


 6715 1b2b 1D       		.uleb128 0x1d
 6716 1b2c 01       		.uleb128 0x1
 6717 1b2d 53       		.byte	0x53
 6718 1b2e 02       		.uleb128 0x2
 6719 1b2f 91       		.byte	0x91
 6720 1b30 67       		.sleb128 -25
 6721 1b31 00       		.byte	0
 6722 1b32 1C       		.uleb128 0x1c
 6723 1b33 12010000 		.4byte	.LVL181
 6724 1b37 8E010000 		.4byte	0x18e
 6725 1b3b 4C1B0000 		.4byte	0x1b4c
 6726 1b3f 1D       		.uleb128 0x1d
 6727 1b40 01       		.uleb128 0x1
 6728 1b41 50       		.byte	0x50
 6729 1b42 02       		.uleb128 0x2
 6730 1b43 74       		.byte	0x74
 6731 1b44 00       		.sleb128 0
 6732 1b45 1D       		.uleb128 0x1d
 6733 1b46 01       		.uleb128 0x1
 6734 1b47 52       		.byte	0x52
 6735 1b48 02       		.uleb128 0x2
 6736 1b49 09       		.byte	0x9
 6737 1b4a 83       		.byte	0x83
 6738 1b4b 00       		.byte	0
 6739 1b4c 1C       		.uleb128 0x1c
 6740 1b4d 1E010000 		.4byte	.LVL182
 6741 1b51 8E010000 		.4byte	0x18e
 6742 1b55 6B1B0000 		.4byte	0x1b6b
 6743 1b59 1D       		.uleb128 0x1d
 6744 1b5a 01       		.uleb128 0x1
 6745 1b5b 50       		.byte	0x50
 6746 1b5c 02       		.uleb128 0x2
 6747 1b5d 74       		.byte	0x74
 6748 1b5e 00       		.sleb128 0
 6749 1b5f 1D       		.uleb128 0x1d
 6750 1b60 01       		.uleb128 0x1
 6751 1b61 52       		.byte	0x52
 6752 1b62 02       		.uleb128 0x2
 6753 1b63 09       		.byte	0x9
 6754 1b64 FF       		.byte	0xff
 6755 1b65 1D       		.uleb128 0x1d
 6756 1b66 01       		.uleb128 0x1
 6757 1b67 53       		.byte	0x53
 6758 1b68 01       		.uleb128 0x1
 6759 1b69 31       		.byte	0x31
 6760 1b6a 00       		.byte	0
 6761 1b6b 1C       		.uleb128 0x1c
 6762 1b6c 2A010000 		.4byte	.LVL183
 6763 1b70 8E010000 		.4byte	0x18e
 6764 1b74 891B0000 		.4byte	0x1b89
 6765 1b78 1D       		.uleb128 0x1d
 6766 1b79 01       		.uleb128 0x1
 6767 1b7a 50       		.byte	0x50
 6768 1b7b 02       		.uleb128 0x2
 6769 1b7c 74       		.byte	0x74
 6770 1b7d 00       		.sleb128 0
 6771 1b7e 1D       		.uleb128 0x1d
ARM GAS  C:\Users\hejmi\AppData\Local\Temp\ccFM6jcL.s 			page 134


 6772 1b7f 01       		.uleb128 0x1
 6773 1b80 52       		.byte	0x52
 6774 1b81 01       		.uleb128 0x1
 6775 1b82 30       		.byte	0x30
 6776 1b83 1D       		.uleb128 0x1d
 6777 1b84 01       		.uleb128 0x1
 6778 1b85 53       		.byte	0x53
 6779 1b86 01       		.uleb128 0x1
 6780 1b87 31       		.byte	0x31
 6781 1b88 00       		.byte	0
 6782 1b89 1C       		.uleb128 0x1c
 6783 1b8a 36010000 		.4byte	.LVL184
 6784 1b8e 8E010000 		.4byte	0x18e
 6785 1b92 A81B0000 		.4byte	0x1ba8
 6786 1b96 1D       		.uleb128 0x1d
 6787 1b97 01       		.uleb128 0x1
 6788 1b98 50       		.byte	0x50
 6789 1b99 02       		.uleb128 0x2
 6790 1b9a 74       		.byte	0x74
 6791 1b9b 00       		.sleb128 0
 6792 1b9c 1D       		.uleb128 0x1d
 6793 1b9d 01       		.uleb128 0x1
 6794 1b9e 52       		.byte	0x52
 6795 1b9f 02       		.uleb128 0x2
 6796 1ba0 09       		.byte	0x9
 6797 1ba1 FF       		.byte	0xff
 6798 1ba2 1D       		.uleb128 0x1d
 6799 1ba3 01       		.uleb128 0x1
 6800 1ba4 53       		.byte	0x53
 6801 1ba5 01       		.uleb128 0x1
 6802 1ba6 30       		.byte	0x30
 6803 1ba7 00       		.byte	0
 6804 1ba8 1E       		.uleb128 0x1e
 6805 1ba9 42010000 		.4byte	.LVL185
 6806 1bad 8E010000 		.4byte	0x18e
 6807 1bb1 1D       		.uleb128 0x1d
 6808 1bb2 01       		.uleb128 0x1
 6809 1bb3 50       		.byte	0x50
 6810 1bb4 02       		.uleb128 0x2
 6811 1bb5 74       		.byte	0x74
 6812 1bb6 00       		.sleb128 0
 6813 1bb7 1D       		.uleb128 0x1d
 6814 1bb8 01       		.uleb128 0x1
 6815 1bb9 52       		.byte	0x52
 6816 1bba 02       		.uleb128 0x2
 6817 1bbb 09       		.byte	0x9
 6818 1bbc 80       		.byte	0x80
 6819 1bbd 1D       		.uleb128 0x1d
 6820 1bbe 01       		.uleb128 0x1
 6821 1bbf 53       		.byte	0x53
 6822 1bc0 01       		.uleb128 0x1
 6823 1bc1 30       		.byte	0x30
 6824 1bc2 00       		.byte	0
 6825 1bc3 00       		.byte	0
 6826 1bc4 22       		.uleb128 0x22
 6827 1bc5 9F050000 		.4byte	0x59f
 6828 1bc9 01       		.byte	0x1
ARM GAS  C:\Users\hejmi\AppData\Local\Temp\ccFM6jcL.s 			page 135


 6829 1bca 7A02     		.2byte	0x27a
 6830 1bcc 00000000 		.4byte	.LFB92
 6831 1bd0 28000000 		.4byte	.LFE92-.LFB92
 6832 1bd4 01       		.uleb128 0x1
 6833 1bd5 9C       		.byte	0x9c
 6834 1bd6 DE1B0000 		.4byte	0x1bde
 6835 1bda 1C1C0000 		.4byte	0x1c1c
 6836 1bde 17       		.uleb128 0x17
 6837 1bdf 2C070000 		.4byte	.LASF113
 6838 1be3 CE080000 		.4byte	0x8ce
 6839 1be7 13030000 		.4byte	.LLST21
 6840 1beb 23       		.uleb128 0x23
 6841 1bec E2010000 		.4byte	.LASF128
 6842 1bf0 01       		.byte	0x1
 6843 1bf1 7A02     		.2byte	0x27a
 6844 1bf3 A9000000 		.4byte	0xa9
 6845 1bf7 34030000 		.4byte	.LLST22
 6846 1bfb 23       		.uleb128 0x23
 6847 1bfc 9E060000 		.4byte	.LASF129
 6848 1c00 01       		.byte	0x1
 6849 1c01 7A02     		.2byte	0x27a
 6850 1c03 9E000000 		.4byte	0x9e
 6851 1c07 55030000 		.4byte	.LLST23
 6852 1c0b 29       		.uleb128 0x29
 6853 1c0c 41000000 		.4byte	.LASF130
 6854 1c10 01       		.byte	0x1
 6855 1c11 7C02     		.2byte	0x27c
 6856 1c13 BF000000 		.4byte	0xbf
 6857 1c17 76030000 		.4byte	.LLST24
 6858 1c1b 00       		.byte	0
 6859 1c1c 22       		.uleb128 0x22
 6860 1c1d 3A050000 		.4byte	0x53a
 6861 1c21 01       		.byte	0x1
 6862 1c22 6801     		.2byte	0x168
 6863 1c24 00000000 		.4byte	.LFB83
 6864 1c28 B0000000 		.4byte	.LFE83-.LFB83
 6865 1c2c 01       		.uleb128 0x1
 6866 1c2d 9C       		.byte	0x9c
 6867 1c2e 361C0000 		.4byte	0x1c36
 6868 1c32 961D0000 		.4byte	0x1d96
 6869 1c36 17       		.uleb128 0x17
 6870 1c37 2C070000 		.4byte	.LASF113
 6871 1c3b CE080000 		.4byte	0x8ce
 6872 1c3f 89030000 		.4byte	.LLST25
 6873 1c43 23       		.uleb128 0x23
 6874 1c44 AD070000 		.4byte	.LASF117
 6875 1c48 01       		.byte	0x1
 6876 1c49 6801     		.2byte	0x168
 6877 1c4b 05070000 		.4byte	0x705
 6878 1c4f A7030000 		.4byte	.LLST26
 6879 1c53 23       		.uleb128 0x23
 6880 1c54 F5000000 		.4byte	.LASF131
 6881 1c58 01       		.byte	0x1
 6882 1c59 6801     		.2byte	0x168
 6883 1c5b 10070000 		.4byte	0x710
 6884 1c5f C5030000 		.4byte	.LLST27
 6885 1c63 24       		.uleb128 0x24
ARM GAS  C:\Users\hejmi\AppData\Local\Temp\ccFM6jcL.s 			page 136


 6886 1c64 6D000000 		.4byte	.LASF121
 6887 1c68 01       		.byte	0x1
 6888 1c69 6A01     		.2byte	0x16a
 6889 1c6b 9E000000 		.4byte	0x9e
 6890 1c6f 02       		.uleb128 0x2
 6891 1c70 91       		.byte	0x91
 6892 1c71 67       		.sleb128 -25
 6893 1c72 29       		.uleb128 0x29
 6894 1c73 9A010000 		.4byte	.LASF132
 6895 1c77 01       		.byte	0x1
 6896 1c78 7301     		.2byte	0x173
 6897 1c7a A9000000 		.4byte	0xa9
 6898 1c7e E3030000 		.4byte	.LLST28
 6899 1c82 24       		.uleb128 0x24
 6900 1c83 A8030000 		.4byte	.LASF133
 6901 1c87 01       		.byte	0x1
 6902 1c88 7401     		.2byte	0x174
 6903 1c8a 6B0A0000 		.4byte	0xa6b
 6904 1c8e 02       		.uleb128 0x2
 6905 1c8f 91       		.byte	0x91
 6906 1c90 64       		.sleb128 -28
 6907 1c91 1C       		.uleb128 0x1c
 6908 1c92 10000000 		.4byte	.LVL194
 6909 1c96 140B0000 		.4byte	0xb14
 6910 1c9a AA1C0000 		.4byte	0x1caa
 6911 1c9e 1D       		.uleb128 0x1d
 6912 1c9f 01       		.uleb128 0x1
 6913 1ca0 50       		.byte	0x50
 6914 1ca1 02       		.uleb128 0x2
 6915 1ca2 75       		.byte	0x75
 6916 1ca3 00       		.sleb128 0
 6917 1ca4 1D       		.uleb128 0x1d
 6918 1ca5 01       		.uleb128 0x1
 6919 1ca6 51       		.byte	0x51
 6920 1ca7 01       		.uleb128 0x1
 6921 1ca8 30       		.byte	0x30
 6922 1ca9 00       		.byte	0
 6923 1caa 1C       		.uleb128 0x1c
 6924 1cab 24000000 		.4byte	.LVL195
 6925 1caf 09010000 		.4byte	0x109
 6926 1cb3 D01C0000 		.4byte	0x1cd0
 6927 1cb7 1D       		.uleb128 0x1d
 6928 1cb8 01       		.uleb128 0x1
 6929 1cb9 50       		.byte	0x50
 6930 1cba 02       		.uleb128 0x2
 6931 1cbb 75       		.byte	0x75
 6932 1cbc 00       		.sleb128 0
 6933 1cbd 1D       		.uleb128 0x1d
 6934 1cbe 01       		.uleb128 0x1
 6935 1cbf 52       		.byte	0x52
 6936 1cc0 02       		.uleb128 0x2
 6937 1cc1 08       		.byte	0x8
 6938 1cc2 46       		.byte	0x46
 6939 1cc3 1D       		.uleb128 0x1d
 6940 1cc4 01       		.uleb128 0x1
 6941 1cc5 53       		.byte	0x53
 6942 1cc6 01       		.uleb128 0x1
ARM GAS  C:\Users\hejmi\AppData\Local\Temp\ccFM6jcL.s 			page 137


 6943 1cc7 31       		.byte	0x31
 6944 1cc8 1D       		.uleb128 0x1d
 6945 1cc9 02       		.uleb128 0x2
 6946 1cca 7D       		.byte	0x7d
 6947 1ccb 00       		.sleb128 0
 6948 1ccc 02       		.uleb128 0x2
 6949 1ccd 91       		.byte	0x91
 6950 1cce 67       		.sleb128 -25
 6951 1ccf 00       		.byte	0
 6952 1cd0 1C       		.uleb128 0x1c
 6953 1cd1 34000000 		.4byte	.LVL196
 6954 1cd5 C41B0000 		.4byte	0x1bc4
 6955 1cd9 E41C0000 		.4byte	0x1ce4
 6956 1cdd 1D       		.uleb128 0x1d
 6957 1cde 01       		.uleb128 0x1
 6958 1cdf 50       		.byte	0x50
 6959 1ce0 02       		.uleb128 0x2
 6960 1ce1 75       		.byte	0x75
 6961 1ce2 00       		.sleb128 0
 6962 1ce3 00       		.byte	0
 6963 1ce4 1C       		.uleb128 0x1c
 6964 1ce5 46000000 		.4byte	.LVL198
 6965 1ce9 09010000 		.4byte	0x109
 6966 1ced 0A1D0000 		.4byte	0x1d0a
 6967 1cf1 1D       		.uleb128 0x1d
 6968 1cf2 01       		.uleb128 0x1
 6969 1cf3 50       		.byte	0x50
 6970 1cf4 02       		.uleb128 0x2
 6971 1cf5 75       		.byte	0x75
 6972 1cf6 00       		.sleb128 0
 6973 1cf7 1D       		.uleb128 0x1d
 6974 1cf8 01       		.uleb128 0x1
 6975 1cf9 52       		.byte	0x52
 6976 1cfa 02       		.uleb128 0x2
 6977 1cfb 08       		.byte	0x8
 6978 1cfc 51       		.byte	0x51
 6979 1cfd 1D       		.uleb128 0x1d
 6980 1cfe 01       		.uleb128 0x1
 6981 1cff 53       		.byte	0x53
 6982 1d00 01       		.uleb128 0x1
 6983 1d01 32       		.byte	0x32
 6984 1d02 1D       		.uleb128 0x1d
 6985 1d03 02       		.uleb128 0x2
 6986 1d04 7D       		.byte	0x7d
 6987 1d05 00       		.sleb128 0
 6988 1d06 02       		.uleb128 0x2
 6989 1d07 76       		.byte	0x76
 6990 1d08 00       		.sleb128 0
 6991 1d09 00       		.byte	0
 6992 1d0a 1C       		.uleb128 0x1c
 6993 1d0b 5A000000 		.4byte	.LVL200
 6994 1d0f DE0A0000 		.4byte	0xade
 6995 1d13 1E1D0000 		.4byte	0x1d1e
 6996 1d17 1D       		.uleb128 0x1d
 6997 1d18 01       		.uleb128 0x1
 6998 1d19 50       		.byte	0x50
 6999 1d1a 02       		.uleb128 0x2
ARM GAS  C:\Users\hejmi\AppData\Local\Temp\ccFM6jcL.s 			page 138


 7000 1d1b 75       		.byte	0x75
 7001 1d1c 00       		.sleb128 0
 7002 1d1d 00       		.byte	0
 7003 1d1e 1C       		.uleb128 0x1c
 7004 1d1f 66000000 		.4byte	.LVL201
 7005 1d23 C41B0000 		.4byte	0x1bc4
 7006 1d27 321D0000 		.4byte	0x1d32
 7007 1d2b 1D       		.uleb128 0x1d
 7008 1d2c 01       		.uleb128 0x1
 7009 1d2d 50       		.byte	0x50
 7010 1d2e 02       		.uleb128 0x2
 7011 1d2f 75       		.byte	0x75
 7012 1d30 00       		.sleb128 0
 7013 1d31 00       		.byte	0
 7014 1d32 1C       		.uleb128 0x1c
 7015 1d33 70000000 		.4byte	.LVL202
 7016 1d37 140B0000 		.4byte	0xb14
 7017 1d3b 4B1D0000 		.4byte	0x1d4b
 7018 1d3f 1D       		.uleb128 0x1d
 7019 1d40 01       		.uleb128 0x1
 7020 1d41 50       		.byte	0x50
 7021 1d42 02       		.uleb128 0x2
 7022 1d43 75       		.byte	0x75
 7023 1d44 00       		.sleb128 0
 7024 1d45 1D       		.uleb128 0x1d
 7025 1d46 01       		.uleb128 0x1
 7026 1d47 51       		.byte	0x51
 7027 1d48 01       		.uleb128 0x1
 7028 1d49 31       		.byte	0x31
 7029 1d4a 00       		.byte	0
 7030 1d4b 1C       		.uleb128 0x1c
 7031 1d4c 80000000 		.4byte	.LVL203
 7032 1d50 09010000 		.4byte	0x109
 7033 1d54 711D0000 		.4byte	0x1d71
 7034 1d58 1D       		.uleb128 0x1d
 7035 1d59 01       		.uleb128 0x1
 7036 1d5a 50       		.byte	0x50
 7037 1d5b 02       		.uleb128 0x2
 7038 1d5c 75       		.byte	0x75
 7039 1d5d 00       		.sleb128 0
 7040 1d5e 1D       		.uleb128 0x1d
 7041 1d5f 01       		.uleb128 0x1
 7042 1d60 52       		.byte	0x52
 7043 1d61 02       		.uleb128 0x2
 7044 1d62 08       		.byte	0x8
 7045 1d63 71       		.byte	0x71
 7046 1d64 1D       		.uleb128 0x1d
 7047 1d65 01       		.uleb128 0x1
 7048 1d66 53       		.byte	0x53
 7049 1d67 01       		.uleb128 0x1
 7050 1d68 32       		.byte	0x32
 7051 1d69 1D       		.uleb128 0x1d
 7052 1d6a 02       		.uleb128 0x2
 7053 1d6b 7D       		.byte	0x7d
 7054 1d6c 00       		.sleb128 0
 7055 1d6d 02       		.uleb128 0x2
 7056 1d6e 76       		.byte	0x76
ARM GAS  C:\Users\hejmi\AppData\Local\Temp\ccFM6jcL.s 			page 139


 7057 1d6f 00       		.sleb128 0
 7058 1d70 00       		.byte	0
 7059 1d71 1C       		.uleb128 0x1c
 7060 1d72 94000000 		.4byte	.LVL205
 7061 1d76 DE0A0000 		.4byte	0xade
 7062 1d7a 851D0000 		.4byte	0x1d85
 7063 1d7e 1D       		.uleb128 0x1d
 7064 1d7f 01       		.uleb128 0x1
 7065 1d80 50       		.byte	0x50
 7066 1d81 02       		.uleb128 0x2
 7067 1d82 75       		.byte	0x75
 7068 1d83 00       		.sleb128 0
 7069 1d84 00       		.byte	0
 7070 1d85 1E       		.uleb128 0x1e
 7071 1d86 AA000000 		.4byte	.LVL206
 7072 1d8a C41B0000 		.4byte	0x1bc4
 7073 1d8e 1D       		.uleb128 0x1d
 7074 1d8f 01       		.uleb128 0x1
 7075 1d90 50       		.byte	0x50
 7076 1d91 02       		.uleb128 0x2
 7077 1d92 75       		.byte	0x75
 7078 1d93 00       		.sleb128 0
 7079 1d94 00       		.byte	0
 7080 1d95 00       		.byte	0
 7081 1d96 22       		.uleb128 0x22
 7082 1d97 81050000 		.4byte	0x581
 7083 1d9b 01       		.byte	0x1
 7084 1d9c 2701     		.2byte	0x127
 7085 1d9e 00000000 		.4byte	.LFB81
 7086 1da2 6A000000 		.4byte	.LFE81-.LFB81
 7087 1da6 01       		.uleb128 0x1
 7088 1da7 9C       		.byte	0x9c
 7089 1da8 B01D0000 		.4byte	0x1db0
 7090 1dac 841E0000 		.4byte	0x1e84
 7091 1db0 17       		.uleb128 0x17
 7092 1db1 2C070000 		.4byte	.LASF113
 7093 1db5 CE080000 		.4byte	0x8ce
 7094 1db9 0D040000 		.4byte	.LLST29
 7095 1dbd 24       		.uleb128 0x24
 7096 1dbe AD070000 		.4byte	.LASF117
 7097 1dc2 01       		.byte	0x1
 7098 1dc3 2901     		.2byte	0x129
 7099 1dc5 6E020000 		.4byte	0x26e
 7100 1dc9 02       		.uleb128 0x2
 7101 1dca 91       		.byte	0x91
 7102 1dcb 70       		.sleb128 -16
 7103 1dcc 24       		.uleb128 0x24
 7104 1dcd F5000000 		.4byte	.LASF131
 7105 1dd1 01       		.byte	0x1
 7106 1dd2 2A01     		.2byte	0x12a
 7107 1dd4 BE020000 		.4byte	0x2be
 7108 1dd8 02       		.uleb128 0x2
 7109 1dd9 91       		.byte	0x91
 7110 1dda 58       		.sleb128 -40
 7111 1ddb 2A       		.uleb128 0x2a
 7112 1ddc 17000000 		.4byte	.LASF134
 7113 1de0 01       		.byte	0x1
ARM GAS  C:\Users\hejmi\AppData\Local\Temp\ccFM6jcL.s 			page 140


 7114 1de1 2C01     		.2byte	0x12c
 7115 1de3 841E0000 		.4byte	0x1e84
 7116 1de7 7607     		.2byte	0x776
 7117 1de9 2A       		.uleb128 0x2a
 7118 1dea C7000000 		.4byte	.LASF135
 7119 1dee 01       		.byte	0x1
 7120 1def 2D01     		.2byte	0x12d
 7121 1df1 841E0000 		.4byte	0x1e84
 7122 1df5 C003     		.2byte	0x3c0
 7123 1df7 2A       		.uleb128 0x2a
 7124 1df8 31010000 		.4byte	.LASF136
 7125 1dfc 01       		.byte	0x1
 7126 1dfd 2E01     		.2byte	0x12e
 7127 1dff 841E0000 		.4byte	0x1e84
 7128 1e03 9402     		.2byte	0x294
 7129 1e05 2A       		.uleb128 0x2a
 7130 1e06 E2060000 		.4byte	.LASF137
 7131 1e0a 01       		.byte	0x1
 7132 1e0b 2F01     		.2byte	0x12f
 7133 1e0d 841E0000 		.4byte	0x1e84
 7134 1e11 4E02     		.2byte	0x24e
 7135 1e13 2A       		.uleb128 0x2a
 7136 1e14 15080000 		.4byte	.LASF138
 7137 1e18 01       		.byte	0x1
 7138 1e19 3001     		.2byte	0x130
 7139 1e1b 841E0000 		.4byte	0x1e84
 7140 1e1f B202     		.2byte	0x2b2
 7141 1e21 2A       		.uleb128 0x2a
 7142 1e22 250A0000 		.4byte	.LASF139
 7143 1e26 01       		.byte	0x1
 7144 1e27 3101     		.2byte	0x131
 7145 1e29 841E0000 		.4byte	0x1e84
 7146 1e2d 9402     		.2byte	0x294
 7147 1e2f 2A       		.uleb128 0x2a
 7148 1e30 63040000 		.4byte	.LASF140
 7149 1e34 01       		.byte	0x1
 7150 1e35 3201     		.2byte	0x132
 7151 1e37 841E0000 		.4byte	0x1e84
 7152 1e3b 2602     		.2byte	0x226
 7153 1e3d 29       		.uleb128 0x29
 7154 1e3e 4D0B0000 		.4byte	.LASF141
 7155 1e42 01       		.byte	0x1
 7156 1e43 3501     		.2byte	0x135
 7157 1e45 BF000000 		.4byte	0xbf
 7158 1e49 2B040000 		.4byte	.LLST30
 7159 1e4d 1C       		.uleb128 0x1c
 7160 1e4e 0C000000 		.4byte	.LVL209
 7161 1e52 7B0A0000 		.4byte	0xa7b
 7162 1e56 671E0000 		.4byte	0x1e67
 7163 1e5a 1D       		.uleb128 0x1d
 7164 1e5b 01       		.uleb128 0x1
 7165 1e5c 50       		.byte	0x50
 7166 1e5d 02       		.uleb128 0x2
 7167 1e5e 74       		.byte	0x74
 7168 1e5f 00       		.sleb128 0
 7169 1e60 1D       		.uleb128 0x1d
 7170 1e61 01       		.uleb128 0x1
ARM GAS  C:\Users\hejmi\AppData\Local\Temp\ccFM6jcL.s 			page 141


 7171 1e62 51       		.byte	0x51
 7172 1e63 02       		.uleb128 0x2
 7173 1e64 91       		.byte	0x91
 7174 1e65 70       		.sleb128 -16
 7175 1e66 00       		.byte	0
 7176 1e67 1E       		.uleb128 0x1e
 7177 1e68 16000000 		.4byte	.LVL210
 7178 1e6c 1C1C0000 		.4byte	0x1c1c
 7179 1e70 1D       		.uleb128 0x1d
 7180 1e71 01       		.uleb128 0x1
 7181 1e72 50       		.byte	0x50
 7182 1e73 02       		.uleb128 0x2
 7183 1e74 74       		.byte	0x74
 7184 1e75 00       		.sleb128 0
 7185 1e76 1D       		.uleb128 0x1d
 7186 1e77 01       		.uleb128 0x1
 7187 1e78 51       		.byte	0x51
 7188 1e79 02       		.uleb128 0x2
 7189 1e7a 91       		.byte	0x91
 7190 1e7b 70       		.sleb128 -16
 7191 1e7c 1D       		.uleb128 0x1d
 7192 1e7d 01       		.uleb128 0x1
 7193 1e7e 52       		.byte	0x52
 7194 1e7f 02       		.uleb128 0x2
 7195 1e80 7D       		.byte	0x7d
 7196 1e81 00       		.sleb128 0
 7197 1e82 00       		.byte	0
 7198 1e83 00       		.byte	0
 7199 1e84 15       		.uleb128 0x15
 7200 1e85 A9000000 		.4byte	0xa9
 7201 1e89 22       		.uleb128 0x22
 7202 1e8a C7050000 		.4byte	0x5c7
 7203 1e8e 01       		.byte	0x1
 7204 1e8f 8202     		.2byte	0x282
 7205 1e91 00000000 		.4byte	.LFB93
 7206 1e95 2C000000 		.4byte	.LFE93-.LFB93
 7207 1e99 01       		.uleb128 0x1
 7208 1e9a 9C       		.byte	0x9c
 7209 1e9b A31E0000 		.4byte	0x1ea3
 7210 1e9f E11E0000 		.4byte	0x1ee1
 7211 1ea3 17       		.uleb128 0x17
 7212 1ea4 2C070000 		.4byte	.LASF113
 7213 1ea8 CE080000 		.4byte	0x8ce
 7214 1eac 86040000 		.4byte	.LLST31
 7215 1eb0 23       		.uleb128 0x23
 7216 1eb1 77030000 		.4byte	.LASF142
 7217 1eb5 01       		.byte	0x1
 7218 1eb6 8202     		.2byte	0x282
 7219 1eb8 BF000000 		.4byte	0xbf
 7220 1ebc A7040000 		.4byte	.LLST32
 7221 1ec0 23       		.uleb128 0x23
 7222 1ec1 9E060000 		.4byte	.LASF129
 7223 1ec5 01       		.byte	0x1
 7224 1ec6 8202     		.2byte	0x282
 7225 1ec8 9E000000 		.4byte	0x9e
 7226 1ecc C8040000 		.4byte	.LLST33
 7227 1ed0 29       		.uleb128 0x29
ARM GAS  C:\Users\hejmi\AppData\Local\Temp\ccFM6jcL.s 			page 142


 7228 1ed1 41000000 		.4byte	.LASF130
 7229 1ed5 01       		.byte	0x1
 7230 1ed6 8402     		.2byte	0x284
 7231 1ed8 BF000000 		.4byte	0xbf
 7232 1edc E9040000 		.4byte	.LLST34
 7233 1ee0 00       		.byte	0
 7234 1ee1 22       		.uleb128 0x22
 7235 1ee2 DA060000 		.4byte	0x6da
 7236 1ee6 01       		.byte	0x1
 7237 1ee7 8A02     		.2byte	0x28a
 7238 1ee9 00000000 		.4byte	.LFB94
 7239 1eed 52000000 		.4byte	.LFE94-.LFB94
 7240 1ef1 01       		.uleb128 0x1
 7241 1ef2 9C       		.byte	0x9c
 7242 1ef3 FB1E0000 		.4byte	0x1efb
 7243 1ef7 981F0000 		.4byte	0x1f98
 7244 1efb 17       		.uleb128 0x17
 7245 1efc 2C070000 		.4byte	.LASF113
 7246 1f00 CE080000 		.4byte	0x8ce
 7247 1f04 FC040000 		.4byte	.LLST35
 7248 1f08 23       		.uleb128 0x23
 7249 1f09 54020000 		.4byte	.LASF143
 7250 1f0d 01       		.byte	0x1
 7251 1f0e 8A02     		.2byte	0x28a
 7252 1f10 9E000000 		.4byte	0x9e
 7253 1f14 1A050000 		.4byte	.LLST36
 7254 1f18 26       		.uleb128 0x26
 7255 1f19 746D7000 		.ascii	"tmp\000"
 7256 1f1d 01       		.byte	0x1
 7257 1f1e 8F02     		.2byte	0x28f
 7258 1f20 9E000000 		.4byte	0x9e
 7259 1f24 02       		.uleb128 0x2
 7260 1f25 91       		.byte	0x91
 7261 1f26 6F       		.sleb128 -17
 7262 1f27 1C       		.uleb128 0x1c
 7263 1f28 14000000 		.4byte	.LVL229
 7264 1f2c 8E010000 		.4byte	0x18e
 7265 1f30 401F0000 		.4byte	0x1f40
 7266 1f34 1D       		.uleb128 0x1d
 7267 1f35 01       		.uleb128 0x1
 7268 1f36 50       		.byte	0x50
 7269 1f37 02       		.uleb128 0x2
 7270 1f38 74       		.byte	0x74
 7271 1f39 00       		.sleb128 0
 7272 1f3a 1D       		.uleb128 0x1d
 7273 1f3b 01       		.uleb128 0x1
 7274 1f3c 52       		.byte	0x52
 7275 1f3d 01       		.uleb128 0x1
 7276 1f3e 30       		.byte	0x30
 7277 1f3f 00       		.byte	0
 7278 1f40 1C       		.uleb128 0x1c
 7279 1f41 32000000 		.4byte	.LVL230
 7280 1f45 37010000 		.4byte	0x137
 7281 1f49 5F1F0000 		.4byte	0x1f5f
 7282 1f4d 1D       		.uleb128 0x1d
 7283 1f4e 01       		.uleb128 0x1
 7284 1f4f 50       		.byte	0x50
ARM GAS  C:\Users\hejmi\AppData\Local\Temp\ccFM6jcL.s 			page 143


 7285 1f50 02       		.uleb128 0x2
 7286 1f51 74       		.byte	0x74
 7287 1f52 00       		.sleb128 0
 7288 1f53 1D       		.uleb128 0x1d
 7289 1f54 01       		.uleb128 0x1
 7290 1f55 52       		.byte	0x52
 7291 1f56 01       		.uleb128 0x1
 7292 1f57 43       		.byte	0x43
 7293 1f58 1D       		.uleb128 0x1d
 7294 1f59 01       		.uleb128 0x1
 7295 1f5a 53       		.byte	0x53
 7296 1f5b 02       		.uleb128 0x2
 7297 1f5c 91       		.byte	0x91
 7298 1f5d 6F       		.sleb128 -17
 7299 1f5e 00       		.byte	0
 7300 1f5f 1C       		.uleb128 0x1c
 7301 1f60 40000000 		.4byte	.LVL231
 7302 1f64 8E010000 		.4byte	0x18e
 7303 1f68 7D1F0000 		.4byte	0x1f7d
 7304 1f6c 1D       		.uleb128 0x1d
 7305 1f6d 01       		.uleb128 0x1
 7306 1f6e 50       		.byte	0x50
 7307 1f6f 02       		.uleb128 0x2
 7308 1f70 74       		.byte	0x74
 7309 1f71 00       		.sleb128 0
 7310 1f72 1D       		.uleb128 0x1d
 7311 1f73 01       		.uleb128 0x1
 7312 1f74 52       		.byte	0x52
 7313 1f75 01       		.uleb128 0x1
 7314 1f76 3B       		.byte	0x3b
 7315 1f77 1D       		.uleb128 0x1d
 7316 1f78 01       		.uleb128 0x1
 7317 1f79 53       		.byte	0x53
 7318 1f7a 01       		.uleb128 0x1
 7319 1f7b 31       		.byte	0x31
 7320 1f7c 00       		.byte	0
 7321 1f7d 1E       		.uleb128 0x1e
 7322 1f7e 4C000000 		.4byte	.LVL232
 7323 1f82 8E010000 		.4byte	0x18e
 7324 1f86 1D       		.uleb128 0x1d
 7325 1f87 01       		.uleb128 0x1
 7326 1f88 50       		.byte	0x50
 7327 1f89 02       		.uleb128 0x2
 7328 1f8a 74       		.byte	0x74
 7329 1f8b 00       		.sleb128 0
 7330 1f8c 1D       		.uleb128 0x1d
 7331 1f8d 01       		.uleb128 0x1
 7332 1f8e 52       		.byte	0x52
 7333 1f8f 01       		.uleb128 0x1
 7334 1f90 30       		.byte	0x30
 7335 1f91 1D       		.uleb128 0x1d
 7336 1f92 01       		.uleb128 0x1
 7337 1f93 53       		.byte	0x53
 7338 1f94 01       		.uleb128 0x1
 7339 1f95 30       		.byte	0x30
 7340 1f96 00       		.byte	0
 7341 1f97 00       		.byte	0
ARM GAS  C:\Users\hejmi\AppData\Local\Temp\ccFM6jcL.s 			page 144


 7342 1f98 16       		.uleb128 0x16
 7343 1f99 80060000 		.4byte	0x680
 7344 1f9d 01       		.byte	0x1
 7345 1f9e 7B       		.byte	0x7b
 7346 1f9f 00000000 		.4byte	.LFB78
 7347 1fa3 42000000 		.4byte	.LFE78-.LFB78
 7348 1fa7 01       		.uleb128 0x1
 7349 1fa8 9C       		.byte	0x9c
 7350 1fa9 B11F0000 		.4byte	0x1fb1
 7351 1fad 49200000 		.4byte	0x2049
 7352 1fb1 17       		.uleb128 0x17
 7353 1fb2 2C070000 		.4byte	.LASF113
 7354 1fb6 CE080000 		.4byte	0x8ce
 7355 1fba 3B050000 		.4byte	.LLST37
 7356 1fbe 1C       		.uleb128 0x1c
 7357 1fbf 0E000000 		.4byte	.LVL234
 7358 1fc3 8E010000 		.4byte	0x18e
 7359 1fc7 DC1F0000 		.4byte	0x1fdc
 7360 1fcb 1D       		.uleb128 0x1d
 7361 1fcc 01       		.uleb128 0x1
 7362 1fcd 50       		.byte	0x50
 7363 1fce 02       		.uleb128 0x2
 7364 1fcf 74       		.byte	0x74
 7365 1fd0 00       		.sleb128 0
 7366 1fd1 1D       		.uleb128 0x1d
 7367 1fd2 01       		.uleb128 0x1
 7368 1fd3 52       		.byte	0x52
 7369 1fd4 01       		.uleb128 0x1
 7370 1fd5 31       		.byte	0x31
 7371 1fd6 1D       		.uleb128 0x1d
 7372 1fd7 01       		.uleb128 0x1
 7373 1fd8 53       		.byte	0x53
 7374 1fd9 01       		.uleb128 0x1
 7375 1fda 31       		.byte	0x31
 7376 1fdb 00       		.byte	0
 7377 1fdc 1C       		.uleb128 0x1c
 7378 1fdd 16000000 		.4byte	.LVL235
 7379 1fe1 E11E0000 		.4byte	0x1ee1
 7380 1fe5 F61F0000 		.4byte	0x1ff6
 7381 1fe9 1D       		.uleb128 0x1d
 7382 1fea 01       		.uleb128 0x1
 7383 1feb 50       		.byte	0x50
 7384 1fec 02       		.uleb128 0x2
 7385 1fed 74       		.byte	0x74
 7386 1fee 00       		.sleb128 0
 7387 1fef 1D       		.uleb128 0x1d
 7388 1ff0 01       		.uleb128 0x1
 7389 1ff1 51       		.byte	0x51
 7390 1ff2 02       		.uleb128 0x2
 7391 1ff3 08       		.byte	0x8
 7392 1ff4 40       		.byte	0x40
 7393 1ff5 00       		.byte	0
 7394 1ff6 1C       		.uleb128 0x1c
 7395 1ff7 26000000 		.4byte	.LVL236
 7396 1ffb 8E010000 		.4byte	0x18e
 7397 1fff 14200000 		.4byte	0x2014
 7398 2003 1D       		.uleb128 0x1d
ARM GAS  C:\Users\hejmi\AppData\Local\Temp\ccFM6jcL.s 			page 145


 7399 2004 01       		.uleb128 0x1
 7400 2005 50       		.byte	0x50
 7401 2006 02       		.uleb128 0x2
 7402 2007 74       		.byte	0x74
 7403 2008 00       		.sleb128 0
 7404 2009 1D       		.uleb128 0x1d
 7405 200a 01       		.uleb128 0x1
 7406 200b 52       		.byte	0x52
 7407 200c 01       		.uleb128 0x1
 7408 200d 31       		.byte	0x31
 7409 200e 1D       		.uleb128 0x1d
 7410 200f 01       		.uleb128 0x1
 7411 2010 53       		.byte	0x53
 7412 2011 01       		.uleb128 0x1
 7413 2012 32       		.byte	0x32
 7414 2013 00       		.byte	0
 7415 2014 1C       		.uleb128 0x1c
 7416 2015 2E000000 		.4byte	.LVL237
 7417 2019 E11E0000 		.4byte	0x1ee1
 7418 201d 2D200000 		.4byte	0x202d
 7419 2021 1D       		.uleb128 0x1d
 7420 2022 01       		.uleb128 0x1
 7421 2023 50       		.byte	0x50
 7422 2024 02       		.uleb128 0x2
 7423 2025 74       		.byte	0x74
 7424 2026 00       		.sleb128 0
 7425 2027 1D       		.uleb128 0x1d
 7426 2028 01       		.uleb128 0x1
 7427 2029 51       		.byte	0x51
 7428 202a 01       		.uleb128 0x1
 7429 202b 30       		.byte	0x30
 7430 202c 00       		.byte	0
 7431 202d 1E       		.uleb128 0x1e
 7432 202e 3E000000 		.4byte	.LVL238
 7433 2032 8E010000 		.4byte	0x18e
 7434 2036 1D       		.uleb128 0x1d
 7435 2037 01       		.uleb128 0x1
 7436 2038 50       		.byte	0x50
 7437 2039 02       		.uleb128 0x2
 7438 203a 74       		.byte	0x74
 7439 203b 00       		.sleb128 0
 7440 203c 1D       		.uleb128 0x1d
 7441 203d 01       		.uleb128 0x1
 7442 203e 52       		.byte	0x52
 7443 203f 01       		.uleb128 0x1
 7444 2040 31       		.byte	0x31
 7445 2041 1D       		.uleb128 0x1d
 7446 2042 01       		.uleb128 0x1
 7447 2043 53       		.byte	0x53
 7448 2044 02       		.uleb128 0x2
 7449 2045 09       		.byte	0x9
 7450 2046 E8       		.byte	0xe8
 7451 2047 00       		.byte	0
 7452 2048 00       		.byte	0
 7453 2049 22       		.uleb128 0x22
 7454 204a 9E060000 		.4byte	0x69e
 7455 204e 01       		.byte	0x1
ARM GAS  C:\Users\hejmi\AppData\Local\Temp\ccFM6jcL.s 			page 146


 7456 204f A102     		.2byte	0x2a1
 7457 2051 00000000 		.4byte	.LFB95
 7458 2055 22000000 		.4byte	.LFE95-.LFB95
 7459 2059 01       		.uleb128 0x1
 7460 205a 9C       		.byte	0x9c
 7461 205b 63200000 		.4byte	0x2063
 7462 205f A1200000 		.4byte	0x20a1
 7463 2063 17       		.uleb128 0x17
 7464 2064 2C070000 		.4byte	.LASF113
 7465 2068 CE080000 		.4byte	0x8ce
 7466 206c 59050000 		.4byte	.LLST38
 7467 2070 23       		.uleb128 0x23
 7468 2071 D4010000 		.4byte	.LASF144
 7469 2075 01       		.byte	0x1
 7470 2076 A102     		.2byte	0x2a1
 7471 2078 A9000000 		.4byte	0xa9
 7472 207c 93050000 		.4byte	.LLST39
 7473 2080 29       		.uleb128 0x29
 7474 2081 61070000 		.4byte	.LASF145
 7475 2085 01       		.byte	0x1
 7476 2086 A502     		.2byte	0x2a5
 7477 2088 BF000000 		.4byte	0xbf
 7478 208c BF050000 		.4byte	.LLST40
 7479 2090 29       		.uleb128 0x29
 7480 2091 0F000000 		.4byte	.LASF146
 7481 2095 01       		.byte	0x1
 7482 2096 A602     		.2byte	0x2a6
 7483 2098 A9000000 		.4byte	0xa9
 7484 209c EA050000 		.4byte	.LLST41
 7485 20a0 00       		.byte	0
 7486 20a1 16       		.uleb128 0x16
 7487 20a2 5D060000 		.4byte	0x65d
 7488 20a6 01       		.byte	0x1
 7489 20a7 CB       		.byte	0xcb
 7490 20a8 00000000 		.4byte	.LFB80
 7491 20ac BA000000 		.4byte	.LFE80-.LFB80
 7492 20b0 01       		.uleb128 0x1
 7493 20b1 9C       		.byte	0x9c
 7494 20b2 BA200000 		.4byte	0x20ba
 7495 20b6 37220000 		.4byte	0x2237
 7496 20ba 17       		.uleb128 0x17
 7497 20bb 2C070000 		.4byte	.LASF113
 7498 20bf CE080000 		.4byte	0x8ce
 7499 20c3 20060000 		.4byte	.LLST42
 7500 20c7 18       		.uleb128 0x18
 7501 20c8 4D0B0000 		.4byte	.LASF141
 7502 20cc 01       		.byte	0x1
 7503 20cd CB       		.byte	0xcb
 7504 20ce BF000000 		.4byte	0xbf
 7505 20d2 62060000 		.4byte	.LLST43
 7506 20d6 1A       		.uleb128 0x1a
 7507 20d7 AD070000 		.4byte	.LASF117
 7508 20db 01       		.byte	0x1
 7509 20dc CD       		.byte	0xcd
 7510 20dd 6E020000 		.4byte	0x26e
 7511 20e1 02       		.uleb128 0x2
 7512 20e2 91       		.byte	0x91
ARM GAS  C:\Users\hejmi\AppData\Local\Temp\ccFM6jcL.s 			page 147


 7513 20e3 60       		.sleb128 -32
 7514 20e4 1A       		.uleb128 0x1a
 7515 20e5 F5000000 		.4byte	.LASF131
 7516 20e9 01       		.byte	0x1
 7517 20ea CE       		.byte	0xce
 7518 20eb BE020000 		.4byte	0x2be
 7519 20ef 02       		.uleb128 0x2
 7520 20f0 91       		.byte	0x91
 7521 20f1 48       		.sleb128 -56
 7522 20f2 2B       		.uleb128 0x2b
 7523 20f3 17000000 		.4byte	.LASF134
 7524 20f7 01       		.byte	0x1
 7525 20f8 D0       		.byte	0xd0
 7526 20f9 841E0000 		.4byte	0x1e84
 7527 20fd 2805     		.2byte	0x528
 7528 20ff 2B       		.uleb128 0x2b
 7529 2100 C7000000 		.4byte	.LASF135
 7530 2104 01       		.byte	0x1
 7531 2105 D1       		.byte	0xd1
 7532 2106 841E0000 		.4byte	0x1e84
 7533 210a C003     		.2byte	0x3c0
 7534 210c 2B       		.uleb128 0x2b
 7535 210d 31010000 		.4byte	.LASF136
 7536 2111 01       		.byte	0x1
 7537 2112 D2       		.byte	0xd2
 7538 2113 841E0000 		.4byte	0x1e84
 7539 2117 9402     		.2byte	0x294
 7540 2119 2B       		.uleb128 0x2b
 7541 211a E2060000 		.4byte	.LASF137
 7542 211e 01       		.byte	0x1
 7543 211f D3       		.byte	0xd3
 7544 2120 841E0000 		.4byte	0x1e84
 7545 2124 4E02     		.2byte	0x24e
 7546 2126 2B       		.uleb128 0x2b
 7547 2127 15080000 		.4byte	.LASF138
 7548 212b 01       		.byte	0x1
 7549 212c D4       		.byte	0xd4
 7550 212d 841E0000 		.4byte	0x1e84
 7551 2131 B202     		.2byte	0x2b2
 7552 2133 2B       		.uleb128 0x2b
 7553 2134 250A0000 		.4byte	.LASF139
 7554 2138 01       		.byte	0x1
 7555 2139 D5       		.byte	0xd5
 7556 213a 841E0000 		.4byte	0x1e84
 7557 213e 9402     		.2byte	0x294
 7558 2140 2B       		.uleb128 0x2b
 7559 2141 63040000 		.4byte	.LASF140
 7560 2145 01       		.byte	0x1
 7561 2146 D6       		.byte	0xd6
 7562 2147 841E0000 		.4byte	0x1e84
 7563 214b 2602     		.2byte	0x226
 7564 214d 2B       		.uleb128 0x2b
 7565 214e A80B0000 		.4byte	.LASF147
 7566 2152 01       		.byte	0x1
 7567 2153 D8       		.byte	0xd8
 7568 2154 37220000 		.4byte	0x2237
 7569 2158 204E     		.2byte	0x4e20
ARM GAS  C:\Users\hejmi\AppData\Local\Temp\ccFM6jcL.s 			page 148


 7570 215a 1B       		.uleb128 0x1b
 7571 215b EE040000 		.4byte	.LASF148
 7572 215f 01       		.byte	0x1
 7573 2160 DC       		.byte	0xdc
 7574 2161 BF000000 		.4byte	0xbf
 7575 2165 A4060000 		.4byte	.LLST44
 7576 2169 19       		.uleb128 0x19
 7577 216a 66000000 		.4byte	.LBB7
 7578 216e 46000000 		.4byte	.LBE7-.LBB7
 7579 2172 00220000 		.4byte	0x2200
 7580 2176 29       		.uleb128 0x29
 7581 2177 CD0A0000 		.4byte	.LASF149
 7582 217b 01       		.byte	0x1
 7583 217c 0401     		.2byte	0x104
 7584 217e BF000000 		.4byte	0xbf
 7585 2182 18070000 		.4byte	.LLST45
 7586 2186 29       		.uleb128 0x29
 7587 2187 82080000 		.4byte	.LASF150
 7588 218b 01       		.byte	0x1
 7589 218c 0E01     		.2byte	0x10e
 7590 218e A9000000 		.4byte	0xa9
 7591 2192 3B070000 		.4byte	.LLST46
 7592 2196 24       		.uleb128 0x24
 7593 2197 FF090000 		.4byte	.LASF123
 7594 219b 01       		.byte	0x1
 7595 219c 1701     		.2byte	0x117
 7596 219e 6B0A0000 		.4byte	0xa6b
 7597 21a2 02       		.uleb128 0x2
 7598 21a3 91       		.byte	0x91
 7599 21a4 44       		.sleb128 -60
 7600 21a5 28       		.uleb128 0x28
 7601 21a6 746D7000 		.ascii	"tmp\000"
 7602 21aa 01       		.byte	0x1
 7603 21ab 1801     		.2byte	0x118
 7604 21ad A9000000 		.4byte	0xa9
 7605 21b1 59070000 		.4byte	.LLST47
 7606 21b5 1C       		.uleb128 0x1c
 7607 21b6 7E000000 		.4byte	.LVL266
 7608 21ba 891E0000 		.4byte	0x1e89
 7609 21be C9210000 		.4byte	0x21c9
 7610 21c2 1D       		.uleb128 0x1d
 7611 21c3 01       		.uleb128 0x1
 7612 21c4 50       		.byte	0x50
 7613 21c5 02       		.uleb128 0x2
 7614 21c6 74       		.byte	0x74
 7615 21c7 00       		.sleb128 0
 7616 21c8 00       		.byte	0
 7617 21c9 1C       		.uleb128 0x1c
 7618 21ca 90000000 		.4byte	.LVL270
 7619 21ce 49200000 		.4byte	0x2049
 7620 21d2 DD210000 		.4byte	0x21dd
 7621 21d6 1D       		.uleb128 0x1d
 7622 21d7 01       		.uleb128 0x1
 7623 21d8 50       		.byte	0x50
 7624 21d9 02       		.uleb128 0x2
 7625 21da 74       		.byte	0x74
 7626 21db 00       		.sleb128 0
ARM GAS  C:\Users\hejmi\AppData\Local\Temp\ccFM6jcL.s 			page 149


 7627 21dc 00       		.byte	0
 7628 21dd 1E       		.uleb128 0x1e
 7629 21de AA000000 		.4byte	.LVL272
 7630 21e2 60010000 		.4byte	0x160
 7631 21e6 1D       		.uleb128 0x1d
 7632 21e7 01       		.uleb128 0x1
 7633 21e8 50       		.byte	0x50
 7634 21e9 02       		.uleb128 0x2
 7635 21ea 74       		.byte	0x74
 7636 21eb 00       		.sleb128 0
 7637 21ec 1D       		.uleb128 0x1d
 7638 21ed 01       		.uleb128 0x1
 7639 21ee 52       		.byte	0x52
 7640 21ef 02       		.uleb128 0x2
 7641 21f0 08       		.byte	0x8
 7642 21f1 71       		.byte	0x71
 7643 21f2 1D       		.uleb128 0x1d
 7644 21f3 01       		.uleb128 0x1
 7645 21f4 53       		.byte	0x53
 7646 21f5 01       		.uleb128 0x1
 7647 21f6 32       		.byte	0x32
 7648 21f7 1D       		.uleb128 0x1d
 7649 21f8 02       		.uleb128 0x2
 7650 21f9 7D       		.byte	0x7d
 7651 21fa 00       		.sleb128 0
 7652 21fb 02       		.uleb128 0x2
 7653 21fc 91       		.byte	0x91
 7654 21fd 44       		.sleb128 -60
 7655 21fe 00       		.byte	0
 7656 21ff 00       		.byte	0
 7657 2200 1C       		.uleb128 0x1c
 7658 2201 16000000 		.4byte	.LVL253
 7659 2205 7B0A0000 		.4byte	0xa7b
 7660 2209 1A220000 		.4byte	0x221a
 7661 220d 1D       		.uleb128 0x1d
 7662 220e 01       		.uleb128 0x1
 7663 220f 50       		.byte	0x50
 7664 2210 02       		.uleb128 0x2
 7665 2211 74       		.byte	0x74
 7666 2212 00       		.sleb128 0
 7667 2213 1D       		.uleb128 0x1d
 7668 2214 01       		.uleb128 0x1
 7669 2215 51       		.byte	0x51
 7670 2216 02       		.uleb128 0x2
 7671 2217 91       		.byte	0x91
 7672 2218 60       		.sleb128 -32
 7673 2219 00       		.byte	0
 7674 221a 1E       		.uleb128 0x1e
 7675 221b 20000000 		.4byte	.LVL254
 7676 221f 1C1C0000 		.4byte	0x1c1c
 7677 2223 1D       		.uleb128 0x1d
 7678 2224 01       		.uleb128 0x1
 7679 2225 50       		.byte	0x50
 7680 2226 02       		.uleb128 0x2
 7681 2227 74       		.byte	0x74
 7682 2228 00       		.sleb128 0
 7683 2229 1D       		.uleb128 0x1d
ARM GAS  C:\Users\hejmi\AppData\Local\Temp\ccFM6jcL.s 			page 150


 7684 222a 01       		.uleb128 0x1
 7685 222b 51       		.byte	0x51
 7686 222c 02       		.uleb128 0x2
 7687 222d 91       		.byte	0x91
 7688 222e 60       		.sleb128 -32
 7689 222f 1D       		.uleb128 0x1d
 7690 2230 01       		.uleb128 0x1
 7691 2231 52       		.byte	0x52
 7692 2232 02       		.uleb128 0x2
 7693 2233 91       		.byte	0x91
 7694 2234 48       		.sleb128 -56
 7695 2235 00       		.byte	0
 7696 2236 00       		.byte	0
 7697 2237 15       		.uleb128 0x15
 7698 2238 BF000000 		.4byte	0xbf
 7699 223c 16       		.uleb128 0x16
 7700 223d 94040000 		.4byte	0x494
 7701 2241 01       		.byte	0x1
 7702 2242 8C       		.byte	0x8c
 7703 2243 00000000 		.4byte	.LFB79
 7704 2247 FC000000 		.4byte	.LFE79-.LFB79
 7705 224b 01       		.uleb128 0x1
 7706 224c 9C       		.byte	0x9c
 7707 224d 55220000 		.4byte	0x2255
 7708 2251 4B240000 		.4byte	0x244b
 7709 2255 17       		.uleb128 0x17
 7710 2256 2C070000 		.4byte	.LASF113
 7711 225a CE080000 		.4byte	0x8ce
 7712 225e 6C070000 		.4byte	.LLST48
 7713 2262 1A       		.uleb128 0x1a
 7714 2263 76040000 		.4byte	.LASF151
 7715 2267 01       		.byte	0x1
 7716 2268 8E       		.byte	0x8e
 7717 2269 9E000000 		.4byte	0x9e
 7718 226d 02       		.uleb128 0x2
 7719 226e 91       		.byte	0x91
 7720 226f 6F       		.sleb128 -17
 7721 2270 1A       		.uleb128 0x1a
 7722 2271 F9050000 		.4byte	.LASF152
 7723 2275 01       		.byte	0x1
 7724 2276 8F       		.byte	0x8f
 7725 2277 B7020000 		.4byte	0x2b7
 7726 227b 02       		.uleb128 0x2
 7727 227c 91       		.byte	0x91
 7728 227d 6E       		.sleb128 -18
 7729 227e 1A       		.uleb128 0x1a
 7730 227f 3E040000 		.4byte	.LASF153
 7731 2283 01       		.byte	0x1
 7732 2284 95       		.byte	0x95
 7733 2285 4B240000 		.4byte	0x244b
 7734 2289 02       		.uleb128 0x2
 7735 228a 91       		.byte	0x91
 7736 228b 68       		.sleb128 -24
 7737 228c 1B       		.uleb128 0x1b
 7738 228d EE060000 		.4byte	.LASF154
 7739 2291 01       		.byte	0x1
 7740 2292 9F       		.byte	0x9f
ARM GAS  C:\Users\hejmi\AppData\Local\Temp\ccFM6jcL.s 			page 151


 7741 2293 9E000000 		.4byte	0x9e
 7742 2297 8A070000 		.4byte	.LLST49
 7743 229b 1B       		.uleb128 0x1b
 7744 229c B9000000 		.4byte	.LASF155
 7745 22a0 01       		.byte	0x1
 7746 22a1 A0       		.byte	0xa0
 7747 22a2 9E000000 		.4byte	0x9e
 7748 22a6 9D070000 		.4byte	.LLST50
 7749 22aa 1B       		.uleb128 0x1b
 7750 22ab 0F060000 		.4byte	.LASF54
 7751 22af 01       		.byte	0x1
 7752 22b0 B5       		.byte	0xb5
 7753 22b1 BF000000 		.4byte	0xbf
 7754 22b5 C7070000 		.4byte	.LLST51
 7755 22b9 2C       		.uleb128 0x2c
 7756 22ba 00000000 		.4byte	.Ldebug_ranges0+0
 7757 22be D0220000 		.4byte	0x22d0
 7758 22c2 2D       		.uleb128 0x2d
 7759 22c3 6900     		.ascii	"i\000"
 7760 22c5 01       		.byte	0x1
 7761 22c6 A3       		.byte	0xa3
 7762 22c7 9E000000 		.4byte	0x9e
 7763 22cb E5070000 		.4byte	.LLST52
 7764 22cf 00       		.byte	0
 7765 22d0 1C       		.uleb128 0x1c
 7766 22d1 12000000 		.4byte	.LVL277
 7767 22d5 CE180000 		.4byte	0x18ce
 7768 22d9 F0220000 		.4byte	0x22f0
 7769 22dd 1D       		.uleb128 0x1d
 7770 22de 01       		.uleb128 0x1
 7771 22df 50       		.byte	0x50
 7772 22e0 02       		.uleb128 0x2
 7773 22e1 74       		.byte	0x74
 7774 22e2 00       		.sleb128 0
 7775 22e3 1D       		.uleb128 0x1d
 7776 22e4 01       		.uleb128 0x1
 7777 22e5 51       		.byte	0x51
 7778 22e6 02       		.uleb128 0x2
 7779 22e7 91       		.byte	0x91
 7780 22e8 6F       		.sleb128 -17
 7781 22e9 1D       		.uleb128 0x1d
 7782 22ea 01       		.uleb128 0x1
 7783 22eb 52       		.byte	0x52
 7784 22ec 02       		.uleb128 0x2
 7785 22ed 91       		.byte	0x91
 7786 22ee 6E       		.sleb128 -18
 7787 22ef 00       		.byte	0
 7788 22f0 1C       		.uleb128 0x1c
 7789 22f1 26000000 		.4byte	.LVL278
 7790 22f5 09010000 		.4byte	0x109
 7791 22f9 16230000 		.4byte	0x2316
 7792 22fd 1D       		.uleb128 0x1d
 7793 22fe 01       		.uleb128 0x1
 7794 22ff 50       		.byte	0x50
 7795 2300 02       		.uleb128 0x2
 7796 2301 74       		.byte	0x74
 7797 2302 00       		.sleb128 0
ARM GAS  C:\Users\hejmi\AppData\Local\Temp\ccFM6jcL.s 			page 152


 7798 2303 1D       		.uleb128 0x1d
 7799 2304 01       		.uleb128 0x1
 7800 2305 52       		.byte	0x52
 7801 2306 02       		.uleb128 0x2
 7802 2307 09       		.byte	0x9
 7803 2308 B0       		.byte	0xb0
 7804 2309 1D       		.uleb128 0x1d
 7805 230a 01       		.uleb128 0x1
 7806 230b 53       		.byte	0x53
 7807 230c 01       		.uleb128 0x1
 7808 230d 36       		.byte	0x36
 7809 230e 1D       		.uleb128 0x1d
 7810 230f 02       		.uleb128 0x2
 7811 2310 7D       		.byte	0x7d
 7812 2311 00       		.sleb128 0
 7813 2312 02       		.uleb128 0x2
 7814 2313 91       		.byte	0x91
 7815 2314 68       		.sleb128 -24
 7816 2315 00       		.byte	0
 7817 2316 1C       		.uleb128 0x1c
 7818 2317 32000000 		.4byte	.LVL279
 7819 231b 8E010000 		.4byte	0x18e
 7820 231f 35230000 		.4byte	0x2335
 7821 2323 1D       		.uleb128 0x1d
 7822 2324 01       		.uleb128 0x1
 7823 2325 50       		.byte	0x50
 7824 2326 02       		.uleb128 0x2
 7825 2327 74       		.byte	0x74
 7826 2328 00       		.sleb128 0
 7827 2329 1D       		.uleb128 0x1d
 7828 232a 01       		.uleb128 0x1
 7829 232b 52       		.byte	0x52
 7830 232c 02       		.uleb128 0x2
 7831 232d 09       		.byte	0x9
 7832 232e FF       		.byte	0xff
 7833 232f 1D       		.uleb128 0x1d
 7834 2330 01       		.uleb128 0x1
 7835 2331 53       		.byte	0x53
 7836 2332 01       		.uleb128 0x1
 7837 2333 31       		.byte	0x31
 7838 2334 00       		.byte	0
 7839 2335 1C       		.uleb128 0x1c
 7840 2336 3E000000 		.4byte	.LVL280
 7841 233a 8E010000 		.4byte	0x18e
 7842 233e 54230000 		.4byte	0x2354
 7843 2342 1D       		.uleb128 0x1d
 7844 2343 01       		.uleb128 0x1
 7845 2344 50       		.byte	0x50
 7846 2345 02       		.uleb128 0x2
 7847 2346 74       		.byte	0x74
 7848 2347 00       		.sleb128 0
 7849 2348 1D       		.uleb128 0x1d
 7850 2349 01       		.uleb128 0x1
 7851 234a 52       		.byte	0x52
 7852 234b 02       		.uleb128 0x2
 7853 234c 08       		.byte	0x8
 7854 234d 4F       		.byte	0x4f
ARM GAS  C:\Users\hejmi\AppData\Local\Temp\ccFM6jcL.s 			page 153


 7855 234e 1D       		.uleb128 0x1d
 7856 234f 01       		.uleb128 0x1
 7857 2350 53       		.byte	0x53
 7858 2351 01       		.uleb128 0x1
 7859 2352 30       		.byte	0x30
 7860 2353 00       		.byte	0
 7861 2354 1C       		.uleb128 0x1c
 7862 2355 4A000000 		.4byte	.LVL281
 7863 2359 8E010000 		.4byte	0x18e
 7864 235d 74230000 		.4byte	0x2374
 7865 2361 1D       		.uleb128 0x1d
 7866 2362 01       		.uleb128 0x1
 7867 2363 50       		.byte	0x50
 7868 2364 02       		.uleb128 0x2
 7869 2365 74       		.byte	0x74
 7870 2366 00       		.sleb128 0
 7871 2367 1D       		.uleb128 0x1d
 7872 2368 01       		.uleb128 0x1
 7873 2369 52       		.byte	0x52
 7874 236a 02       		.uleb128 0x2
 7875 236b 08       		.byte	0x8
 7876 236c 4E       		.byte	0x4e
 7877 236d 1D       		.uleb128 0x1d
 7878 236e 01       		.uleb128 0x1
 7879 236f 53       		.byte	0x53
 7880 2370 02       		.uleb128 0x2
 7881 2371 08       		.byte	0x8
 7882 2372 2C       		.byte	0x2c
 7883 2373 00       		.byte	0
 7884 2374 1C       		.uleb128 0x1c
 7885 2375 56000000 		.4byte	.LVL282
 7886 2379 8E010000 		.4byte	0x18e
 7887 237d 93230000 		.4byte	0x2393
 7888 2381 1D       		.uleb128 0x1d
 7889 2382 01       		.uleb128 0x1
 7890 2383 50       		.byte	0x50
 7891 2384 02       		.uleb128 0x2
 7892 2385 74       		.byte	0x74
 7893 2386 00       		.sleb128 0
 7894 2387 1D       		.uleb128 0x1d
 7895 2388 01       		.uleb128 0x1
 7896 2389 52       		.byte	0x52
 7897 238a 02       		.uleb128 0x2
 7898 238b 09       		.byte	0x9
 7899 238c FF       		.byte	0xff
 7900 238d 1D       		.uleb128 0x1d
 7901 238e 01       		.uleb128 0x1
 7902 238f 53       		.byte	0x53
 7903 2390 01       		.uleb128 0x1
 7904 2391 30       		.byte	0x30
 7905 2392 00       		.byte	0
 7906 2393 1C       		.uleb128 0x1c
 7907 2394 62000000 		.4byte	.LVL283
 7908 2398 8E010000 		.4byte	0x18e
 7909 239c B3230000 		.4byte	0x23b3
 7910 23a0 1D       		.uleb128 0x1d
 7911 23a1 01       		.uleb128 0x1
ARM GAS  C:\Users\hejmi\AppData\Local\Temp\ccFM6jcL.s 			page 154


 7912 23a2 50       		.byte	0x50
 7913 23a3 02       		.uleb128 0x2
 7914 23a4 74       		.byte	0x74
 7915 23a5 00       		.sleb128 0
 7916 23a6 1D       		.uleb128 0x1d
 7917 23a7 01       		.uleb128 0x1
 7918 23a8 52       		.byte	0x52
 7919 23a9 02       		.uleb128 0x2
 7920 23aa 09       		.byte	0x9
 7921 23ab B6       		.byte	0xb6
 7922 23ac 1D       		.uleb128 0x1d
 7923 23ad 01       		.uleb128 0x1
 7924 23ae 53       		.byte	0x53
 7925 23af 02       		.uleb128 0x2
 7926 23b0 09       		.byte	0x9
 7927 23b1 B4       		.byte	0xb4
 7928 23b2 00       		.byte	0
 7929 23b3 1C       		.uleb128 0x1c
 7930 23b4 D0000000 		.4byte	.LVL291
 7931 23b8 60010000 		.4byte	0x160
 7932 23bc D9230000 		.4byte	0x23d9
 7933 23c0 1D       		.uleb128 0x1d
 7934 23c1 01       		.uleb128 0x1
 7935 23c2 50       		.byte	0x50
 7936 23c3 02       		.uleb128 0x2
 7937 23c4 74       		.byte	0x74
 7938 23c5 00       		.sleb128 0
 7939 23c6 1D       		.uleb128 0x1d
 7940 23c7 01       		.uleb128 0x1
 7941 23c8 52       		.byte	0x52
 7942 23c9 02       		.uleb128 0x2
 7943 23ca 09       		.byte	0x9
 7944 23cb B0       		.byte	0xb0
 7945 23cc 1D       		.uleb128 0x1d
 7946 23cd 01       		.uleb128 0x1
 7947 23ce 53       		.byte	0x53
 7948 23cf 01       		.uleb128 0x1
 7949 23d0 36       		.byte	0x36
 7950 23d1 1D       		.uleb128 0x1d
 7951 23d2 02       		.uleb128 0x2
 7952 23d3 7D       		.byte	0x7d
 7953 23d4 00       		.sleb128 0
 7954 23d5 02       		.uleb128 0x2
 7955 23d6 91       		.byte	0x91
 7956 23d7 68       		.sleb128 -24
 7957 23d8 00       		.byte	0
 7958 23d9 1C       		.uleb128 0x1c
 7959 23da D6000000 		.4byte	.LVL292
 7960 23de 990B0000 		.4byte	0xb99
 7961 23e2 ED230000 		.4byte	0x23ed
 7962 23e6 1D       		.uleb128 0x1d
 7963 23e7 01       		.uleb128 0x1
 7964 23e8 50       		.byte	0x50
 7965 23e9 02       		.uleb128 0x2
 7966 23ea 74       		.byte	0x74
 7967 23eb 00       		.sleb128 0
 7968 23ec 00       		.byte	0
ARM GAS  C:\Users\hejmi\AppData\Local\Temp\ccFM6jcL.s 			page 155


 7969 23ed 1C       		.uleb128 0x1c
 7970 23ee DC000000 		.4byte	.LVL293
 7971 23f2 7A150000 		.4byte	0x157a
 7972 23f6 01240000 		.4byte	0x2401
 7973 23fa 1D       		.uleb128 0x1d
 7974 23fb 01       		.uleb128 0x1
 7975 23fc 50       		.byte	0x50
 7976 23fd 02       		.uleb128 0x2
 7977 23fe 74       		.byte	0x74
 7978 23ff 00       		.sleb128 0
 7979 2400 00       		.byte	0
 7980 2401 1C       		.uleb128 0x1c
 7981 2402 E2000000 		.4byte	.LVL294
 7982 2406 961D0000 		.4byte	0x1d96
 7983 240a 15240000 		.4byte	0x2415
 7984 240e 1D       		.uleb128 0x1d
 7985 240f 01       		.uleb128 0x1
 7986 2410 50       		.byte	0x50
 7987 2411 02       		.uleb128 0x2
 7988 2412 74       		.byte	0x74
 7989 2413 00       		.sleb128 0
 7990 2414 00       		.byte	0
 7991 2415 1C       		.uleb128 0x1c
 7992 2416 F0000000 		.4byte	.LVL297
 7993 241a 8E010000 		.4byte	0x18e
 7994 241e 34240000 		.4byte	0x2434
 7995 2422 1D       		.uleb128 0x1d
 7996 2423 01       		.uleb128 0x1
 7997 2424 50       		.byte	0x50
 7998 2425 02       		.uleb128 0x2
 7999 2426 74       		.byte	0x74
 8000 2427 00       		.sleb128 0
 8001 2428 1D       		.uleb128 0x1d
 8002 2429 01       		.uleb128 0x1
 8003 242a 52       		.byte	0x52
 8004 242b 01       		.uleb128 0x1
 8005 242c 31       		.byte	0x31
 8006 242d 1D       		.uleb128 0x1d
 8007 242e 01       		.uleb128 0x1
 8008 242f 53       		.byte	0x53
 8009 2430 02       		.uleb128 0x2
 8010 2431 09       		.byte	0x9
 8011 2432 E8       		.byte	0xe8
 8012 2433 00       		.byte	0
 8013 2434 1E       		.uleb128 0x1e
 8014 2435 F8000000 		.4byte	.LVL298
 8015 2439 A1200000 		.4byte	0x20a1
 8016 243d 1D       		.uleb128 0x1d
 8017 243e 01       		.uleb128 0x1
 8018 243f 50       		.byte	0x50
 8019 2440 02       		.uleb128 0x2
 8020 2441 74       		.byte	0x74
 8021 2442 00       		.sleb128 0
 8022 2443 1D       		.uleb128 0x1d
 8023 2444 01       		.uleb128 0x1
 8024 2445 51       		.byte	0x51
 8025 2446 02       		.uleb128 0x2
ARM GAS  C:\Users\hejmi\AppData\Local\Temp\ccFM6jcL.s 			page 156


 8026 2447 75       		.byte	0x75
 8027 2448 00       		.sleb128 0
 8028 2449 00       		.byte	0
 8029 244a 00       		.byte	0
 8030 244b 1F       		.uleb128 0x1f
 8031 244c 9E000000 		.4byte	0x9e
 8032 2450 5B240000 		.4byte	0x245b
 8033 2454 20       		.uleb128 0x20
 8034 2455 D8000000 		.4byte	0xd8
 8035 2459 05       		.byte	0x5
 8036 245a 00       		.byte	0
 8037 245b 16       		.uleb128 0x16
 8038 245c 71040000 		.4byte	0x471
 8039 2460 01       		.byte	0x1
 8040 2461 72       		.byte	0x72
 8041 2462 00000000 		.4byte	.LFB77
 8042 2466 22000000 		.4byte	.LFE77-.LFB77
 8043 246a 01       		.uleb128 0x1
 8044 246b 9C       		.byte	0x9c
 8045 246c 74240000 		.4byte	0x2474
 8046 2470 E3240000 		.4byte	0x24e3
 8047 2474 17       		.uleb128 0x17
 8048 2475 2C070000 		.4byte	.LASF113
 8049 2479 CE080000 		.4byte	0x8ce
 8050 247d 0F080000 		.4byte	.LLST53
 8051 2481 18       		.uleb128 0x18
 8052 2482 A4090000 		.4byte	.LASF124
 8053 2486 01       		.byte	0x1
 8054 2487 72       		.byte	0x72
 8055 2488 B7020000 		.4byte	0x2b7
 8056 248c 2D080000 		.4byte	.LLST54
 8057 2490 1C       		.uleb128 0x1c
 8058 2491 0A000000 		.4byte	.LVL300
 8059 2495 23160000 		.4byte	0x1623
 8060 2499 A4240000 		.4byte	0x24a4
 8061 249d 1D       		.uleb128 0x1d
 8062 249e 01       		.uleb128 0x1
 8063 249f 50       		.byte	0x50
 8064 24a0 02       		.uleb128 0x2
 8065 24a1 74       		.byte	0x74
 8066 24a2 00       		.sleb128 0
 8067 24a3 00       		.byte	0
 8068 24a4 1C       		.uleb128 0x1c
 8069 24a5 12000000 		.4byte	.LVL301
 8070 24a9 B7170000 		.4byte	0x17b7
 8071 24ad BE240000 		.4byte	0x24be
 8072 24b1 1D       		.uleb128 0x1d
 8073 24b2 01       		.uleb128 0x1
 8074 24b3 50       		.byte	0x50
 8075 24b4 02       		.uleb128 0x2
 8076 24b5 74       		.byte	0x74
 8077 24b6 00       		.sleb128 0
 8078 24b7 1D       		.uleb128 0x1d
 8079 24b8 01       		.uleb128 0x1
 8080 24b9 51       		.byte	0x51
 8081 24ba 02       		.uleb128 0x2
 8082 24bb 75       		.byte	0x75
ARM GAS  C:\Users\hejmi\AppData\Local\Temp\ccFM6jcL.s 			page 157


 8083 24bc 00       		.sleb128 0
 8084 24bd 00       		.byte	0
 8085 24be 1C       		.uleb128 0x1c
 8086 24bf 18000000 		.4byte	.LVL302
 8087 24c3 3C220000 		.4byte	0x223c
 8088 24c7 D2240000 		.4byte	0x24d2
 8089 24cb 1D       		.uleb128 0x1d
 8090 24cc 01       		.uleb128 0x1
 8091 24cd 50       		.byte	0x50
 8092 24ce 02       		.uleb128 0x2
 8093 24cf 74       		.byte	0x74
 8094 24d0 00       		.sleb128 0
 8095 24d1 00       		.byte	0
 8096 24d2 1E       		.uleb128 0x1e
 8097 24d3 1E000000 		.4byte	.LVL303
 8098 24d7 981F0000 		.4byte	0x1f98
 8099 24db 1D       		.uleb128 0x1d
 8100 24dc 01       		.uleb128 0x1
 8101 24dd 50       		.byte	0x50
 8102 24de 02       		.uleb128 0x2
 8103 24df 74       		.byte	0x74
 8104 24e0 00       		.sleb128 0
 8105 24e1 00       		.byte	0
 8106 24e2 00       		.byte	0
 8107 24e3 2E       		.uleb128 0x2e
 8108 24e4 D1070000 		.4byte	.LASF161
 8109 24e8 07       		.byte	0x7
 8110 24e9 1207     		.2byte	0x712
 8111 24eb EF240000 		.4byte	0x24ef
 8112 24ef 2F       		.uleb128 0x2f
 8113 24f0 B4000000 		.4byte	0xb4
 8114 24f4 00       		.byte	0
 8115              		.section	.debug_abbrev,"",%progbits
 8116              	.Ldebug_abbrev0:
 8117 0000 01       		.uleb128 0x1
 8118 0001 11       		.uleb128 0x11
 8119 0002 01       		.byte	0x1
 8120 0003 25       		.uleb128 0x25
 8121 0004 0E       		.uleb128 0xe
 8122 0005 13       		.uleb128 0x13
 8123 0006 0B       		.uleb128 0xb
 8124 0007 03       		.uleb128 0x3
 8125 0008 0E       		.uleb128 0xe
 8126 0009 1B       		.uleb128 0x1b
 8127 000a 0E       		.uleb128 0xe
 8128 000b 55       		.uleb128 0x55
 8129 000c 17       		.uleb128 0x17
 8130 000d 11       		.uleb128 0x11
 8131 000e 01       		.uleb128 0x1
 8132 000f 10       		.uleb128 0x10
 8133 0010 17       		.uleb128 0x17
 8134 0011 00       		.byte	0
 8135 0012 00       		.byte	0
 8136 0013 02       		.uleb128 0x2
 8137 0014 24       		.uleb128 0x24
 8138 0015 00       		.byte	0
 8139 0016 0B       		.uleb128 0xb
ARM GAS  C:\Users\hejmi\AppData\Local\Temp\ccFM6jcL.s 			page 158


 8140 0017 0B       		.uleb128 0xb
 8141 0018 3E       		.uleb128 0x3e
 8142 0019 0B       		.uleb128 0xb
 8143 001a 03       		.uleb128 0x3
 8144 001b 0E       		.uleb128 0xe
 8145 001c 00       		.byte	0
 8146 001d 00       		.byte	0
 8147 001e 03       		.uleb128 0x3
 8148 001f 16       		.uleb128 0x16
 8149 0020 00       		.byte	0
 8150 0021 03       		.uleb128 0x3
 8151 0022 0E       		.uleb128 0xe
 8152 0023 3A       		.uleb128 0x3a
 8153 0024 0B       		.uleb128 0xb
 8154 0025 3B       		.uleb128 0x3b
 8155 0026 0B       		.uleb128 0xb
 8156 0027 49       		.uleb128 0x49
 8157 0028 13       		.uleb128 0x13
 8158 0029 00       		.byte	0
 8159 002a 00       		.byte	0
 8160 002b 04       		.uleb128 0x4
 8161 002c 24       		.uleb128 0x24
 8162 002d 00       		.byte	0
 8163 002e 0B       		.uleb128 0xb
 8164 002f 0B       		.uleb128 0xb
 8165 0030 3E       		.uleb128 0x3e
 8166 0031 0B       		.uleb128 0xb
 8167 0032 03       		.uleb128 0x3
 8168 0033 08       		.uleb128 0x8
 8169 0034 00       		.byte	0
 8170 0035 00       		.byte	0
 8171 0036 05       		.uleb128 0x5
 8172 0037 02       		.uleb128 0x2
 8173 0038 01       		.byte	0x1
 8174 0039 03       		.uleb128 0x3
 8175 003a 08       		.uleb128 0x8
 8176 003b 0B       		.uleb128 0xb
 8177 003c 0B       		.uleb128 0xb
 8178 003d 3A       		.uleb128 0x3a
 8179 003e 0B       		.uleb128 0xb
 8180 003f 3B       		.uleb128 0x3b
 8181 0040 0B       		.uleb128 0xb
 8182 0041 01       		.uleb128 0x1
 8183 0042 13       		.uleb128 0x13
 8184 0043 00       		.byte	0
 8185 0044 00       		.byte	0
 8186 0045 06       		.uleb128 0x6
 8187 0046 2E       		.uleb128 0x2e
 8188 0047 01       		.byte	0x1
 8189 0048 3F       		.uleb128 0x3f
 8190 0049 19       		.uleb128 0x19
 8191 004a 03       		.uleb128 0x3
 8192 004b 08       		.uleb128 0x8
 8193 004c 3A       		.uleb128 0x3a
 8194 004d 0B       		.uleb128 0xb
 8195 004e 3B       		.uleb128 0x3b
 8196 004f 0B       		.uleb128 0xb
ARM GAS  C:\Users\hejmi\AppData\Local\Temp\ccFM6jcL.s 			page 159


 8197 0050 6E       		.uleb128 0x6e
 8198 0051 0E       		.uleb128 0xe
 8199 0052 49       		.uleb128 0x49
 8200 0053 13       		.uleb128 0x13
 8201 0054 32       		.uleb128 0x32
 8202 0055 0B       		.uleb128 0xb
 8203 0056 3C       		.uleb128 0x3c
 8204 0057 19       		.uleb128 0x19
 8205 0058 64       		.uleb128 0x64
 8206 0059 13       		.uleb128 0x13
 8207 005a 01       		.uleb128 0x1
 8208 005b 13       		.uleb128 0x13
 8209 005c 00       		.byte	0
 8210 005d 00       		.byte	0
 8211 005e 07       		.uleb128 0x7
 8212 005f 05       		.uleb128 0x5
 8213 0060 00       		.byte	0
 8214 0061 49       		.uleb128 0x49
 8215 0062 13       		.uleb128 0x13
 8216 0063 34       		.uleb128 0x34
 8217 0064 19       		.uleb128 0x19
 8218 0065 00       		.byte	0
 8219 0066 00       		.byte	0
 8220 0067 08       		.uleb128 0x8
 8221 0068 2E       		.uleb128 0x2e
 8222 0069 01       		.byte	0x1
 8223 006a 3F       		.uleb128 0x3f
 8224 006b 19       		.uleb128 0x19
 8225 006c 03       		.uleb128 0x3
 8226 006d 0E       		.uleb128 0xe
 8227 006e 3A       		.uleb128 0x3a
 8228 006f 0B       		.uleb128 0xb
 8229 0070 3B       		.uleb128 0x3b
 8230 0071 0B       		.uleb128 0xb
 8231 0072 6E       		.uleb128 0x6e
 8232 0073 0E       		.uleb128 0xe
 8233 0074 32       		.uleb128 0x32
 8234 0075 0B       		.uleb128 0xb
 8235 0076 3C       		.uleb128 0x3c
 8236 0077 19       		.uleb128 0x19
 8237 0078 64       		.uleb128 0x64
 8238 0079 13       		.uleb128 0x13
 8239 007a 01       		.uleb128 0x1
 8240 007b 13       		.uleb128 0x13
 8241 007c 00       		.byte	0
 8242 007d 00       		.byte	0
 8243 007e 09       		.uleb128 0x9
 8244 007f 05       		.uleb128 0x5
 8245 0080 00       		.byte	0
 8246 0081 49       		.uleb128 0x49
 8247 0082 13       		.uleb128 0x13
 8248 0083 00       		.byte	0
 8249 0084 00       		.byte	0
 8250 0085 0A       		.uleb128 0xa
 8251 0086 2E       		.uleb128 0x2e
 8252 0087 01       		.byte	0x1
 8253 0088 3F       		.uleb128 0x3f
ARM GAS  C:\Users\hejmi\AppData\Local\Temp\ccFM6jcL.s 			page 160


 8254 0089 19       		.uleb128 0x19
 8255 008a 03       		.uleb128 0x3
 8256 008b 0E       		.uleb128 0xe
 8257 008c 3A       		.uleb128 0x3a
 8258 008d 0B       		.uleb128 0xb
 8259 008e 3B       		.uleb128 0x3b
 8260 008f 0B       		.uleb128 0xb
 8261 0090 6E       		.uleb128 0x6e
 8262 0091 0E       		.uleb128 0xe
 8263 0092 32       		.uleb128 0x32
 8264 0093 0B       		.uleb128 0xb
 8265 0094 3C       		.uleb128 0x3c
 8266 0095 19       		.uleb128 0x19
 8267 0096 64       		.uleb128 0x64
 8268 0097 13       		.uleb128 0x13
 8269 0098 00       		.byte	0
 8270 0099 00       		.byte	0
 8271 009a 0B       		.uleb128 0xb
 8272 009b 0F       		.uleb128 0xf
 8273 009c 00       		.byte	0
 8274 009d 0B       		.uleb128 0xb
 8275 009e 0B       		.uleb128 0xb
 8276 009f 49       		.uleb128 0x49
 8277 00a0 13       		.uleb128 0x13
 8278 00a1 00       		.byte	0
 8279 00a2 00       		.byte	0
 8280 00a3 0C       		.uleb128 0xc
 8281 00a4 13       		.uleb128 0x13
 8282 00a5 01       		.byte	0x1
 8283 00a6 03       		.uleb128 0x3
 8284 00a7 0E       		.uleb128 0xe
 8285 00a8 0B       		.uleb128 0xb
 8286 00a9 0B       		.uleb128 0xb
 8287 00aa 3A       		.uleb128 0x3a
 8288 00ab 0B       		.uleb128 0xb
 8289 00ac 3B       		.uleb128 0x3b
 8290 00ad 0B       		.uleb128 0xb
 8291 00ae 01       		.uleb128 0x1
 8292 00af 13       		.uleb128 0x13
 8293 00b0 00       		.byte	0
 8294 00b1 00       		.byte	0
 8295 00b2 0D       		.uleb128 0xd
 8296 00b3 0D       		.uleb128 0xd
 8297 00b4 00       		.byte	0
 8298 00b5 03       		.uleb128 0x3
 8299 00b6 08       		.uleb128 0x8
 8300 00b7 3A       		.uleb128 0x3a
 8301 00b8 0B       		.uleb128 0xb
 8302 00b9 3B       		.uleb128 0x3b
 8303 00ba 0B       		.uleb128 0xb
 8304 00bb 49       		.uleb128 0x49
 8305 00bc 13       		.uleb128 0x13
 8306 00bd 38       		.uleb128 0x38
 8307 00be 0B       		.uleb128 0xb
 8308 00bf 00       		.byte	0
 8309 00c0 00       		.byte	0
 8310 00c1 0E       		.uleb128 0xe
ARM GAS  C:\Users\hejmi\AppData\Local\Temp\ccFM6jcL.s 			page 161


 8311 00c2 0D       		.uleb128 0xd
 8312 00c3 00       		.byte	0
 8313 00c4 03       		.uleb128 0x3
 8314 00c5 0E       		.uleb128 0xe
 8315 00c6 3A       		.uleb128 0x3a
 8316 00c7 0B       		.uleb128 0xb
 8317 00c8 3B       		.uleb128 0x3b
 8318 00c9 0B       		.uleb128 0xb
 8319 00ca 49       		.uleb128 0x49
 8320 00cb 13       		.uleb128 0x13
 8321 00cc 38       		.uleb128 0x38
 8322 00cd 0B       		.uleb128 0xb
 8323 00ce 00       		.byte	0
 8324 00cf 00       		.byte	0
 8325 00d0 0F       		.uleb128 0xf
 8326 00d1 04       		.uleb128 0x4
 8327 00d2 01       		.byte	0x1
 8328 00d3 03       		.uleb128 0x3
 8329 00d4 0E       		.uleb128 0xe
 8330 00d5 0B       		.uleb128 0xb
 8331 00d6 0B       		.uleb128 0xb
 8332 00d7 49       		.uleb128 0x49
 8333 00d8 13       		.uleb128 0x13
 8334 00d9 3A       		.uleb128 0x3a
 8335 00da 0B       		.uleb128 0xb
 8336 00db 3B       		.uleb128 0x3b
 8337 00dc 0B       		.uleb128 0xb
 8338 00dd 01       		.uleb128 0x1
 8339 00de 13       		.uleb128 0x13
 8340 00df 00       		.byte	0
 8341 00e0 00       		.byte	0
 8342 00e1 10       		.uleb128 0x10
 8343 00e2 28       		.uleb128 0x28
 8344 00e3 00       		.byte	0
 8345 00e4 03       		.uleb128 0x3
 8346 00e5 0E       		.uleb128 0xe
 8347 00e6 1C       		.uleb128 0x1c
 8348 00e7 0B       		.uleb128 0xb
 8349 00e8 00       		.byte	0
 8350 00e9 00       		.byte	0
 8351 00ea 11       		.uleb128 0x11
 8352 00eb 02       		.uleb128 0x2
 8353 00ec 01       		.byte	0x1
 8354 00ed 03       		.uleb128 0x3
 8355 00ee 0E       		.uleb128 0xe
 8356 00ef 0B       		.uleb128 0xb
 8357 00f0 0B       		.uleb128 0xb
 8358 00f1 3A       		.uleb128 0x3a
 8359 00f2 0B       		.uleb128 0xb
 8360 00f3 3B       		.uleb128 0x3b
 8361 00f4 0B       		.uleb128 0xb
 8362 00f5 01       		.uleb128 0x1
 8363 00f6 13       		.uleb128 0x13
 8364 00f7 00       		.byte	0
 8365 00f8 00       		.byte	0
 8366 00f9 12       		.uleb128 0x12
 8367 00fa 2E       		.uleb128 0x2e
ARM GAS  C:\Users\hejmi\AppData\Local\Temp\ccFM6jcL.s 			page 162


 8368 00fb 01       		.byte	0x1
 8369 00fc 3F       		.uleb128 0x3f
 8370 00fd 19       		.uleb128 0x19
 8371 00fe 03       		.uleb128 0x3
 8372 00ff 0E       		.uleb128 0xe
 8373 0100 3A       		.uleb128 0x3a
 8374 0101 0B       		.uleb128 0xb
 8375 0102 3B       		.uleb128 0x3b
 8376 0103 0B       		.uleb128 0xb
 8377 0104 6E       		.uleb128 0x6e
 8378 0105 0E       		.uleb128 0xe
 8379 0106 49       		.uleb128 0x49
 8380 0107 13       		.uleb128 0x13
 8381 0108 32       		.uleb128 0x32
 8382 0109 0B       		.uleb128 0xb
 8383 010a 3C       		.uleb128 0x3c
 8384 010b 19       		.uleb128 0x19
 8385 010c 64       		.uleb128 0x64
 8386 010d 13       		.uleb128 0x13
 8387 010e 01       		.uleb128 0x1
 8388 010f 13       		.uleb128 0x13
 8389 0110 00       		.byte	0
 8390 0111 00       		.byte	0
 8391 0112 13       		.uleb128 0x13
 8392 0113 2E       		.uleb128 0x2e
 8393 0114 01       		.byte	0x1
 8394 0115 3F       		.uleb128 0x3f
 8395 0116 19       		.uleb128 0x19
 8396 0117 03       		.uleb128 0x3
 8397 0118 0E       		.uleb128 0xe
 8398 0119 3A       		.uleb128 0x3a
 8399 011a 0B       		.uleb128 0xb
 8400 011b 3B       		.uleb128 0x3b
 8401 011c 0B       		.uleb128 0xb
 8402 011d 6E       		.uleb128 0x6e
 8403 011e 0E       		.uleb128 0xe
 8404 011f 3C       		.uleb128 0x3c
 8405 0120 19       		.uleb128 0x19
 8406 0121 64       		.uleb128 0x64
 8407 0122 13       		.uleb128 0x13
 8408 0123 01       		.uleb128 0x1
 8409 0124 13       		.uleb128 0x13
 8410 0125 00       		.byte	0
 8411 0126 00       		.byte	0
 8412 0127 14       		.uleb128 0x14
 8413 0128 2E       		.uleb128 0x2e
 8414 0129 01       		.byte	0x1
 8415 012a 3F       		.uleb128 0x3f
 8416 012b 19       		.uleb128 0x19
 8417 012c 03       		.uleb128 0x3
 8418 012d 0E       		.uleb128 0xe
 8419 012e 3A       		.uleb128 0x3a
 8420 012f 0B       		.uleb128 0xb
 8421 0130 3B       		.uleb128 0x3b
 8422 0131 0B       		.uleb128 0xb
 8423 0132 6E       		.uleb128 0x6e
 8424 0133 0E       		.uleb128 0xe
ARM GAS  C:\Users\hejmi\AppData\Local\Temp\ccFM6jcL.s 			page 163


 8425 0134 49       		.uleb128 0x49
 8426 0135 13       		.uleb128 0x13
 8427 0136 3C       		.uleb128 0x3c
 8428 0137 19       		.uleb128 0x19
 8429 0138 64       		.uleb128 0x64
 8430 0139 13       		.uleb128 0x13
 8431 013a 00       		.byte	0
 8432 013b 00       		.byte	0
 8433 013c 15       		.uleb128 0x15
 8434 013d 26       		.uleb128 0x26
 8435 013e 00       		.byte	0
 8436 013f 49       		.uleb128 0x49
 8437 0140 13       		.uleb128 0x13
 8438 0141 00       		.byte	0
 8439 0142 00       		.byte	0
 8440 0143 16       		.uleb128 0x16
 8441 0144 2E       		.uleb128 0x2e
 8442 0145 01       		.byte	0x1
 8443 0146 47       		.uleb128 0x47
 8444 0147 13       		.uleb128 0x13
 8445 0148 3A       		.uleb128 0x3a
 8446 0149 0B       		.uleb128 0xb
 8447 014a 3B       		.uleb128 0x3b
 8448 014b 0B       		.uleb128 0xb
 8449 014c 11       		.uleb128 0x11
 8450 014d 01       		.uleb128 0x1
 8451 014e 12       		.uleb128 0x12
 8452 014f 06       		.uleb128 0x6
 8453 0150 40       		.uleb128 0x40
 8454 0151 18       		.uleb128 0x18
 8455 0152 64       		.uleb128 0x64
 8456 0153 13       		.uleb128 0x13
 8457 0154 9742     		.uleb128 0x2117
 8458 0156 19       		.uleb128 0x19
 8459 0157 01       		.uleb128 0x1
 8460 0158 13       		.uleb128 0x13
 8461 0159 00       		.byte	0
 8462 015a 00       		.byte	0
 8463 015b 17       		.uleb128 0x17
 8464 015c 05       		.uleb128 0x5
 8465 015d 00       		.byte	0
 8466 015e 03       		.uleb128 0x3
 8467 015f 0E       		.uleb128 0xe
 8468 0160 49       		.uleb128 0x49
 8469 0161 13       		.uleb128 0x13
 8470 0162 34       		.uleb128 0x34
 8471 0163 19       		.uleb128 0x19
 8472 0164 02       		.uleb128 0x2
 8473 0165 17       		.uleb128 0x17
 8474 0166 00       		.byte	0
 8475 0167 00       		.byte	0
 8476 0168 18       		.uleb128 0x18
 8477 0169 05       		.uleb128 0x5
 8478 016a 00       		.byte	0
 8479 016b 03       		.uleb128 0x3
 8480 016c 0E       		.uleb128 0xe
 8481 016d 3A       		.uleb128 0x3a
ARM GAS  C:\Users\hejmi\AppData\Local\Temp\ccFM6jcL.s 			page 164


 8482 016e 0B       		.uleb128 0xb
 8483 016f 3B       		.uleb128 0x3b
 8484 0170 0B       		.uleb128 0xb
 8485 0171 49       		.uleb128 0x49
 8486 0172 13       		.uleb128 0x13
 8487 0173 02       		.uleb128 0x2
 8488 0174 17       		.uleb128 0x17
 8489 0175 00       		.byte	0
 8490 0176 00       		.byte	0
 8491 0177 19       		.uleb128 0x19
 8492 0178 0B       		.uleb128 0xb
 8493 0179 01       		.byte	0x1
 8494 017a 11       		.uleb128 0x11
 8495 017b 01       		.uleb128 0x1
 8496 017c 12       		.uleb128 0x12
 8497 017d 06       		.uleb128 0x6
 8498 017e 01       		.uleb128 0x1
 8499 017f 13       		.uleb128 0x13
 8500 0180 00       		.byte	0
 8501 0181 00       		.byte	0
 8502 0182 1A       		.uleb128 0x1a
 8503 0183 34       		.uleb128 0x34
 8504 0184 00       		.byte	0
 8505 0185 03       		.uleb128 0x3
 8506 0186 0E       		.uleb128 0xe
 8507 0187 3A       		.uleb128 0x3a
 8508 0188 0B       		.uleb128 0xb
 8509 0189 3B       		.uleb128 0x3b
 8510 018a 0B       		.uleb128 0xb
 8511 018b 49       		.uleb128 0x49
 8512 018c 13       		.uleb128 0x13
 8513 018d 02       		.uleb128 0x2
 8514 018e 18       		.uleb128 0x18
 8515 018f 00       		.byte	0
 8516 0190 00       		.byte	0
 8517 0191 1B       		.uleb128 0x1b
 8518 0192 34       		.uleb128 0x34
 8519 0193 00       		.byte	0
 8520 0194 03       		.uleb128 0x3
 8521 0195 0E       		.uleb128 0xe
 8522 0196 3A       		.uleb128 0x3a
 8523 0197 0B       		.uleb128 0xb
 8524 0198 3B       		.uleb128 0x3b
 8525 0199 0B       		.uleb128 0xb
 8526 019a 49       		.uleb128 0x49
 8527 019b 13       		.uleb128 0x13
 8528 019c 02       		.uleb128 0x2
 8529 019d 17       		.uleb128 0x17
 8530 019e 00       		.byte	0
 8531 019f 00       		.byte	0
 8532 01a0 1C       		.uleb128 0x1c
 8533 01a1 898201   		.uleb128 0x4109
 8534 01a4 01       		.byte	0x1
 8535 01a5 11       		.uleb128 0x11
 8536 01a6 01       		.uleb128 0x1
 8537 01a7 31       		.uleb128 0x31
 8538 01a8 13       		.uleb128 0x13
ARM GAS  C:\Users\hejmi\AppData\Local\Temp\ccFM6jcL.s 			page 165


 8539 01a9 01       		.uleb128 0x1
 8540 01aa 13       		.uleb128 0x13
 8541 01ab 00       		.byte	0
 8542 01ac 00       		.byte	0
 8543 01ad 1D       		.uleb128 0x1d
 8544 01ae 8A8201   		.uleb128 0x410a
 8545 01b1 00       		.byte	0
 8546 01b2 02       		.uleb128 0x2
 8547 01b3 18       		.uleb128 0x18
 8548 01b4 9142     		.uleb128 0x2111
 8549 01b6 18       		.uleb128 0x18
 8550 01b7 00       		.byte	0
 8551 01b8 00       		.byte	0
 8552 01b9 1E       		.uleb128 0x1e
 8553 01ba 898201   		.uleb128 0x4109
 8554 01bd 01       		.byte	0x1
 8555 01be 11       		.uleb128 0x11
 8556 01bf 01       		.uleb128 0x1
 8557 01c0 31       		.uleb128 0x31
 8558 01c1 13       		.uleb128 0x13
 8559 01c2 00       		.byte	0
 8560 01c3 00       		.byte	0
 8561 01c4 1F       		.uleb128 0x1f
 8562 01c5 01       		.uleb128 0x1
 8563 01c6 01       		.byte	0x1
 8564 01c7 49       		.uleb128 0x49
 8565 01c8 13       		.uleb128 0x13
 8566 01c9 01       		.uleb128 0x1
 8567 01ca 13       		.uleb128 0x13
 8568 01cb 00       		.byte	0
 8569 01cc 00       		.byte	0
 8570 01cd 20       		.uleb128 0x20
 8571 01ce 21       		.uleb128 0x21
 8572 01cf 00       		.byte	0
 8573 01d0 49       		.uleb128 0x49
 8574 01d1 13       		.uleb128 0x13
 8575 01d2 2F       		.uleb128 0x2f
 8576 01d3 0B       		.uleb128 0xb
 8577 01d4 00       		.byte	0
 8578 01d5 00       		.byte	0
 8579 01d6 21       		.uleb128 0x21
 8580 01d7 34       		.uleb128 0x34
 8581 01d8 00       		.byte	0
 8582 01d9 03       		.uleb128 0x3
 8583 01da 08       		.uleb128 0x8
 8584 01db 3A       		.uleb128 0x3a
 8585 01dc 0B       		.uleb128 0xb
 8586 01dd 3B       		.uleb128 0x3b
 8587 01de 0B       		.uleb128 0xb
 8588 01df 49       		.uleb128 0x49
 8589 01e0 13       		.uleb128 0x13
 8590 01e1 02       		.uleb128 0x2
 8591 01e2 18       		.uleb128 0x18
 8592 01e3 00       		.byte	0
 8593 01e4 00       		.byte	0
 8594 01e5 22       		.uleb128 0x22
 8595 01e6 2E       		.uleb128 0x2e
ARM GAS  C:\Users\hejmi\AppData\Local\Temp\ccFM6jcL.s 			page 166


 8596 01e7 01       		.byte	0x1
 8597 01e8 47       		.uleb128 0x47
 8598 01e9 13       		.uleb128 0x13
 8599 01ea 3A       		.uleb128 0x3a
 8600 01eb 0B       		.uleb128 0xb
 8601 01ec 3B       		.uleb128 0x3b
 8602 01ed 05       		.uleb128 0x5
 8603 01ee 11       		.uleb128 0x11
 8604 01ef 01       		.uleb128 0x1
 8605 01f0 12       		.uleb128 0x12
 8606 01f1 06       		.uleb128 0x6
 8607 01f2 40       		.uleb128 0x40
 8608 01f3 18       		.uleb128 0x18
 8609 01f4 64       		.uleb128 0x64
 8610 01f5 13       		.uleb128 0x13
 8611 01f6 9742     		.uleb128 0x2117
 8612 01f8 19       		.uleb128 0x19
 8613 01f9 01       		.uleb128 0x1
 8614 01fa 13       		.uleb128 0x13
 8615 01fb 00       		.byte	0
 8616 01fc 00       		.byte	0
 8617 01fd 23       		.uleb128 0x23
 8618 01fe 05       		.uleb128 0x5
 8619 01ff 00       		.byte	0
 8620 0200 03       		.uleb128 0x3
 8621 0201 0E       		.uleb128 0xe
 8622 0202 3A       		.uleb128 0x3a
 8623 0203 0B       		.uleb128 0xb
 8624 0204 3B       		.uleb128 0x3b
 8625 0205 05       		.uleb128 0x5
 8626 0206 49       		.uleb128 0x49
 8627 0207 13       		.uleb128 0x13
 8628 0208 02       		.uleb128 0x2
 8629 0209 17       		.uleb128 0x17
 8630 020a 00       		.byte	0
 8631 020b 00       		.byte	0
 8632 020c 24       		.uleb128 0x24
 8633 020d 34       		.uleb128 0x34
 8634 020e 00       		.byte	0
 8635 020f 03       		.uleb128 0x3
 8636 0210 0E       		.uleb128 0xe
 8637 0211 3A       		.uleb128 0x3a
 8638 0212 0B       		.uleb128 0xb
 8639 0213 3B       		.uleb128 0x3b
 8640 0214 05       		.uleb128 0x5
 8641 0215 49       		.uleb128 0x49
 8642 0216 13       		.uleb128 0x13
 8643 0217 02       		.uleb128 0x2
 8644 0218 18       		.uleb128 0x18
 8645 0219 00       		.byte	0
 8646 021a 00       		.byte	0
 8647 021b 25       		.uleb128 0x25
 8648 021c 05       		.uleb128 0x5
 8649 021d 00       		.byte	0
 8650 021e 03       		.uleb128 0x3
 8651 021f 0E       		.uleb128 0xe
 8652 0220 3A       		.uleb128 0x3a
ARM GAS  C:\Users\hejmi\AppData\Local\Temp\ccFM6jcL.s 			page 167


 8653 0221 0B       		.uleb128 0xb
 8654 0222 3B       		.uleb128 0x3b
 8655 0223 05       		.uleb128 0x5
 8656 0224 49       		.uleb128 0x49
 8657 0225 13       		.uleb128 0x13
 8658 0226 02       		.uleb128 0x2
 8659 0227 18       		.uleb128 0x18
 8660 0228 00       		.byte	0
 8661 0229 00       		.byte	0
 8662 022a 26       		.uleb128 0x26
 8663 022b 34       		.uleb128 0x34
 8664 022c 00       		.byte	0
 8665 022d 03       		.uleb128 0x3
 8666 022e 08       		.uleb128 0x8
 8667 022f 3A       		.uleb128 0x3a
 8668 0230 0B       		.uleb128 0xb
 8669 0231 3B       		.uleb128 0x3b
 8670 0232 05       		.uleb128 0x5
 8671 0233 49       		.uleb128 0x49
 8672 0234 13       		.uleb128 0x13
 8673 0235 02       		.uleb128 0x2
 8674 0236 18       		.uleb128 0x18
 8675 0237 00       		.byte	0
 8676 0238 00       		.byte	0
 8677 0239 27       		.uleb128 0x27
 8678 023a 2E       		.uleb128 0x2e
 8679 023b 01       		.byte	0x1
 8680 023c 47       		.uleb128 0x47
 8681 023d 13       		.uleb128 0x13
 8682 023e 3A       		.uleb128 0x3a
 8683 023f 0B       		.uleb128 0xb
 8684 0240 3B       		.uleb128 0x3b
 8685 0241 05       		.uleb128 0x5
 8686 0242 11       		.uleb128 0x11
 8687 0243 01       		.uleb128 0x1
 8688 0244 12       		.uleb128 0x12
 8689 0245 06       		.uleb128 0x6
 8690 0246 40       		.uleb128 0x40
 8691 0247 18       		.uleb128 0x18
 8692 0248 64       		.uleb128 0x64
 8693 0249 13       		.uleb128 0x13
 8694 024a 9642     		.uleb128 0x2116
 8695 024c 19       		.uleb128 0x19
 8696 024d 01       		.uleb128 0x1
 8697 024e 13       		.uleb128 0x13
 8698 024f 00       		.byte	0
 8699 0250 00       		.byte	0
 8700 0251 28       		.uleb128 0x28
 8701 0252 34       		.uleb128 0x34
 8702 0253 00       		.byte	0
 8703 0254 03       		.uleb128 0x3
 8704 0255 08       		.uleb128 0x8
 8705 0256 3A       		.uleb128 0x3a
 8706 0257 0B       		.uleb128 0xb
 8707 0258 3B       		.uleb128 0x3b
 8708 0259 05       		.uleb128 0x5
 8709 025a 49       		.uleb128 0x49
ARM GAS  C:\Users\hejmi\AppData\Local\Temp\ccFM6jcL.s 			page 168


 8710 025b 13       		.uleb128 0x13
 8711 025c 02       		.uleb128 0x2
 8712 025d 17       		.uleb128 0x17
 8713 025e 00       		.byte	0
 8714 025f 00       		.byte	0
 8715 0260 29       		.uleb128 0x29
 8716 0261 34       		.uleb128 0x34
 8717 0262 00       		.byte	0
 8718 0263 03       		.uleb128 0x3
 8719 0264 0E       		.uleb128 0xe
 8720 0265 3A       		.uleb128 0x3a
 8721 0266 0B       		.uleb128 0xb
 8722 0267 3B       		.uleb128 0x3b
 8723 0268 05       		.uleb128 0x5
 8724 0269 49       		.uleb128 0x49
 8725 026a 13       		.uleb128 0x13
 8726 026b 02       		.uleb128 0x2
 8727 026c 17       		.uleb128 0x17
 8728 026d 00       		.byte	0
 8729 026e 00       		.byte	0
 8730 026f 2A       		.uleb128 0x2a
 8731 0270 34       		.uleb128 0x34
 8732 0271 00       		.byte	0
 8733 0272 03       		.uleb128 0x3
 8734 0273 0E       		.uleb128 0xe
 8735 0274 3A       		.uleb128 0x3a
 8736 0275 0B       		.uleb128 0xb
 8737 0276 3B       		.uleb128 0x3b
 8738 0277 05       		.uleb128 0x5
 8739 0278 49       		.uleb128 0x49
 8740 0279 13       		.uleb128 0x13
 8741 027a 1C       		.uleb128 0x1c
 8742 027b 05       		.uleb128 0x5
 8743 027c 00       		.byte	0
 8744 027d 00       		.byte	0
 8745 027e 2B       		.uleb128 0x2b
 8746 027f 34       		.uleb128 0x34
 8747 0280 00       		.byte	0
 8748 0281 03       		.uleb128 0x3
 8749 0282 0E       		.uleb128 0xe
 8750 0283 3A       		.uleb128 0x3a
 8751 0284 0B       		.uleb128 0xb
 8752 0285 3B       		.uleb128 0x3b
 8753 0286 0B       		.uleb128 0xb
 8754 0287 49       		.uleb128 0x49
 8755 0288 13       		.uleb128 0x13
 8756 0289 1C       		.uleb128 0x1c
 8757 028a 05       		.uleb128 0x5
 8758 028b 00       		.byte	0
 8759 028c 00       		.byte	0
 8760 028d 2C       		.uleb128 0x2c
 8761 028e 0B       		.uleb128 0xb
 8762 028f 01       		.byte	0x1
 8763 0290 55       		.uleb128 0x55
 8764 0291 17       		.uleb128 0x17
 8765 0292 01       		.uleb128 0x1
 8766 0293 13       		.uleb128 0x13
ARM GAS  C:\Users\hejmi\AppData\Local\Temp\ccFM6jcL.s 			page 169


 8767 0294 00       		.byte	0
 8768 0295 00       		.byte	0
 8769 0296 2D       		.uleb128 0x2d
 8770 0297 34       		.uleb128 0x34
 8771 0298 00       		.byte	0
 8772 0299 03       		.uleb128 0x3
 8773 029a 08       		.uleb128 0x8
 8774 029b 3A       		.uleb128 0x3a
 8775 029c 0B       		.uleb128 0xb
 8776 029d 3B       		.uleb128 0x3b
 8777 029e 0B       		.uleb128 0xb
 8778 029f 49       		.uleb128 0x49
 8779 02a0 13       		.uleb128 0x13
 8780 02a1 02       		.uleb128 0x2
 8781 02a2 17       		.uleb128 0x17
 8782 02a3 00       		.byte	0
 8783 02a4 00       		.byte	0
 8784 02a5 2E       		.uleb128 0x2e
 8785 02a6 34       		.uleb128 0x34
 8786 02a7 00       		.byte	0
 8787 02a8 03       		.uleb128 0x3
 8788 02a9 0E       		.uleb128 0xe
 8789 02aa 3A       		.uleb128 0x3a
 8790 02ab 0B       		.uleb128 0xb
 8791 02ac 3B       		.uleb128 0x3b
 8792 02ad 05       		.uleb128 0x5
 8793 02ae 49       		.uleb128 0x49
 8794 02af 13       		.uleb128 0x13
 8795 02b0 3F       		.uleb128 0x3f
 8796 02b1 19       		.uleb128 0x19
 8797 02b2 3C       		.uleb128 0x3c
 8798 02b3 19       		.uleb128 0x19
 8799 02b4 00       		.byte	0
 8800 02b5 00       		.byte	0
 8801 02b6 2F       		.uleb128 0x2f
 8802 02b7 35       		.uleb128 0x35
 8803 02b8 00       		.byte	0
 8804 02b9 49       		.uleb128 0x49
 8805 02ba 13       		.uleb128 0x13
 8806 02bb 00       		.byte	0
 8807 02bc 00       		.byte	0
 8808 02bd 00       		.byte	0
 8809              		.section	.debug_loc,"",%progbits
 8810              	.Ldebug_loc0:
 8811              	.LLST0:
 8812 0000 00000000 		.4byte	.LVL0
 8813 0004 11000000 		.4byte	.LVL2-1
 8814 0008 0100     		.2byte	0x1
 8815 000a 50       		.byte	0x50
 8816 000b 11000000 		.4byte	.LVL2-1
 8817 000f CA000000 		.4byte	.LFE74
 8818 0013 0100     		.2byte	0x1
 8819 0015 54       		.byte	0x54
 8820 0016 00000000 		.4byte	0
 8821 001a 00000000 		.4byte	0
 8822              	.LLST1:
 8823 001e 00000000 		.4byte	.LVL0
ARM GAS  C:\Users\hejmi\AppData\Local\Temp\ccFM6jcL.s 			page 170


 8824 0022 0E000000 		.4byte	.LVL1
 8825 0026 0100     		.2byte	0x1
 8826 0028 51       		.byte	0x51
 8827 0029 0E000000 		.4byte	.LVL1
 8828 002d 98000000 		.4byte	.LVL14
 8829 0031 0100     		.2byte	0x1
 8830 0033 55       		.byte	0x55
 8831 0034 BA000000 		.4byte	.LVL17
 8832 0038 C6000000 		.4byte	.LVL18
 8833 003c 0100     		.2byte	0x1
 8834 003e 55       		.byte	0x55
 8835 003f 00000000 		.4byte	0
 8836 0043 00000000 		.4byte	0
 8837              	.LLST2:
 8838 0047 80000000 		.4byte	.LVL10
 8839 004b 8C000000 		.4byte	.LVL12
 8840 004f 0100     		.2byte	0x1
 8841 0051 53       		.byte	0x53
 8842 0052 8C000000 		.4byte	.LVL12
 8843 0056 90000000 		.4byte	.LVL13
 8844 005a 0D00     		.2byte	0xd
 8845 005c 72       		.byte	0x72
 8846 005d 00       		.sleb128 0
 8847 005e 38       		.byte	0x38
 8848 005f 24       		.byte	0x24
 8849 0060 91       		.byte	0x91
 8850 0061 6D       		.sleb128 -19
 8851 0062 94       		.byte	0x94
 8852 0063 01       		.byte	0x1
 8853 0064 08       		.byte	0x8
 8854 0065 FF       		.byte	0xff
 8855 0066 1A       		.byte	0x1a
 8856 0067 22       		.byte	0x22
 8857 0068 9F       		.byte	0x9f
 8858 0069 00000000 		.4byte	0
 8859 006d 00000000 		.4byte	0
 8860              	.LLST3:
 8861 0071 00000000 		.4byte	.LVL19
 8862 0075 0D000000 		.4byte	.LVL20-1
 8863 0079 0100     		.2byte	0x1
 8864 007b 50       		.byte	0x50
 8865 007c 0D000000 		.4byte	.LVL20-1
 8866 0080 4C000000 		.4byte	.LFE75
 8867 0084 0100     		.2byte	0x1
 8868 0086 54       		.byte	0x54
 8869 0087 00000000 		.4byte	0
 8870 008b 00000000 		.4byte	0
 8871              	.LLST4:
 8872 008f 00000000 		.4byte	.LVL26
 8873 0093 0C000000 		.4byte	.LVL27
 8874 0097 0100     		.2byte	0x1
 8875 0099 50       		.byte	0x50
 8876 009a 0C000000 		.4byte	.LVL27
 8877 009e 56000000 		.4byte	.LFE76
 8878 00a2 0100     		.2byte	0x1
 8879 00a4 54       		.byte	0x54
 8880 00a5 00000000 		.4byte	0
ARM GAS  C:\Users\hejmi\AppData\Local\Temp\ccFM6jcL.s 			page 171


 8881 00a9 00000000 		.4byte	0
 8882              	.LLST5:
 8883 00ad 00000000 		.4byte	.LVL32
 8884 00b1 11000000 		.4byte	.LVL34-1
 8885 00b5 0100     		.2byte	0x1
 8886 00b7 50       		.byte	0x50
 8887 00b8 11000000 		.4byte	.LVL34-1
 8888 00bc 36000000 		.4byte	.LFE82
 8889 00c0 0400     		.2byte	0x4
 8890 00c2 F3       		.byte	0xf3
 8891 00c3 01       		.uleb128 0x1
 8892 00c4 50       		.byte	0x50
 8893 00c5 9F       		.byte	0x9f
 8894 00c6 00000000 		.4byte	0
 8895 00ca 00000000 		.4byte	0
 8896              	.LLST6:
 8897 00ce 00000000 		.4byte	.LVL32
 8898 00d2 0E000000 		.4byte	.LVL33
 8899 00d6 0100     		.2byte	0x1
 8900 00d8 51       		.byte	0x51
 8901 00d9 0E000000 		.4byte	.LVL33
 8902 00dd 36000000 		.4byte	.LFE82
 8903 00e1 0100     		.2byte	0x1
 8904 00e3 54       		.byte	0x54
 8905 00e4 00000000 		.4byte	0
 8906 00e8 00000000 		.4byte	0
 8907              	.LLST7:
 8908 00ec 00000000 		.4byte	.LVL35
 8909 00f0 04000000 		.4byte	.LVL36
 8910 00f4 0100     		.2byte	0x1
 8911 00f6 50       		.byte	0x50
 8912 00f7 04000000 		.4byte	.LVL36
 8913 00fb 0E000000 		.4byte	.LFE84
 8914 00ff 0400     		.2byte	0x4
 8915 0101 F3       		.byte	0xf3
 8916 0102 01       		.uleb128 0x1
 8917 0103 50       		.byte	0x50
 8918 0104 9F       		.byte	0x9f
 8919 0105 00000000 		.4byte	0
 8920 0109 00000000 		.4byte	0
 8921              	.LLST8:
 8922 010d 00000000 		.4byte	.LVL37
 8923 0111 17000000 		.4byte	.LVL39-1
 8924 0115 0100     		.2byte	0x1
 8925 0117 50       		.byte	0x50
 8926 0118 17000000 		.4byte	.LVL39-1
 8927 011c 24000000 		.4byte	.LVL40
 8928 0120 0400     		.2byte	0x4
 8929 0122 F3       		.byte	0xf3
 8930 0123 01       		.uleb128 0x1
 8931 0124 50       		.byte	0x50
 8932 0125 9F       		.byte	0x9f
 8933 0126 24000000 		.4byte	.LVL40
 8934 012a 33000000 		.4byte	.LVL42-1
 8935 012e 0100     		.2byte	0x1
 8936 0130 50       		.byte	0x50
 8937 0131 33000000 		.4byte	.LVL42-1
ARM GAS  C:\Users\hejmi\AppData\Local\Temp\ccFM6jcL.s 			page 172


 8938 0135 40000000 		.4byte	.LVL43
 8939 0139 0400     		.2byte	0x4
 8940 013b F3       		.byte	0xf3
 8941 013c 01       		.uleb128 0x1
 8942 013d 50       		.byte	0x50
 8943 013e 9F       		.byte	0x9f
 8944 013f 40000000 		.4byte	.LVL43
 8945 0143 42000000 		.4byte	.LVL44
 8946 0147 0100     		.2byte	0x1
 8947 0149 50       		.byte	0x50
 8948 014a 42000000 		.4byte	.LVL44
 8949 014e 48000000 		.4byte	.LFE85
 8950 0152 0400     		.2byte	0x4
 8951 0154 F3       		.byte	0xf3
 8952 0155 01       		.uleb128 0x1
 8953 0156 50       		.byte	0x50
 8954 0157 9F       		.byte	0x9f
 8955 0158 00000000 		.4byte	0
 8956 015c 00000000 		.4byte	0
 8957              	.LLST9:
 8958 0160 00000000 		.4byte	.LVL37
 8959 0164 14000000 		.4byte	.LVL38
 8960 0168 0100     		.2byte	0x1
 8961 016a 51       		.byte	0x51
 8962 016b 14000000 		.4byte	.LVL38
 8963 016f 24000000 		.4byte	.LVL40
 8964 0173 0400     		.2byte	0x4
 8965 0175 F3       		.byte	0xf3
 8966 0176 01       		.uleb128 0x1
 8967 0177 51       		.byte	0x51
 8968 0178 9F       		.byte	0x9f
 8969 0179 24000000 		.4byte	.LVL40
 8970 017d 30000000 		.4byte	.LVL41
 8971 0181 0100     		.2byte	0x1
 8972 0183 51       		.byte	0x51
 8973 0184 30000000 		.4byte	.LVL41
 8974 0188 40000000 		.4byte	.LVL43
 8975 018c 0400     		.2byte	0x4
 8976 018e F3       		.byte	0xf3
 8977 018f 01       		.uleb128 0x1
 8978 0190 51       		.byte	0x51
 8979 0191 9F       		.byte	0x9f
 8980 0192 40000000 		.4byte	.LVL43
 8981 0196 42000000 		.4byte	.LVL44
 8982 019a 0100     		.2byte	0x1
 8983 019c 51       		.byte	0x51
 8984 019d 42000000 		.4byte	.LVL44
 8985 01a1 48000000 		.4byte	.LFE85
 8986 01a5 0400     		.2byte	0x4
 8987 01a7 F3       		.byte	0xf3
 8988 01a8 01       		.uleb128 0x1
 8989 01a9 51       		.byte	0x51
 8990 01aa 9F       		.byte	0x9f
 8991 01ab 00000000 		.4byte	0
 8992 01af 00000000 		.4byte	0
 8993              	.LLST10:
 8994 01b3 00000000 		.4byte	.LVL45
ARM GAS  C:\Users\hejmi\AppData\Local\Temp\ccFM6jcL.s 			page 173


 8995 01b7 0D000000 		.4byte	.LVL46-1
 8996 01bb 0100     		.2byte	0x1
 8997 01bd 50       		.byte	0x50
 8998 01be 0D000000 		.4byte	.LVL46-1
 8999 01c2 C4030000 		.4byte	.LFE86
 9000 01c6 0100     		.2byte	0x1
 9001 01c8 54       		.byte	0x54
 9002 01c9 00000000 		.4byte	0
 9003 01cd 00000000 		.4byte	0
 9004              	.LLST11:
 9005 01d1 00000000 		.4byte	.LVL126
 9006 01d5 0F000000 		.4byte	.LVL127-1
 9007 01d9 0100     		.2byte	0x1
 9008 01db 50       		.byte	0x50
 9009 01dc 0F000000 		.4byte	.LVL127-1
 9010 01e0 40000000 		.4byte	.LFE87
 9011 01e4 0100     		.2byte	0x1
 9012 01e6 54       		.byte	0x54
 9013 01e7 00000000 		.4byte	0
 9014 01eb 00000000 		.4byte	0
 9015              	.LLST12:
 9016 01ef 00000000 		.4byte	.LVL131
 9017 01f3 0D000000 		.4byte	.LVL132-1
 9018 01f7 0100     		.2byte	0x1
 9019 01f9 50       		.byte	0x50
 9020 01fa 0D000000 		.4byte	.LVL132-1
 9021 01fe 66000000 		.4byte	.LFE89
 9022 0202 0100     		.2byte	0x1
 9023 0204 54       		.byte	0x54
 9024 0205 00000000 		.4byte	0
 9025 0209 00000000 		.4byte	0
 9026              	.LLST13:
 9027 020d 00000000 		.4byte	.LVL140
 9028 0211 0C000000 		.4byte	.LVL142
 9029 0215 0100     		.2byte	0x1
 9030 0217 50       		.byte	0x50
 9031 0218 0C000000 		.4byte	.LVL142
 9032 021c 5C000000 		.4byte	.LVL151
 9033 0220 0100     		.2byte	0x1
 9034 0222 55       		.byte	0x55
 9035 0223 5C000000 		.4byte	.LVL151
 9036 0227 68000000 		.4byte	.LFE90
 9037 022b 0400     		.2byte	0x4
 9038 022d F3       		.byte	0xf3
 9039 022e 01       		.uleb128 0x1
 9040 022f 50       		.byte	0x50
 9041 0230 9F       		.byte	0x9f
 9042 0231 00000000 		.4byte	0
 9043 0235 00000000 		.4byte	0
 9044              	.LLST14:
 9045 0239 00000000 		.4byte	.LVL140
 9046 023d 0A000000 		.4byte	.LVL141
 9047 0241 0100     		.2byte	0x1
 9048 0243 51       		.byte	0x51
 9049 0244 0A000000 		.4byte	.LVL141
 9050 0248 5C000000 		.4byte	.LVL151
 9051 024c 0100     		.2byte	0x1
ARM GAS  C:\Users\hejmi\AppData\Local\Temp\ccFM6jcL.s 			page 174


 9052 024e 54       		.byte	0x54
 9053 024f 5C000000 		.4byte	.LVL151
 9054 0253 68000000 		.4byte	.LFE90
 9055 0257 0600     		.2byte	0x6
 9056 0259 F3       		.byte	0xf3
 9057 025a 03       		.uleb128 0x3
 9058 025b F5       		.byte	0xf5
 9059 025c 01       		.uleb128 0x1
 9060 025d 25       		.uleb128 0x25
 9061 025e 9F       		.byte	0x9f
 9062 025f 00000000 		.4byte	0
 9063 0263 00000000 		.4byte	0
 9064              	.LLST15:
 9065 0267 34000000 		.4byte	.LVL148
 9066 026b 3A000000 		.4byte	.LVL149
 9067 026f 0100     		.2byte	0x1
 9068 0271 50       		.byte	0x50
 9069 0272 00000000 		.4byte	0
 9070 0276 00000000 		.4byte	0
 9071              	.LLST16:
 9072 027a 00000000 		.4byte	.LVL152
 9073 027e 13000000 		.4byte	.LVL154-1
 9074 0282 0100     		.2byte	0x1
 9075 0284 50       		.byte	0x50
 9076 0285 13000000 		.4byte	.LVL154-1
 9077 0289 66000000 		.4byte	.LFE88
 9078 028d 0100     		.2byte	0x1
 9079 028f 54       		.byte	0x54
 9080 0290 00000000 		.4byte	0
 9081 0294 00000000 		.4byte	0
 9082              	.LLST17:
 9083 0298 00000000 		.4byte	.LVL152
 9084 029c 10000000 		.4byte	.LVL153
 9085 02a0 0100     		.2byte	0x1
 9086 02a2 51       		.byte	0x51
 9087 02a3 10000000 		.4byte	.LVL153
 9088 02a7 66000000 		.4byte	.LFE88
 9089 02ab 0400     		.2byte	0x4
 9090 02ad F3       		.byte	0xf3
 9091 02ae 01       		.uleb128 0x1
 9092 02af 51       		.byte	0x51
 9093 02b0 9F       		.byte	0x9f
 9094 02b1 00000000 		.4byte	0
 9095 02b5 00000000 		.4byte	0
 9096              	.LLST18:
 9097 02b9 00000000 		.4byte	.LVL161
 9098 02bd 15000000 		.4byte	.LVL164-1
 9099 02c1 0100     		.2byte	0x1
 9100 02c3 50       		.byte	0x50
 9101 02c4 15000000 		.4byte	.LVL164-1
 9102 02c8 48010000 		.4byte	.LFE91
 9103 02cc 0100     		.2byte	0x1
 9104 02ce 54       		.byte	0x54
 9105 02cf 00000000 		.4byte	0
 9106 02d3 00000000 		.4byte	0
 9107              	.LLST19:
 9108 02d7 00000000 		.4byte	.LVL161
ARM GAS  C:\Users\hejmi\AppData\Local\Temp\ccFM6jcL.s 			page 175


 9109 02db 12000000 		.4byte	.LVL163
 9110 02df 0100     		.2byte	0x1
 9111 02e1 51       		.byte	0x51
 9112 02e2 12000000 		.4byte	.LVL163
 9113 02e6 48010000 		.4byte	.LFE91
 9114 02ea 0100     		.2byte	0x1
 9115 02ec 57       		.byte	0x57
 9116 02ed 00000000 		.4byte	0
 9117 02f1 00000000 		.4byte	0
 9118              	.LLST20:
 9119 02f5 00000000 		.4byte	.LVL161
 9120 02f9 10000000 		.4byte	.LVL162
 9121 02fd 0100     		.2byte	0x1
 9122 02ff 52       		.byte	0x52
 9123 0300 10000000 		.4byte	.LVL162
 9124 0304 48010000 		.4byte	.LFE91
 9125 0308 0100     		.2byte	0x1
 9126 030a 56       		.byte	0x56
 9127 030b 00000000 		.4byte	0
 9128 030f 00000000 		.4byte	0
 9129              	.LLST21:
 9130 0313 00000000 		.4byte	.LVL186
 9131 0317 0C000000 		.4byte	.LVL188
 9132 031b 0100     		.2byte	0x1
 9133 031d 50       		.byte	0x50
 9134 031e 0C000000 		.4byte	.LVL188
 9135 0322 28000000 		.4byte	.LFE92
 9136 0326 0400     		.2byte	0x4
 9137 0328 F3       		.byte	0xf3
 9138 0329 01       		.uleb128 0x1
 9139 032a 50       		.byte	0x50
 9140 032b 9F       		.byte	0x9f
 9141 032c 00000000 		.4byte	0
 9142 0330 00000000 		.4byte	0
 9143              	.LLST22:
 9144 0334 00000000 		.4byte	.LVL186
 9145 0338 18000000 		.4byte	.LVL190
 9146 033c 0100     		.2byte	0x1
 9147 033e 51       		.byte	0x51
 9148 033f 18000000 		.4byte	.LVL190
 9149 0343 28000000 		.4byte	.LFE92
 9150 0347 0400     		.2byte	0x4
 9151 0349 F3       		.byte	0xf3
 9152 034a 01       		.uleb128 0x1
 9153 034b 51       		.byte	0x51
 9154 034c 9F       		.byte	0x9f
 9155 034d 00000000 		.4byte	0
 9156 0351 00000000 		.4byte	0
 9157              	.LLST23:
 9158 0355 00000000 		.4byte	.LVL186
 9159 0359 06000000 		.4byte	.LVL187
 9160 035d 0100     		.2byte	0x1
 9161 035f 52       		.byte	0x52
 9162 0360 06000000 		.4byte	.LVL187
 9163 0364 28000000 		.4byte	.LFE92
 9164 0368 0400     		.2byte	0x4
 9165 036a F3       		.byte	0xf3
ARM GAS  C:\Users\hejmi\AppData\Local\Temp\ccFM6jcL.s 			page 176


 9166 036b 01       		.uleb128 0x1
 9167 036c 52       		.byte	0x52
 9168 036d 9F       		.byte	0x9f
 9169 036e 00000000 		.4byte	0
 9170 0372 00000000 		.4byte	0
 9171              	.LLST24:
 9172 0376 12000000 		.4byte	.LVL189
 9173 037a 1C000000 		.4byte	.LVL191
 9174 037e 0100     		.2byte	0x1
 9175 0380 53       		.byte	0x53
 9176 0381 00000000 		.4byte	0
 9177 0385 00000000 		.4byte	0
 9178              	.LLST25:
 9179 0389 00000000 		.4byte	.LVL192
 9180 038d 0F000000 		.4byte	.LVL194-1
 9181 0391 0100     		.2byte	0x1
 9182 0393 50       		.byte	0x50
 9183 0394 0F000000 		.4byte	.LVL194-1
 9184 0398 B0000000 		.4byte	.LFE83
 9185 039c 0100     		.2byte	0x1
 9186 039e 55       		.byte	0x55
 9187 039f 00000000 		.4byte	0
 9188 03a3 00000000 		.4byte	0
 9189              	.LLST26:
 9190 03a7 00000000 		.4byte	.LVL192
 9191 03ab 0C000000 		.4byte	.LVL193
 9192 03af 0100     		.2byte	0x1
 9193 03b1 51       		.byte	0x51
 9194 03b2 0C000000 		.4byte	.LVL193
 9195 03b6 B0000000 		.4byte	.LFE83
 9196 03ba 0100     		.2byte	0x1
 9197 03bc 57       		.byte	0x57
 9198 03bd 00000000 		.4byte	0
 9199 03c1 00000000 		.4byte	0
 9200              	.LLST27:
 9201 03c5 00000000 		.4byte	.LVL192
 9202 03c9 0F000000 		.4byte	.LVL194-1
 9203 03cd 0100     		.2byte	0x1
 9204 03cf 52       		.byte	0x52
 9205 03d0 0F000000 		.4byte	.LVL194-1
 9206 03d4 B0000000 		.4byte	.LFE83
 9207 03d8 0100     		.2byte	0x1
 9208 03da 54       		.byte	0x54
 9209 03db 00000000 		.4byte	0
 9210 03df 00000000 		.4byte	0
 9211              	.LLST28:
 9212 03e3 36000000 		.4byte	.LVL197
 9213 03e7 52000000 		.4byte	.LVL199
 9214 03eb 0200     		.2byte	0x2
 9215 03ed 30       		.byte	0x30
 9216 03ee 9F       		.byte	0x9f
 9217 03ef 52000000 		.4byte	.LVL199
 9218 03f3 59000000 		.4byte	.LVL200-1
 9219 03f7 0100     		.2byte	0x1
 9220 03f9 51       		.byte	0x51
 9221 03fa 8C000000 		.4byte	.LVL204
 9222 03fe 93000000 		.4byte	.LVL205-1
ARM GAS  C:\Users\hejmi\AppData\Local\Temp\ccFM6jcL.s 			page 177


 9223 0402 0100     		.2byte	0x1
 9224 0404 51       		.byte	0x51
 9225 0405 00000000 		.4byte	0
 9226 0409 00000000 		.4byte	0
 9227              	.LLST29:
 9228 040d 00000000 		.4byte	.LVL207
 9229 0411 0B000000 		.4byte	.LVL209-1
 9230 0415 0100     		.2byte	0x1
 9231 0417 50       		.byte	0x50
 9232 0418 0B000000 		.4byte	.LVL209-1
 9233 041c 6A000000 		.4byte	.LFE81
 9234 0420 0100     		.2byte	0x1
 9235 0422 54       		.byte	0x54
 9236 0423 00000000 		.4byte	0
 9237 0427 00000000 		.4byte	0
 9238              	.LLST30:
 9239 042b 06000000 		.4byte	.LVL208
 9240 042f 22000000 		.4byte	.LVL211
 9241 0433 0400     		.2byte	0x4
 9242 0435 0A       		.byte	0xa
 9243 0436 360B     		.2byte	0xb36
 9244 0438 9F       		.byte	0x9f
 9245 0439 22000000 		.4byte	.LVL211
 9246 043d 24000000 		.4byte	.LVL212
 9247 0441 0100     		.2byte	0x1
 9248 0443 50       		.byte	0x50
 9249 0444 24000000 		.4byte	.LVL212
 9250 0448 28000000 		.4byte	.LVL213
 9251 044c 0400     		.2byte	0x4
 9252 044e 0A       		.byte	0xa
 9253 044f 360B     		.2byte	0xb36
 9254 0451 9F       		.byte	0x9f
 9255 0452 28000000 		.4byte	.LVL213
 9256 0456 44000000 		.4byte	.LVL215
 9257 045a 0100     		.2byte	0x1
 9258 045c 50       		.byte	0x50
 9259 045d 48000000 		.4byte	.LVL216
 9260 0461 52000000 		.4byte	.LVL217
 9261 0465 0100     		.2byte	0x1
 9262 0467 50       		.byte	0x50
 9263 0468 56000000 		.4byte	.LVL218
 9264 046c 60000000 		.4byte	.LVL219
 9265 0470 0100     		.2byte	0x1
 9266 0472 50       		.byte	0x50
 9267 0473 64000000 		.4byte	.LVL220
 9268 0477 6A000000 		.4byte	.LFE81
 9269 047b 0100     		.2byte	0x1
 9270 047d 50       		.byte	0x50
 9271 047e 00000000 		.4byte	0
 9272 0482 00000000 		.4byte	0
 9273              	.LLST31:
 9274 0486 00000000 		.4byte	.LVL221
 9275 048a 0C000000 		.4byte	.LVL223
 9276 048e 0100     		.2byte	0x1
 9277 0490 50       		.byte	0x50
 9278 0491 0C000000 		.4byte	.LVL223
 9279 0495 2C000000 		.4byte	.LFE93
ARM GAS  C:\Users\hejmi\AppData\Local\Temp\ccFM6jcL.s 			page 178


 9280 0499 0400     		.2byte	0x4
 9281 049b F3       		.byte	0xf3
 9282 049c 01       		.uleb128 0x1
 9283 049d 50       		.byte	0x50
 9284 049e 9F       		.byte	0x9f
 9285 049f 00000000 		.4byte	0
 9286 04a3 00000000 		.4byte	0
 9287              	.LLST32:
 9288 04a7 00000000 		.4byte	.LVL221
 9289 04ab 1C000000 		.4byte	.LVL225
 9290 04af 0100     		.2byte	0x1
 9291 04b1 51       		.byte	0x51
 9292 04b2 1C000000 		.4byte	.LVL225
 9293 04b6 2C000000 		.4byte	.LFE93
 9294 04ba 0400     		.2byte	0x4
 9295 04bc F3       		.byte	0xf3
 9296 04bd 01       		.uleb128 0x1
 9297 04be 51       		.byte	0x51
 9298 04bf 9F       		.byte	0x9f
 9299 04c0 00000000 		.4byte	0
 9300 04c4 00000000 		.4byte	0
 9301              	.LLST33:
 9302 04c8 00000000 		.4byte	.LVL221
 9303 04cc 06000000 		.4byte	.LVL222
 9304 04d0 0100     		.2byte	0x1
 9305 04d2 52       		.byte	0x52
 9306 04d3 06000000 		.4byte	.LVL222
 9307 04d7 2C000000 		.4byte	.LFE93
 9308 04db 0400     		.2byte	0x4
 9309 04dd F3       		.byte	0xf3
 9310 04de 01       		.uleb128 0x1
 9311 04df 52       		.byte	0x52
 9312 04e0 9F       		.byte	0x9f
 9313 04e1 00000000 		.4byte	0
 9314 04e5 00000000 		.4byte	0
 9315              	.LLST34:
 9316 04e9 12000000 		.4byte	.LVL224
 9317 04ed 20000000 		.4byte	.LVL226
 9318 04f1 0100     		.2byte	0x1
 9319 04f3 50       		.byte	0x50
 9320 04f4 00000000 		.4byte	0
 9321 04f8 00000000 		.4byte	0
 9322              	.LLST35:
 9323 04fc 00000000 		.4byte	.LVL227
 9324 0500 13000000 		.4byte	.LVL229-1
 9325 0504 0100     		.2byte	0x1
 9326 0506 50       		.byte	0x50
 9327 0507 13000000 		.4byte	.LVL229-1
 9328 050b 52000000 		.4byte	.LFE94
 9329 050f 0100     		.2byte	0x1
 9330 0511 54       		.byte	0x54
 9331 0512 00000000 		.4byte	0
 9332 0516 00000000 		.4byte	0
 9333              	.LLST36:
 9334 051a 00000000 		.4byte	.LVL227
 9335 051e 10000000 		.4byte	.LVL228
 9336 0522 0100     		.2byte	0x1
ARM GAS  C:\Users\hejmi\AppData\Local\Temp\ccFM6jcL.s 			page 179


 9337 0524 51       		.byte	0x51
 9338 0525 10000000 		.4byte	.LVL228
 9339 0529 52000000 		.4byte	.LFE94
 9340 052d 0400     		.2byte	0x4
 9341 052f F3       		.byte	0xf3
 9342 0530 01       		.uleb128 0x1
 9343 0531 51       		.byte	0x51
 9344 0532 9F       		.byte	0x9f
 9345 0533 00000000 		.4byte	0
 9346 0537 00000000 		.4byte	0
 9347              	.LLST37:
 9348 053b 00000000 		.4byte	.LVL233
 9349 053f 0D000000 		.4byte	.LVL234-1
 9350 0543 0100     		.2byte	0x1
 9351 0545 50       		.byte	0x50
 9352 0546 0D000000 		.4byte	.LVL234-1
 9353 054a 42000000 		.4byte	.LFE78
 9354 054e 0100     		.2byte	0x1
 9355 0550 54       		.byte	0x54
 9356 0551 00000000 		.4byte	0
 9357 0555 00000000 		.4byte	0
 9358              	.LLST38:
 9359 0559 00000000 		.4byte	.LVL239
 9360 055d 06000000 		.4byte	.LVL241
 9361 0561 0100     		.2byte	0x1
 9362 0563 50       		.byte	0x50
 9363 0564 06000000 		.4byte	.LVL241
 9364 0568 1E000000 		.4byte	.LVL247
 9365 056c 0400     		.2byte	0x4
 9366 056e F3       		.byte	0xf3
 9367 056f 01       		.uleb128 0x1
 9368 0570 50       		.byte	0x50
 9369 0571 9F       		.byte	0x9f
 9370 0572 1E000000 		.4byte	.LVL247
 9371 0576 20000000 		.4byte	.LVL248
 9372 057a 0100     		.2byte	0x1
 9373 057c 50       		.byte	0x50
 9374 057d 20000000 		.4byte	.LVL248
 9375 0581 22000000 		.4byte	.LFE95
 9376 0585 0400     		.2byte	0x4
 9377 0587 F3       		.byte	0xf3
 9378 0588 01       		.uleb128 0x1
 9379 0589 50       		.byte	0x50
 9380 058a 9F       		.byte	0x9f
 9381 058b 00000000 		.4byte	0
 9382 058f 00000000 		.4byte	0
 9383              	.LLST39:
 9384 0593 00000000 		.4byte	.LVL239
 9385 0597 04000000 		.4byte	.LVL240
 9386 059b 0100     		.2byte	0x1
 9387 059d 51       		.byte	0x51
 9388 059e 04000000 		.4byte	.LVL240
 9389 05a2 1E000000 		.4byte	.LVL247
 9390 05a6 0400     		.2byte	0x4
 9391 05a8 F3       		.byte	0xf3
 9392 05a9 01       		.uleb128 0x1
 9393 05aa 51       		.byte	0x51
ARM GAS  C:\Users\hejmi\AppData\Local\Temp\ccFM6jcL.s 			page 180


 9394 05ab 9F       		.byte	0x9f
 9395 05ac 1E000000 		.4byte	.LVL247
 9396 05b0 22000000 		.4byte	.LFE95
 9397 05b4 0100     		.2byte	0x1
 9398 05b6 51       		.byte	0x51
 9399 05b7 00000000 		.4byte	0
 9400 05bb 00000000 		.4byte	0
 9401              	.LLST40:
 9402 05bf 00000000 		.4byte	.LVL239
 9403 05c3 04000000 		.4byte	.LVL240
 9404 05c7 0200     		.2byte	0x2
 9405 05c9 30       		.byte	0x30
 9406 05ca 9F       		.byte	0x9f
 9407 05cb 04000000 		.4byte	.LVL240
 9408 05cf 16000000 		.4byte	.LVL245
 9409 05d3 0100     		.2byte	0x1
 9410 05d5 51       		.byte	0x51
 9411 05d6 1E000000 		.4byte	.LVL247
 9412 05da 22000000 		.4byte	.LFE95
 9413 05de 0200     		.2byte	0x2
 9414 05e0 30       		.byte	0x30
 9415 05e1 9F       		.byte	0x9f
 9416 05e2 00000000 		.4byte	0
 9417 05e6 00000000 		.4byte	0
 9418              	.LLST41:
 9419 05ea 00000000 		.4byte	.LVL239
 9420 05ee 06000000 		.4byte	.LVL241
 9421 05f2 0200     		.2byte	0x2
 9422 05f4 30       		.byte	0x30
 9423 05f5 9F       		.byte	0x9f
 9424 05f6 06000000 		.4byte	.LVL241
 9425 05fa 10000000 		.4byte	.LVL243
 9426 05fe 0100     		.2byte	0x1
 9427 0600 50       		.byte	0x50
 9428 0601 12000000 		.4byte	.LVL244
 9429 0605 1A000000 		.4byte	.LVL246
 9430 0609 0100     		.2byte	0x1
 9431 060b 50       		.byte	0x50
 9432 060c 1E000000 		.4byte	.LVL247
 9433 0610 22000000 		.4byte	.LFE95
 9434 0614 0200     		.2byte	0x2
 9435 0616 30       		.byte	0x30
 9436 0617 9F       		.byte	0x9f
 9437 0618 00000000 		.4byte	0
 9438 061c 00000000 		.4byte	0
 9439              	.LLST42:
 9440 0620 00000000 		.4byte	.LVL249
 9441 0624 15000000 		.4byte	.LVL253-1
 9442 0628 0100     		.2byte	0x1
 9443 062a 50       		.byte	0x50
 9444 062b 15000000 		.4byte	.LVL253-1
 9445 062f AE000000 		.4byte	.LVL273
 9446 0633 0100     		.2byte	0x1
 9447 0635 54       		.byte	0x54
 9448 0636 AE000000 		.4byte	.LVL273
 9449 063a B2000000 		.4byte	.LVL274
 9450 063e 0100     		.2byte	0x1
ARM GAS  C:\Users\hejmi\AppData\Local\Temp\ccFM6jcL.s 			page 181


 9451 0640 50       		.byte	0x50
 9452 0641 B2000000 		.4byte	.LVL274
 9453 0645 B4000000 		.4byte	.LVL275
 9454 0649 0100     		.2byte	0x1
 9455 064b 54       		.byte	0x54
 9456 064c B4000000 		.4byte	.LVL275
 9457 0650 BA000000 		.4byte	.LFE80
 9458 0654 0400     		.2byte	0x4
 9459 0656 F3       		.byte	0xf3
 9460 0657 01       		.uleb128 0x1
 9461 0658 50       		.byte	0x50
 9462 0659 9F       		.byte	0x9f
 9463 065a 00000000 		.4byte	0
 9464 065e 00000000 		.4byte	0
 9465              	.LLST43:
 9466 0662 00000000 		.4byte	.LVL249
 9467 0666 12000000 		.4byte	.LVL252
 9468 066a 0100     		.2byte	0x1
 9469 066c 51       		.byte	0x51
 9470 066d 12000000 		.4byte	.LVL252
 9471 0671 AE000000 		.4byte	.LVL273
 9472 0675 0100     		.2byte	0x1
 9473 0677 56       		.byte	0x56
 9474 0678 AE000000 		.4byte	.LVL273
 9475 067c B2000000 		.4byte	.LVL274
 9476 0680 0100     		.2byte	0x1
 9477 0682 51       		.byte	0x51
 9478 0683 B2000000 		.4byte	.LVL274
 9479 0687 B4000000 		.4byte	.LVL275
 9480 068b 0100     		.2byte	0x1
 9481 068d 56       		.byte	0x56
 9482 068e B4000000 		.4byte	.LVL275
 9483 0692 BA000000 		.4byte	.LFE80
 9484 0696 0400     		.2byte	0x4
 9485 0698 F3       		.byte	0xf3
 9486 0699 01       		.uleb128 0x1
 9487 069a 51       		.byte	0x51
 9488 069b 9F       		.byte	0x9f
 9489 069c 00000000 		.4byte	0
 9490 06a0 00000000 		.4byte	0
 9491              	.LLST44:
 9492 06a4 10000000 		.4byte	.LVL251
 9493 06a8 2C000000 		.4byte	.LVL255
 9494 06ac 0400     		.2byte	0x4
 9495 06ae 0A       		.byte	0xa
 9496 06af E808     		.2byte	0x8e8
 9497 06b1 9F       		.byte	0x9f
 9498 06b2 2C000000 		.4byte	.LVL255
 9499 06b6 2E000000 		.4byte	.LVL256
 9500 06ba 0100     		.2byte	0x1
 9501 06bc 53       		.byte	0x53
 9502 06bd 2E000000 		.4byte	.LVL256
 9503 06c1 32000000 		.4byte	.LVL257
 9504 06c5 0400     		.2byte	0x4
 9505 06c7 0A       		.byte	0xa
 9506 06c8 E808     		.2byte	0x8e8
 9507 06ca 9F       		.byte	0x9f
ARM GAS  C:\Users\hejmi\AppData\Local\Temp\ccFM6jcL.s 			page 182


 9508 06cb 32000000 		.4byte	.LVL257
 9509 06cf 4E000000 		.4byte	.LVL259
 9510 06d3 0100     		.2byte	0x1
 9511 06d5 53       		.byte	0x53
 9512 06d6 52000000 		.4byte	.LVL260
 9513 06da 5C000000 		.4byte	.LVL261
 9514 06de 0100     		.2byte	0x1
 9515 06e0 53       		.byte	0x53
 9516 06e1 60000000 		.4byte	.LVL262
 9517 06e5 6A000000 		.4byte	.LVL263
 9518 06e9 0100     		.2byte	0x1
 9519 06eb 53       		.byte	0x53
 9520 06ec 6A000000 		.4byte	.LVL263
 9521 06f0 78000000 		.4byte	.LVL265
 9522 06f4 0100     		.2byte	0x1
 9523 06f6 51       		.byte	0x51
 9524 06f7 78000000 		.4byte	.LVL265
 9525 06fb 7D000000 		.4byte	.LVL266-1
 9526 06ff 0400     		.2byte	0x4
 9527 0701 73       		.byte	0x73
 9528 0702 A604     		.sleb128 550
 9529 0704 9F       		.byte	0x9f
 9530 0705 B2000000 		.4byte	.LVL274
 9531 0709 B4000000 		.4byte	.LVL275
 9532 070d 0100     		.2byte	0x1
 9533 070f 53       		.byte	0x53
 9534 0710 00000000 		.4byte	0
 9535 0714 00000000 		.4byte	0
 9536              	.LLST45:
 9537 0718 72000000 		.4byte	.LVL264
 9538 071c 78000000 		.4byte	.LVL265
 9539 0720 0600     		.2byte	0x6
 9540 0722 76       		.byte	0x76
 9541 0723 00       		.sleb128 0
 9542 0724 71       		.byte	0x71
 9543 0725 00       		.sleb128 0
 9544 0726 1C       		.byte	0x1c
 9545 0727 9F       		.byte	0x9f
 9546 0728 78000000 		.4byte	.LVL265
 9547 072c 7D000000 		.4byte	.LVL266-1
 9548 0730 0100     		.2byte	0x1
 9549 0732 51       		.byte	0x51
 9550 0733 00000000 		.4byte	0
 9551 0737 00000000 		.4byte	0
 9552              	.LLST46:
 9553 073b 80000000 		.4byte	.LVL267
 9554 073f 88000000 		.4byte	.LVL268
 9555 0743 0100     		.2byte	0x1
 9556 0745 51       		.byte	0x51
 9557 0746 8A000000 		.4byte	.LVL269
 9558 074a 8F000000 		.4byte	.LVL270-1
 9559 074e 0100     		.2byte	0x1
 9560 0750 51       		.byte	0x51
 9561 0751 00000000 		.4byte	0
 9562 0755 00000000 		.4byte	0
 9563              	.LLST47:
 9564 0759 90000000 		.4byte	.LVL270
ARM GAS  C:\Users\hejmi\AppData\Local\Temp\ccFM6jcL.s 			page 183


 9565 075d 96000000 		.4byte	.LVL271
 9566 0761 0100     		.2byte	0x1
 9567 0763 50       		.byte	0x50
 9568 0764 00000000 		.4byte	0
 9569 0768 00000000 		.4byte	0
 9570              	.LLST48:
 9571 076c 00000000 		.4byte	.LVL276
 9572 0770 11000000 		.4byte	.LVL277-1
 9573 0774 0100     		.2byte	0x1
 9574 0776 50       		.byte	0x50
 9575 0777 11000000 		.4byte	.LVL277-1
 9576 077b FC000000 		.4byte	.LFE79
 9577 077f 0100     		.2byte	0x1
 9578 0781 54       		.byte	0x54
 9579 0782 00000000 		.4byte	0
 9580 0786 00000000 		.4byte	0
 9581              	.LLST49:
 9582 078a 6E000000 		.4byte	.LVL284
 9583 078e F8000000 		.4byte	.LVL298
 9584 0792 0100     		.2byte	0x1
 9585 0794 56       		.byte	0x56
 9586 0795 00000000 		.4byte	0
 9587 0799 00000000 		.4byte	0
 9588              	.LLST50:
 9589 079d 6E000000 		.4byte	.LVL284
 9590 07a1 72000000 		.4byte	.LVL285
 9591 07a5 0200     		.2byte	0x2
 9592 07a7 30       		.byte	0x30
 9593 07a8 9F       		.byte	0x9f
 9594 07a9 72000000 		.4byte	.LVL285
 9595 07ad B8000000 		.4byte	.LVL286
 9596 07b1 0100     		.2byte	0x1
 9597 07b3 55       		.byte	0x55
 9598 07b4 BA000000 		.4byte	.LVL287
 9599 07b8 E4000000 		.4byte	.LVL295
 9600 07bc 0100     		.2byte	0x1
 9601 07be 55       		.byte	0x55
 9602 07bf 00000000 		.4byte	0
 9603 07c3 00000000 		.4byte	0
 9604              	.LLST51:
 9605 07c7 E4000000 		.4byte	.LVL295
 9606 07cb EC000000 		.4byte	.LVL296
 9607 07cf 0100     		.2byte	0x1
 9608 07d1 50       		.byte	0x50
 9609 07d2 EC000000 		.4byte	.LVL296
 9610 07d6 F8000000 		.4byte	.LVL298
 9611 07da 0100     		.2byte	0x1
 9612 07dc 55       		.byte	0x55
 9613 07dd 00000000 		.4byte	0
 9614 07e1 00000000 		.4byte	0
 9615              	.LLST52:
 9616 07e5 6E000000 		.4byte	.LVL284
 9617 07e9 72000000 		.4byte	.LVL285
 9618 07ed 0200     		.2byte	0x2
 9619 07ef 30       		.byte	0x30
 9620 07f0 9F       		.byte	0x9f
 9621 07f1 72000000 		.4byte	.LVL285
ARM GAS  C:\Users\hejmi\AppData\Local\Temp\ccFM6jcL.s 			page 184


 9622 07f5 BC000000 		.4byte	.LVL288
 9623 07f9 0100     		.2byte	0x1
 9624 07fb 53       		.byte	0x53
 9625 07fc BE000000 		.4byte	.LVL289
 9626 0800 C4000000 		.4byte	.LVL290
 9627 0804 0100     		.2byte	0x1
 9628 0806 53       		.byte	0x53
 9629 0807 00000000 		.4byte	0
 9630 080b 00000000 		.4byte	0
 9631              	.LLST53:
 9632 080f 00000000 		.4byte	.LVL299
 9633 0813 09000000 		.4byte	.LVL300-1
 9634 0817 0100     		.2byte	0x1
 9635 0819 50       		.byte	0x50
 9636 081a 09000000 		.4byte	.LVL300-1
 9637 081e 22000000 		.4byte	.LFE77
 9638 0822 0100     		.2byte	0x1
 9639 0824 54       		.byte	0x54
 9640 0825 00000000 		.4byte	0
 9641 0829 00000000 		.4byte	0
 9642              	.LLST54:
 9643 082d 00000000 		.4byte	.LVL299
 9644 0831 09000000 		.4byte	.LVL300-1
 9645 0835 0100     		.2byte	0x1
 9646 0837 51       		.byte	0x51
 9647 0838 09000000 		.4byte	.LVL300-1
 9648 083c 22000000 		.4byte	.LFE77
 9649 0840 0400     		.2byte	0x4
 9650 0842 F3       		.byte	0xf3
 9651 0843 01       		.uleb128 0x1
 9652 0844 51       		.byte	0x51
 9653 0845 9F       		.byte	0x9f
 9654 0846 00000000 		.4byte	0
 9655 084a 00000000 		.4byte	0
 9656              		.section	.debug_aranges,"",%progbits
 9657 0000 C4000000 		.4byte	0xc4
 9658 0004 0200     		.2byte	0x2
 9659 0006 00000000 		.4byte	.Ldebug_info0
 9660 000a 04       		.byte	0x4
 9661 000b 00       		.byte	0
 9662 000c 0000     		.2byte	0
 9663 000e 0000     		.2byte	0
 9664 0010 00000000 		.4byte	.LFB74
 9665 0014 CA000000 		.4byte	.LFE74-.LFB74
 9666 0018 00000000 		.4byte	.LFB75
 9667 001c 4C000000 		.4byte	.LFE75-.LFB75
 9668 0020 00000000 		.4byte	.LFB76
 9669 0024 56000000 		.4byte	.LFE76-.LFB76
 9670 0028 00000000 		.4byte	.LFB82
 9671 002c 36000000 		.4byte	.LFE82-.LFB82
 9672 0030 00000000 		.4byte	.LFB84
 9673 0034 0E000000 		.4byte	.LFE84-.LFB84
 9674 0038 00000000 		.4byte	.LFB85
 9675 003c 48000000 		.4byte	.LFE85-.LFB85
 9676 0040 00000000 		.4byte	.LFB86
 9677 0044 C4030000 		.4byte	.LFE86-.LFB86
 9678 0048 00000000 		.4byte	.LFB87
ARM GAS  C:\Users\hejmi\AppData\Local\Temp\ccFM6jcL.s 			page 185


 9679 004c 40000000 		.4byte	.LFE87-.LFB87
 9680 0050 00000000 		.4byte	.LFB89
 9681 0054 66000000 		.4byte	.LFE89-.LFB89
 9682 0058 00000000 		.4byte	.LFB90
 9683 005c 68000000 		.4byte	.LFE90-.LFB90
 9684 0060 00000000 		.4byte	.LFB88
 9685 0064 66000000 		.4byte	.LFE88-.LFB88
 9686 0068 00000000 		.4byte	.LFB91
 9687 006c 48010000 		.4byte	.LFE91-.LFB91
 9688 0070 00000000 		.4byte	.LFB92
 9689 0074 28000000 		.4byte	.LFE92-.LFB92
 9690 0078 00000000 		.4byte	.LFB83
 9691 007c B0000000 		.4byte	.LFE83-.LFB83
 9692 0080 00000000 		.4byte	.LFB81
 9693 0084 6A000000 		.4byte	.LFE81-.LFB81
 9694 0088 00000000 		.4byte	.LFB93
 9695 008c 2C000000 		.4byte	.LFE93-.LFB93
 9696 0090 00000000 		.4byte	.LFB94
 9697 0094 52000000 		.4byte	.LFE94-.LFB94
 9698 0098 00000000 		.4byte	.LFB78
 9699 009c 42000000 		.4byte	.LFE78-.LFB78
 9700 00a0 00000000 		.4byte	.LFB95
 9701 00a4 22000000 		.4byte	.LFE95-.LFB95
 9702 00a8 00000000 		.4byte	.LFB80
 9703 00ac BA000000 		.4byte	.LFE80-.LFB80
 9704 00b0 00000000 		.4byte	.LFB79
 9705 00b4 FC000000 		.4byte	.LFE79-.LFB79
 9706 00b8 00000000 		.4byte	.LFB77
 9707 00bc 22000000 		.4byte	.LFE77-.LFB77
 9708 00c0 00000000 		.4byte	0
 9709 00c4 00000000 		.4byte	0
 9710              		.section	.debug_ranges,"",%progbits
 9711              	.Ldebug_ranges0:
 9712 0000 6E000000 		.4byte	.LBB8
 9713 0004 70000000 		.4byte	.LBE8
 9714 0008 72000000 		.4byte	.LBB9
 9715 000c C0000000 		.4byte	.LBE9
 9716 0010 00000000 		.4byte	0
 9717 0014 00000000 		.4byte	0
 9718 0018 00000000 		.4byte	.LFB74
 9719 001c CA000000 		.4byte	.LFE74
 9720 0020 00000000 		.4byte	.LFB75
 9721 0024 4C000000 		.4byte	.LFE75
 9722 0028 00000000 		.4byte	.LFB76
 9723 002c 56000000 		.4byte	.LFE76
 9724 0030 00000000 		.4byte	.LFB82
 9725 0034 36000000 		.4byte	.LFE82
 9726 0038 00000000 		.4byte	.LFB84
 9727 003c 0E000000 		.4byte	.LFE84
 9728 0040 00000000 		.4byte	.LFB85
 9729 0044 48000000 		.4byte	.LFE85
 9730 0048 00000000 		.4byte	.LFB86
 9731 004c C4030000 		.4byte	.LFE86
 9732 0050 00000000 		.4byte	.LFB87
 9733 0054 40000000 		.4byte	.LFE87
 9734 0058 00000000 		.4byte	.LFB89
 9735 005c 66000000 		.4byte	.LFE89
ARM GAS  C:\Users\hejmi\AppData\Local\Temp\ccFM6jcL.s 			page 186


 9736 0060 00000000 		.4byte	.LFB90
 9737 0064 68000000 		.4byte	.LFE90
 9738 0068 00000000 		.4byte	.LFB88
 9739 006c 66000000 		.4byte	.LFE88
 9740 0070 00000000 		.4byte	.LFB91
 9741 0074 48010000 		.4byte	.LFE91
 9742 0078 00000000 		.4byte	.LFB92
 9743 007c 28000000 		.4byte	.LFE92
 9744 0080 00000000 		.4byte	.LFB83
 9745 0084 B0000000 		.4byte	.LFE83
 9746 0088 00000000 		.4byte	.LFB81
 9747 008c 6A000000 		.4byte	.LFE81
 9748 0090 00000000 		.4byte	.LFB93
 9749 0094 2C000000 		.4byte	.LFE93
 9750 0098 00000000 		.4byte	.LFB94
 9751 009c 52000000 		.4byte	.LFE94
 9752 00a0 00000000 		.4byte	.LFB78
 9753 00a4 42000000 		.4byte	.LFE78
 9754 00a8 00000000 		.4byte	.LFB95
 9755 00ac 22000000 		.4byte	.LFE95
 9756 00b0 00000000 		.4byte	.LFB80
 9757 00b4 BA000000 		.4byte	.LFE80
 9758 00b8 00000000 		.4byte	.LFB79
 9759 00bc FC000000 		.4byte	.LFE79
 9760 00c0 00000000 		.4byte	.LFB77
 9761 00c4 22000000 		.4byte	.LFE77
 9762 00c8 00000000 		.4byte	0
 9763 00cc 00000000 		.4byte	0
 9764              		.section	.debug_line,"",%progbits
 9765              	.Ldebug_line0:
 9766 0000 38040000 		.section	.debug_str,"MS",%progbits,1
 9766      02006301 
 9766      00000201 
 9766      FB0E0D00 
 9766      01010101 
 9767              	.LASF48:
 9768 0000 66696E61 		.ascii	"final_range_us\000"
 9768      6C5F7261 
 9768      6E67655F 
 9768      757300
 9769              	.LASF146:
 9770 000f 6D735F62 		.ascii	"ms_byte\000"
 9770      79746500 
 9771              	.LASF134:
 9772 0017 53746172 		.ascii	"StartOverhead\000"
 9772      744F7665 
 9772      72686561 
 9772      6400
 9773              	.LASF109:
 9774 0025 70657266 		.ascii	"performSingleRefCalibration\000"
 9774      6F726D53 
 9774      696E676C 
 9774      65526566 
 9774      43616C69 
 9775              	.LASF130:
 9776 0041 6D616372 		.ascii	"macro_period_ns\000"
 9776      6F5F7065 
ARM GAS  C:\Users\hejmi\AppData\Local\Temp\ccFM6jcL.s 			page 187


 9776      72696F64 
 9776      5F6E7300 
 9777              	.LASF96:
 9778 0051 5F5A4E35 		.ascii	"_ZN5Laser11getSpadInfoEPhPb\000"
 9778      4C617365 
 9778      72313167 
 9778      65745370 
 9778      6164496E 
 9779              	.LASF121:
 9780 006d 746D7064 		.ascii	"tmpdata\000"
 9780      61746100 
 9781              	.LASF158:
 9782 0075 433A5C55 		.ascii	"C:\\Users\\hejmi\\Documents\\PSoC Creator\\LaserDri"
 9782      73657273 
 9782      5C68656A 
 9782      6D695C44 
 9782      6F63756D 
 9783 00a3 7665725C 		.ascii	"ver\\LaserDriver.cydsn\000"
 9783      4C617365 
 9783      72447269 
 9783      7665722E 
 9783      63796473 
 9784              	.LASF155:
 9785 00b9 73706164 		.ascii	"spads_enabled\000"
 9785      735F656E 
 9785      61626C65 
 9785      6400
 9786              	.LASF135:
 9787 00c7 456E644F 		.ascii	"EndOverhead\000"
 9787      76657268 
 9787      65616400 
 9788              	.LASF40:
 9789 00d3 53657175 		.ascii	"SequenceStepTimeouts\000"
 9789      656E6365 
 9789      53746570 
 9789      54696D65 
 9789      6F757473 
 9790              	.LASF13:
 9791 00e8 756E7369 		.ascii	"unsigned int\000"
 9791      676E6564 
 9791      20696E74 
 9791      00
 9792              	.LASF131:
 9793 00f5 74696D65 		.ascii	"timeouts\000"
 9793      6F757473 
 9793      00
 9794              	.LASF7:
 9795 00fe 5F5F696E 		.ascii	"__int32_t\000"
 9795      7433325F 
 9795      7400
 9796              	.LASF105:
 9797 0108 52656164 		.ascii	"ReadByte16bits\000"
 9797      42797465 
 9797      31366269 
 9797      747300
 9798              	.LASF26:
 9799 0117 5F5A4E33 		.ascii	"_ZN3i2c10WriteBytesEhhhPh\000"
ARM GAS  C:\Users\hejmi\AppData\Local\Temp\ccFM6jcL.s 			page 188


 9799      69326331 
 9799      30577269 
 9799      74654279 
 9799      74657345 
 9800              	.LASF136:
 9801 0131 4D737263 		.ascii	"MsrcOverhead\000"
 9801      4F766572 
 9801      68656164 
 9801      00
 9802              	.LASF157:
 9803 013e 4C617365 		.ascii	"Laser.c\000"
 9803      722E6300 
 9804              	.LASF50:
 9805 0146 56637365 		.ascii	"VcselPeriodFinalRange\000"
 9805      6C506572 
 9805      696F6446 
 9805      696E616C 
 9805      52616E67 
 9806              	.LASF36:
 9807 015c 7072655F 		.ascii	"pre_range\000"
 9807      72616E67 
 9807      6500
 9808              	.LASF25:
 9809 0166 57726974 		.ascii	"WriteBytes\000"
 9809      65427974 
 9809      657300
 9810              	.LASF110:
 9811 0171 5F5A4E35 		.ascii	"_ZN5Laser27performSingleRefCalibrationEh\000"
 9811      4C617365 
 9811      72323770 
 9811      6572666F 
 9811      726D5369 
 9812              	.LASF132:
 9813 019a 746D7031 		.ascii	"tmp16bit\000"
 9813      36626974 
 9813      00
 9814              	.LASF68:
 9815 01a3 5F5A4E35 		.ascii	"_ZN5Laser30ReadRangeContinuousMillimetersEv\000"
 9815      4C617365 
 9815      72333052 
 9815      65616452 
 9815      616E6765 
 9816              	.LASF53:
 9817 01cf 6465765F 		.ascii	"dev_\000"
 9817      00
 9818              	.LASF144:
 9819 01d4 74696D65 		.ascii	"timeout_mclks\000"
 9819      6F75745F 
 9819      6D636C6B 
 9819      7300
 9820              	.LASF128:
 9821 01e2 74696D65 		.ascii	"timeout_period_mclks\000"
 9821      6F75745F 
 9821      70657269 
 9821      6F645F6D 
 9821      636C6B73 
 9822              	.LASF17:
ARM GAS  C:\Users\hejmi\AppData\Local\Temp\ccFM6jcL.s 			page 189


 9823 01f7 75696E74 		.ascii	"uint32_t\000"
 9823      33325F74 
 9823      00
 9824              	.LASF83:
 9825 0200 67657453 		.ascii	"getSequenceStepTimeouts\000"
 9825      65717565 
 9825      6E636553 
 9825      74657054 
 9825      696D656F 
 9826              	.LASF99:
 9827 0218 7365744D 		.ascii	"setMeasurementTimingBudget\000"
 9827      65617375 
 9827      72656D65 
 9827      6E745469 
 9827      6D696E67 
 9828              	.LASF0:
 9829 0233 666C6F61 		.ascii	"float\000"
 9829      7400
 9830              	.LASF112:
 9831 0239 6F73635F 		.ascii	"osc_calibrate_val\000"
 9831      63616C69 
 9831      62726174 
 9831      655F7661 
 9831      6C00
 9832              	.LASF22:
 9833 024b 52656164 		.ascii	"ReadByte\000"
 9833      42797465 
 9833      00
 9834              	.LASF143:
 9835 0254 7668765F 		.ascii	"vhv_init_byte\000"
 9835      696E6974 
 9835      5F627974 
 9835      6500
 9836              	.LASF126:
 9837 0262 636F756E 		.ascii	"count\000"
 9837      7400
 9838              	.LASF101:
 9839 0268 50657266 		.ascii	"PerformRefCalibration\000"
 9839      6F726D52 
 9839      65664361 
 9839      6C696272 
 9839      6174696F 
 9840              	.LASF73:
 9841 027e 49324349 		.ascii	"I2CInit\000"
 9841      6E697400 
 9842              	.LASF12:
 9843 0286 6C6F6E67 		.ascii	"long long unsigned int\000"
 9843      206C6F6E 
 9843      6720756E 
 9843      7369676E 
 9843      65642069 
 9844              	.LASF84:
 9845 029d 5F5A4E35 		.ascii	"_ZN5Laser23getSequenceStepTimeoutsEPK19SequenceStep"
 9845      4C617365 
 9845      72323367 
 9845      65745365 
 9845      7175656E 
ARM GAS  C:\Users\hejmi\AppData\Local\Temp\ccFM6jcL.s 			page 190


 9846 02d0 456E6162 		.ascii	"EnablesP20SequenceStepTimeouts\000"
 9846      6C657350 
 9846      32305365 
 9846      7175656E 
 9846      63655374 
 9847              	.LASF82:
 9848 02ef 5F5A4E35 		.ascii	"_ZN5Laser22getSequenceStepEnablesEP19SequenceStepEn"
 9848      4C617365 
 9848      72323267 
 9848      65745365 
 9848      7175656E 
 9849 0322 61626C65 		.ascii	"ables\000"
 9849      7300
 9850              	.LASF34:
 9851 0328 5F5A4E33 		.ascii	"_ZN3i2c15ReadBytes16bitsEhthPh\000"
 9851      69326331 
 9851      35526561 
 9851      64427974 
 9851      65733136 
 9852              	.LASF39:
 9853 0347 53657175 		.ascii	"SequenceStepEnables\000"
 9853      656E6365 
 9853      53746570 
 9853      456E6162 
 9853      6C657300 
 9854              	.LASF127:
 9855 035b 74797065 		.ascii	"type_is_aperture\000"
 9855      5F69735F 
 9855      61706572 
 9855      74757265 
 9855      00
 9856              	.LASF5:
 9857 036c 5F5F7569 		.ascii	"__uint16_t\000"
 9857      6E743136 
 9857      5F7400
 9858              	.LASF142:
 9859 0377 74696D65 		.ascii	"timeout_period_us\000"
 9859      6F75745F 
 9859      70657269 
 9859      6F645F75 
 9859      7300
 9860              	.LASF37:
 9861 0389 66696E61 		.ascii	"final_range\000"
 9861      6C5F7261 
 9861      6E676500 
 9862              	.LASF97:
 9863 0395 6465636F 		.ascii	"decodeTimeout\000"
 9863      64655469 
 9863      6D656F75 
 9863      7400
 9864              	.LASF69:
 9865 03a3 496E6974 		.ascii	"Init\000"
 9865      00
 9866              	.LASF133:
 9867 03a8 746D7038 		.ascii	"tmp8bit\000"
 9867      62697400 
 9868              	.LASF24:
ARM GAS  C:\Users\hejmi\AppData\Local\Temp\ccFM6jcL.s 			page 191


 9869 03b0 5F5A4E33 		.ascii	"_ZN3i2c8ReadByteEhhPh\000"
 9869      69326338 
 9869      52656164 
 9869      42797465 
 9869      45686850 
 9870              	.LASF119:
 9871 03c6 7265675F 		.ascii	"reg_val\000"
 9871      76616C00 
 9872              	.LASF122:
 9873 03ce 6C696D69 		.ascii	"limit_Mcps\000"
 9873      745F4D63 
 9873      707300
 9874              	.LASF89:
 9875 03d9 74696D65 		.ascii	"timeoutMclksToMicroseconds\000"
 9875      6F75744D 
 9875      636C6B73 
 9875      546F4D69 
 9875      63726F73 
 9876              	.LASF91:
 9877 03f4 74696D65 		.ascii	"timeoutMicrosecondsToMclks\000"
 9877      6F75744D 
 9877      6963726F 
 9877      7365636F 
 9877      6E647354 
 9878              	.LASF43:
 9879 040f 6D737263 		.ascii	"msrc_dss_tcc_mclks\000"
 9879      5F647373 
 9879      5F746363 
 9879      5F6D636C 
 9879      6B7300
 9880              	.LASF29:
 9881 0422 57726974 		.ascii	"WriteBytes16bit\000"
 9881      65427974 
 9881      65733136 
 9881      62697400 
 9882              	.LASF95:
 9883 0432 67657453 		.ascii	"getSpadInfo\000"
 9883      70616449 
 9883      6E666F00 
 9884              	.LASF153:
 9885 043e 7265665F 		.ascii	"ref_spad_map\000"
 9885      73706164 
 9885      5F6D6170 
 9885      00
 9886              	.LASF23:
 9887 044b 5F5A4E33 		.ascii	"_ZN3i2c9ReadBytesEhhhPh\000"
 9887      69326339 
 9887      52656164 
 9887      42797465 
 9887      73456868 
 9888              	.LASF140:
 9889 0463 46696E61 		.ascii	"FinalRangeOverhead\000"
 9889      6C52616E 
 9889      67654F76 
 9889      65726865 
 9889      616400
 9890              	.LASF151:
ARM GAS  C:\Users\hejmi\AppData\Local\Temp\ccFM6jcL.s 			page 192


 9891 0476 73706164 		.ascii	"spad_count\000"
 9891      5F636F75 
 9891      6E7400
 9892              	.LASF19:
 9893 0481 63686172 		.ascii	"char\000"
 9893      00
 9894              	.LASF111:
 9895 0486 746D7061 		.ascii	"tmparr\000"
 9895      727200
 9896              	.LASF21:
 9897 048d 52656164 		.ascii	"ReadBytes\000"
 9897      42797465 
 9897      7300
 9898              	.LASF31:
 9899 0497 57726974 		.ascii	"WriteByte16bit\000"
 9899      65427974 
 9899      65313662 
 9899      697400
 9900              	.LASF75:
 9901 04a6 44617461 		.ascii	"DataInit\000"
 9901      496E6974 
 9901      00
 9902              	.LASF51:
 9903 04af 4C617365 		.ascii	"Laser\000"
 9903      7200
 9904              	.LASF57:
 9905 04b5 5F5A4E35 		.ascii	"_ZN5LaserC4Eh\000"
 9905      4C617365 
 9905      72433445 
 9905      6800
 9906              	.LASF125:
 9907 04c3 64617461 		.ascii	"data\000"
 9907      00
 9908              	.LASF63:
 9909 04c8 53746172 		.ascii	"StartContinuous\000"
 9909      74436F6E 
 9909      74696E75 
 9909      6F757300 
 9910              	.LASF58:
 9911 04d8 5F5A4E35 		.ascii	"_ZN5LaserC4Ev\000"
 9911      4C617365 
 9911      72433445 
 9911      7600
 9912              	.LASF14:
 9913 04e6 75696E74 		.ascii	"uint8_t\000"
 9913      385F7400 
 9914              	.LASF148:
 9915 04ee 75736564 		.ascii	"used_budget_us\000"
 9915      5F627564 
 9915      6765745F 
 9915      757300
 9916              	.LASF159:
 9917 04fd 5F5A4E33 		.ascii	"_ZN3i2cC4Ev\000"
 9917      69326343 
 9917      34457600 
 9918              	.LASF90:
 9919 0509 5F5A4E35 		.ascii	"_ZN5Laser26timeoutMclksToMicrosecondsEth\000"
ARM GAS  C:\Users\hejmi\AppData\Local\Temp\ccFM6jcL.s 			page 193


 9919      4C617365 
 9919      72323674 
 9919      696D656F 
 9919      75744D63 
 9920              	.LASF76:
 9921 0532 5F5A4E35 		.ascii	"_ZN5Laser8DataInitEb\000"
 9921      4C617365 
 9921      72384461 
 9921      7461496E 
 9921      69744562 
 9922              	.LASF33:
 9923 0547 52656164 		.ascii	"ReadBytes16bits\000"
 9923      42797465 
 9923      73313662 
 9923      69747300 
 9924              	.LASF11:
 9925 0557 6C6F6E67 		.ascii	"long long int\000"
 9925      206C6F6E 
 9925      6720696E 
 9925      7400
 9926              	.LASF88:
 9927 0565 5F5A4E35 		.ascii	"_ZN5Laser26getMeasurementTimingBudgetEv\000"
 9927      4C617365 
 9927      72323667 
 9927      65744D65 
 9927      61737572 
 9928              	.LASF118:
 9929 058d 73657175 		.ascii	"sequence_config\000"
 9929      656E6365 
 9929      5F636F6E 
 9929      66696700 
 9930              	.LASF102:
 9931 059d 5F5A4E35 		.ascii	"_ZN5Laser21PerformRefCalibrationEv\000"
 9931      4C617365 
 9931      72323150 
 9931      6572666F 
 9931      726D5265 
 9932              	.LASF38:
 9933 05c0 626F6F6C 		.ascii	"bool\000"
 9933      00
 9934              	.LASF66:
 9935 05c5 5F5A4E35 		.ascii	"_ZN5Laser14StopContinuousEv\000"
 9935      4C617365 
 9935      72313453 
 9935      746F7043 
 9935      6F6E7469 
 9936              	.LASF62:
 9937 05e1 5F5A4E35 		.ascii	"_ZN5Laser10GetTimeoutEv\000"
 9937      4C617365 
 9937      72313047 
 9937      65745469 
 9937      6D656F75 
 9938              	.LASF152:
 9939 05f9 73706164 		.ascii	"spad_type_is_aperture\000"
 9939      5F747970 
 9939      655F6973 
 9939      5F617065 
ARM GAS  C:\Users\hejmi\AppData\Local\Temp\ccFM6jcL.s 			page 194


 9939      72747572 
 9940              	.LASF54:
 9941 060f 6D656173 		.ascii	"measurement_timing_budget_us\000"
 9941      7572656D 
 9941      656E745F 
 9941      74696D69 
 9941      6E675F62 
 9942              	.LASF59:
 9943 062c 53657454 		.ascii	"SetTimeout\000"
 9943      696D656F 
 9943      757400
 9944              	.LASF87:
 9945 0637 6765744D 		.ascii	"getMeasurementTimingBudget\000"
 9945      65617375 
 9945      72656D65 
 9945      6E745469 
 9945      6D696E67 
 9946              	.LASF115:
 9947 0652 72616E67 		.ascii	"range\000"
 9947      6500
 9948              	.LASF79:
 9949 0658 53657447 		.ascii	"SetGpioConfig\000"
 9949      70696F43 
 9949      6F6E6669 
 9949      6700
 9950              	.LASF65:
 9951 0666 53746F70 		.ascii	"StopContinuous\000"
 9951      436F6E74 
 9951      696E756F 
 9951      757300
 9952              	.LASF92:
 9953 0675 5F5A4E35 		.ascii	"_ZN5Laser26timeoutMicrosecondsToMclksEmh\000"
 9953      4C617365 
 9953      72323674 
 9953      696D656F 
 9953      75744D69 
 9954              	.LASF129:
 9955 069e 76637365 		.ascii	"vcsel_period_pclks\000"
 9955      6C5F7065 
 9955      72696F64 
 9955      5F70636C 
 9955      6B7300
 9956              	.LASF86:
 9957 06b1 5F5A4E35 		.ascii	"_ZN5Laser19getVcselPulsePeriodE15vcselPeriodType\000"
 9957      4C617365 
 9957      72313967 
 9957      65745663 
 9957      73656C50 
 9958              	.LASF137:
 9959 06e2 5463634F 		.ascii	"TccOverhead\000"
 9959      76657268 
 9959      65616400 
 9960              	.LASF154:
 9961 06ee 66697273 		.ascii	"first_spad_to_enable\000"
 9961      745F7370 
 9961      61645F74 
 9961      6F5F656E 
ARM GAS  C:\Users\hejmi\AppData\Local\Temp\ccFM6jcL.s 			page 195


 9961      61626C65 
 9962              	.LASF15:
 9963 0703 75696E74 		.ascii	"uint16_t\000"
 9963      31365F74 
 9963      00
 9964              	.LASF94:
 9965 070c 5F5A4E35 		.ascii	"_ZN5Laser18setSignalRateLimitEf\000"
 9965      4C617365 
 9965      72313873 
 9965      65745369 
 9965      676E616C 
 9966              	.LASF113:
 9967 072c 74686973 		.ascii	"this\000"
 9967      00
 9968              	.LASF81:
 9969 0731 67657453 		.ascii	"getSequenceStepEnables\000"
 9969      65717565 
 9969      6E636553 
 9969      74657045 
 9969      6E61626C 
 9970              	.LASF74:
 9971 0748 5F5A4E35 		.ascii	"_ZN5Laser7I2CInitEv\000"
 9971      4C617365 
 9971      72374932 
 9971      43496E69 
 9971      74457600 
 9972              	.LASF35:
 9973 075c 6D737263 		.ascii	"msrc\000"
 9973      00
 9974              	.LASF145:
 9975 0761 6C735F62 		.ascii	"ls_byte\000"
 9975      79746500 
 9976              	.LASF67:
 9977 0769 52656164 		.ascii	"ReadRangeContinuousMillimeters\000"
 9977      52616E67 
 9977      65436F6E 
 9977      74696E75 
 9977      6F75734D 
 9978              	.LASF70:
 9979 0788 5F5A4E35 		.ascii	"_ZN5Laser4InitEb\000"
 9979      4C617365 
 9979      7234496E 
 9979      69744562 
 9979      00
 9980              	.LASF114:
 9981 0799 72616E67 		.ascii	"range8bit\000"
 9981      65386269 
 9981      7400
 9982              	.LASF3:
 9983 07a3 73686F72 		.ascii	"short int\000"
 9983      7420696E 
 9983      7400
 9984              	.LASF117:
 9985 07ad 656E6162 		.ascii	"enables\000"
 9985      6C657300 
 9986              	.LASF8:
 9987 07b5 6C6F6E67 		.ascii	"long int\000"
ARM GAS  C:\Users\hejmi\AppData\Local\Temp\ccFM6jcL.s 			page 196


 9987      20696E74 
 9987      00
 9988              	.LASF93:
 9989 07be 73657453 		.ascii	"setSignalRateLimit\000"
 9989      69676E61 
 9989      6C526174 
 9989      654C696D 
 9989      697400
 9990              	.LASF161:
 9991 07d1 49544D5F 		.ascii	"ITM_RxBuffer\000"
 9991      52784275 
 9991      66666572 
 9991      00
 9992              	.LASF80:
 9993 07de 5F5A4E35 		.ascii	"_ZN5Laser13SetGpioConfigEv\000"
 9993      4C617365 
 9993      72313353 
 9993      65744770 
 9993      696F436F 
 9994              	.LASF52:
 9995 07f9 72616E67 		.ascii	"range_\000"
 9995      655F00
 9996              	.LASF61:
 9997 0800 47657454 		.ascii	"GetTimeout\000"
 9997      696D656F 
 9997      757400
 9998              	.LASF106:
 9999 080b 52656164 		.ascii	"ReadRange\000"
 9999      52616E67 
 9999      6500
 10000              	.LASF138:
 10001 0815 4473734F 		.ascii	"DssOverhead\000"
 10001      76657268 
 10001      65616400 
 10002              	.LASF108:
 10003 0821 5F5A4E35 		.ascii	"_ZN5Laser9ReadRangeEv\000"
 10003      4C617365 
 10003      72395265 
 10003      61645261 
 10003      6E676545 
 10004              	.LASF27:
 10005 0837 57726974 		.ascii	"WriteByte\000"
 10005      65427974 
 10005      6500
 10006              	.LASF4:
 10007 0841 5F5F7569 		.ascii	"__uint8_t\000"
 10007      6E74385F 
 10007      7400
 10008              	.LASF42:
 10009 084b 66696E61 		.ascii	"final_range_vcsel_period_pclks\000"
 10009      6C5F7261 
 10009      6E67655F 
 10009      76637365 
 10009      6C5F7065 
 10010              	.LASF72:
 10011 086a 5F5A4E35 		.ascii	"_ZN5Laser10StaticInitEv\000"
 10011      4C617365 
ARM GAS  C:\Users\hejmi\AppData\Local\Temp\ccFM6jcL.s 			page 197


 10011      72313053 
 10011      74617469 
 10011      63496E69 
 10012              	.LASF150:
 10013 0882 66696E61 		.ascii	"final_range_timeout_mclks\000"
 10013      6C5F7261 
 10013      6E67655F 
 10013      74696D65 
 10013      6F75745F 
 10014              	.LASF49:
 10015 089c 56637365 		.ascii	"VcselPeriodPreRange\000"
 10015      6C506572 
 10015      696F6450 
 10015      72655261 
 10015      6E676500 
 10016              	.LASF20:
 10017 08b0 73697A65 		.ascii	"sizetype\000"
 10017      74797065 
 10017      00
 10018              	.LASF10:
 10019 08b9 6C6F6E67 		.ascii	"long unsigned int\000"
 10019      20756E73 
 10019      69676E65 
 10019      6420696E 
 10019      7400
 10020              	.LASF156:
 10021 08cb 474E5520 		.ascii	"GNU C++ 5.4.1 20160609 (release) [ARM/embedded-5-br"
 10021      432B2B20 
 10021      352E342E 
 10021      31203230 
 10021      31363036 
 10022 08fe 616E6368 		.ascii	"anch revision 237715] -mcpu=cortex-m3 -mthumb -g -O"
 10022      20726576 
 10022      6973696F 
 10022      6E203233 
 10022      37373135 
 10023 0931 67202D66 		.ascii	"g -ffunction-sections -ffat-lto-objects\000"
 10023      66756E63 
 10023      74696F6E 
 10023      2D736563 
 10023      74696F6E 
 10024              	.LASF64:
 10025 0959 5F5A4E35 		.ascii	"_ZN5Laser15StartContinuousEm\000"
 10025      4C617365 
 10025      72313553 
 10025      74617274 
 10025      436F6E74 
 10026              	.LASF56:
 10027 0976 73746F70 		.ascii	"stop_variable\000"
 10027      5F766172 
 10027      6961626C 
 10027      6500
 10028              	.LASF16:
 10029 0984 696E7433 		.ascii	"int32_t\000"
 10029      325F7400 
 10030              	.LASF60:
 10031 098c 5F5A4E35 		.ascii	"_ZN5Laser10SetTimeoutEt\000"
ARM GAS  C:\Users\hejmi\AppData\Local\Temp\ccFM6jcL.s 			page 198


 10031      4C617365 
 10031      72313053 
 10031      65745469 
 10031      6D656F75 
 10032              	.LASF124:
 10033 09a4 696F5F32 		.ascii	"io_2v8\000"
 10033      763800
 10034              	.LASF55:
 10035 09ab 696F5F74 		.ascii	"io_timeout\000"
 10035      696D656F 
 10035      757400
 10036              	.LASF104:
 10037 09b6 5F5A4E35 		.ascii	"_ZN5Laser13encodeTimeoutEt\000"
 10037      4C617365 
 10037      72313365 
 10037      6E636F64 
 10037      6554696D 
 10038              	.LASF120:
 10039 09d1 74797065 		.ascii	"type\000"
 10039      00
 10040              	.LASF44:
 10041 09d6 7072655F 		.ascii	"pre_range_mclks\000"
 10041      72616E67 
 10041      655F6D63 
 10041      6C6B7300 
 10042              	.LASF2:
 10043 09e6 756E7369 		.ascii	"unsigned char\000"
 10043      676E6564 
 10043      20636861 
 10043      7200
 10044              	.LASF9:
 10045 09f4 5F5F7569 		.ascii	"__uint32_t\000"
 10045      6E743332 
 10045      5F7400
 10046              	.LASF123:
 10047 09ff 746D7061 		.ascii	"tmparray\000"
 10047      72726179 
 10047      00
 10048              	.LASF107:
 10049 0a08 5F5A4E33 		.ascii	"_ZN3i2c14ReadByte16bitsEhtPh\000"
 10049      69326331 
 10049      34526561 
 10049      64427974 
 10049      65313662 
 10050              	.LASF139:
 10051 0a25 50726552 		.ascii	"PreRangeOverhead\000"
 10051      616E6765 
 10051      4F766572 
 10051      68656164 
 10051      00
 10052              	.LASF85:
 10053 0a36 67657456 		.ascii	"getVcselPulsePeriod\000"
 10053      6373656C 
 10053      50756C73 
 10053      65506572 
 10053      696F6400 
 10054              	.LASF78:
ARM GAS  C:\Users\hejmi\AppData\Local\Temp\ccFM6jcL.s 			page 199


 10055 0a4a 5F5A4E35 		.ascii	"_ZN5Laser18LoadTuningSettingsEv\000"
 10055      4C617365 
 10055      7231384C 
 10055      6F616454 
 10055      756E696E 
 10056              	.LASF100:
 10057 0a6a 5F5A4E35 		.ascii	"_ZN5Laser26setMeasurementTimingBudgetEm\000"
 10057      4C617365 
 10057      72323673 
 10057      65744D65 
 10057      61737572 
 10058              	.LASF47:
 10059 0a92 7072655F 		.ascii	"pre_range_us\000"
 10059      72616E67 
 10059      655F7573 
 10059      00
 10060              	.LASF28:
 10061 0a9f 5F5A4E33 		.ascii	"_ZN3i2c9WriteByteEhhh\000"
 10061      69326339 
 10061      57726974 
 10061      65427974 
 10061      65456868 
 10062              	.LASF103:
 10063 0ab5 656E636F 		.ascii	"encodeTimeout\000"
 10063      64655469 
 10063      6D656F75 
 10063      7400
 10064              	.LASF116:
 10065 0ac3 70657269 		.ascii	"period_ms\000"
 10065      6F645F6D 
 10065      7300
 10066              	.LASF149:
 10067 0acd 66696E61 		.ascii	"final_range_timeout_us\000"
 10067      6C5F7261 
 10067      6E67655F 
 10067      74696D65 
 10067      6F75745F 
 10068              	.LASF1:
 10069 0ae4 7369676E 		.ascii	"signed char\000"
 10069      65642063 
 10069      68617200 
 10070              	.LASF41:
 10071 0af0 7072655F 		.ascii	"pre_range_vcsel_period_pclks\000"
 10071      72616E67 
 10071      655F7663 
 10071      73656C5F 
 10071      70657269 
 10072              	.LASF6:
 10073 0b0d 73686F72 		.ascii	"short unsigned int\000"
 10073      7420756E 
 10073      7369676E 
 10073      65642069 
 10073      6E7400
 10074              	.LASF45:
 10075 0b20 66696E61 		.ascii	"final_range_mclks\000"
 10075      6C5F7261 
 10075      6E67655F 
ARM GAS  C:\Users\hejmi\AppData\Local\Temp\ccFM6jcL.s 			page 200


 10075      6D636C6B 
 10075      7300
 10076              	.LASF46:
 10077 0b32 6D737263 		.ascii	"msrc_dss_tcc_us\000"
 10077      5F647373 
 10077      5F746363 
 10077      5F757300 
 10078              	.LASF71:
 10079 0b42 53746174 		.ascii	"StaticInit\000"
 10079      6963496E 
 10079      697400
 10080              	.LASF141:
 10081 0b4d 62756467 		.ascii	"budget_us\000"
 10081      65745F75 
 10081      7300
 10082              	.LASF18:
 10083 0b57 646F7562 		.ascii	"double\000"
 10083      6C6500
 10084              	.LASF98:
 10085 0b5e 5F5A4E35 		.ascii	"_ZN5Laser13decodeTimeoutEt\000"
 10085      4C617365 
 10085      72313364 
 10085      65636F64 
 10085      6554696D 
 10086              	.LASF160:
 10087 0b79 76637365 		.ascii	"vcselPeriodType\000"
 10087      6C506572 
 10087      696F6454 
 10087      79706500 
 10088              	.LASF30:
 10089 0b89 5F5A4E33 		.ascii	"_ZN3i2c15WriteBytes16bitEhthPh\000"
 10089      69326331 
 10089      35577269 
 10089      74654279 
 10089      74657331 
 10090              	.LASF147:
 10091 0ba8 4D696E54 		.ascii	"MinTimingBudget\000"
 10091      696D696E 
 10091      67427564 
 10091      67657400 
 10092              	.LASF32:
 10093 0bb8 5F5A4E33 		.ascii	"_ZN3i2c14WriteByte16bitEhth\000"
 10093      69326331 
 10093      34577269 
 10093      74654279 
 10093      74653136 
 10094              	.LASF77:
 10095 0bd4 4C6F6164 		.ascii	"LoadTuningSettings\000"
 10095      54756E69 
 10095      6E675365 
 10095      7474696E 
 10095      677300
 10096              		.ident	"GCC: (GNU Tools for ARM Embedded Processors) 5.4.1 20160609 (release) [ARM/embedded-5-bran
