ARM GAS  C:\Users\hejmi\AppData\Local\Temp\ccD3iOGx.s 			page 1


   1              		.syntax unified
   2              		.cpu cortex-m3
   3              		.fpu softvfp
   4              		.eabi_attribute 20, 1
   5              		.eabi_attribute 21, 1
   6              		.eabi_attribute 23, 3
   7              		.eabi_attribute 24, 1
   8              		.eabi_attribute 25, 1
   9              		.eabi_attribute 26, 1
  10              		.eabi_attribute 30, 1
  11              		.eabi_attribute 34, 1
  12              		.eabi_attribute 18, 4
  13              		.thumb
  14              		.syntax unified
  15              		.file	"main.c"
  16              		.text
  17              	.Ltext0:
  18              		.cfi_sections	.debug_frame
  19              		.section	.text.main,"ax",%progbits
  20              		.align	2
  21              		.global	main
  22              		.thumb
  23              		.thumb_func
  24              		.type	main, %function
  25              	main:
  26              		.fnstart
  27              	.LFB75:
  28              		.file 1 "main.c"
   1:main.c        **** /* ========================================
   2:main.c        ****  *
   3:main.c        ****  * Copyright YOUR COMPANY, THE YEAR
   4:main.c        ****  * All Rights Reserved
   5:main.c        ****  * UNPUBLISHED, LICENSED SOFTWARE.
   6:main.c        ****  *
   7:main.c        ****  * CONFIDENTIAL AND PROPRIETARY INFORMATION
   8:main.c        ****  * WHICH IS THE PROPERTY OF your company.
   9:main.c        ****  *
  10:main.c        ****  * ========================================
  11:main.c        **** */
  12:main.c        **** 
  13:main.c        **** #ifdef __cplusplus
  14:main.c        **** extern "C" {
  15:main.c        **** #endif
  16:main.c        **** 
  17:main.c        ****     // PSoC include, this has to be wrapped
  18:main.c        ****     #include "project.h"
  19:main.c        **** 
  20:main.c        **** #ifdef __cplusplus
  21:main.c        **** }
  22:main.c        **** #endif
  23:main.c        **** 
  24:main.c        **** #include "i2c.h"
  25:main.c        **** #include "Laser.h"
  26:main.c        **** #include <stdio.h>
  27:main.c        **** 
  28:main.c        **** /*DEFINES FOR TERATERM TERMINAL*/
  29:main.c        **** #define WAIT_DELAY      (250)       // Delay in ms     
ARM GAS  C:\Users\hejmi\AppData\Local\Temp\ccD3iOGx.s 			page 2


  30:main.c        **** #define CLEAR_SCREEN    "\x1b[2J"   // Clears terminal when printed
  31:main.c        **** 
  32:main.c        **** volatile uint16_t range = 0;
  33:main.c        **** char* buf;
  34:main.c        **** 
  35:main.c        **** int main(void)
  36:main.c        **** {
  29              		.loc 1 36 0
  30              		.cfi_startproc
  31              		@ args = 0, pretend = 0, frame = 16
  32              		@ frame_needed = 0, uses_anonymous_args = 0
  33 0000 10B5     		push	{r4, lr}
  34              		.save {r4, lr}
  35              		.cfi_def_cfa_offset 8
  36              		.cfi_offset 4, -8
  37              		.cfi_offset 14, -4
  38              		.pad #16
  39 0002 84B0     		sub	sp, sp, #16
  40              		.cfi_def_cfa_offset 24
  37:main.c        ****     CyGlobalIntEnable; /* Enable global interrupts. */
  41              		.loc 1 37 0
  42              		.syntax unified
  43              	@ 37 "main.c" 1
  44 0004 62B6     		CPSIE   i
  45              	@ 0 "" 2
  46              	.LVL0:
  47              		.thumb
  48              		.syntax unified
  49              	.LBB11:
  50              	.LBB12:
  51              		.file 2 "Laser.h"
   1:Laser.h       **** /* ========================================
   2:Laser.h       ****  *
   3:Laser.h       ****  * Copyright Nicklas Grunert, 2019
   4:Laser.h       ****  * All Rights Reserved
   5:Laser.h       ****  * UNPUBLISHED, LICENSED SOFTWARE.
   6:Laser.h       ****  *
   7:Laser.h       ****  * CONFIDENTIAL AND PROPRIETARY INFORMATION
   8:Laser.h       ****  * WHICH IS THE PROPERTY OF Nicklas Grunert.
   9:Laser.h       ****  *
  10:Laser.h       ****  * ========================================
  11:Laser.h       **** */
  12:Laser.h       **** /*Credits to:*/
  13:Laser.h       **** /*https://github.com/pololu/vl53l0x-arduino*/
  14:Laser.h       **** #ifndef LASER_H
  15:Laser.h       **** #define LASER_H
  16:Laser.h       **** 
  17:Laser.h       **** #ifdef __cplusplus
  18:Laser.h       **** extern "C" {
  19:Laser.h       **** #endif
  20:Laser.h       ****     // PSoC include, this has to be wrapped
  21:Laser.h       ****     #include "project.h"
  22:Laser.h       **** #ifdef __cplusplus
  23:Laser.h       **** }
  24:Laser.h       **** #endif
  25:Laser.h       **** #include "i2c.h"
  26:Laser.h       **** #include "Laser_def.h"
ARM GAS  C:\Users\hejmi\AppData\Local\Temp\ccD3iOGx.s 			page 3


  27:Laser.h       **** 
  28:Laser.h       **** 
  29:Laser.h       **** class Laser{
  30:Laser.h       ****   public:
  31:Laser.h       ****     /*Constructor*/
  32:Laser.h       ****     Laser(uint8_t address){dev_ = address;};
  33:Laser.h       ****     Laser(){dev_ = 0x29;};
  52              		.loc 2 33 0
  53 0006 2923     		movs	r3, #41
  54 0008 8DF80430 		strb	r3, [sp, #4]
  55              	.LVL1:
  56              	.LBE12:
  57              	.LBE11:
  38:main.c        **** 
  39:main.c        ****     /* Place your initialization/startup code here (e.g. MyInst_Start()) */
  40:main.c        ****     Laser VL53L0X;
  41:main.c        ****     VL53L0X.Init(false);
  58              		.loc 1 41 0
  59 000c 0021     		movs	r1, #0
  60 000e 6846     		mov	r0, sp
  61 0010 FFF7FEFF 		bl	_ZN5Laser4InitEb
  62              	.LVL2:
  63              	.LBB13:
  64              	.LBB14:
  34:Laser.h       ****     
  35:Laser.h       ****     /*IO Functions*/
  36:Laser.h       ****     inline void SetTimeout(uint16_t timeout) { io_timeout = timeout; };
  65              		.loc 2 36 0
  66 0014 4FF4FA73 		mov	r3, #500
  67 0018 ADF80C30 		strh	r3, [sp, #12]	@ movhi
  68              	.LVL3:
  69              	.LBE14:
  70              	.LBE13:
  42:main.c        ****     VL53L0X.SetTimeout(500);
  43:main.c        ****     VL53L0X.StartContinuous();
  71              		.loc 1 43 0
  72 001c 0021     		movs	r1, #0
  73 001e 6846     		mov	r0, sp
  74 0020 FFF7FEFF 		bl	_ZN5Laser15StartContinuousEm
  75              	.LVL4:
  76              	.L2:
  44:main.c        ****     
  45:main.c        ****     for(;;)
  46:main.c        ****     {
  47:main.c        ****         range = VL53L0X.ReadRangeContinuousMillimeters();
  77              		.loc 1 47 0
  78 0024 6846     		mov	r0, sp
  79 0026 FFF7FEFF 		bl	_ZN5Laser30ReadRangeContinuousMillimetersEv
  80              	.LVL5:
  81 002a 094C     		ldr	r4, .L4
  82 002c 2080     		strh	r0, [r4]	@ movhi
  48:main.c        ****         /*Print out range to screen*/
  49:main.c        ****         UART_1_PutString(CLEAR_SCREEN);
  83              		.loc 1 49 0
  84 002e 0948     		ldr	r0, .L4+4
  85 0030 FFF7FEFF 		bl	UART_1_PutString
  86              	.LVL6:
ARM GAS  C:\Users\hejmi\AppData\Local\Temp\ccD3iOGx.s 			page 4


  50:main.c        ****         sprintf(buf,"------ RANGING DATA ------\r\nDistance: %d mm\r\n",
  87              		.loc 1 50 0
  88 0034 2288     		ldrh	r2, [r4]
  51:main.c        ****             range
  52:main.c        ****         );
  89              		.loc 1 52 0
  90 0036 92B2     		uxth	r2, r2
  91 0038 0749     		ldr	r1, .L4+8
  92 003a 6068     		ldr	r0, [r4, #4]
  93 003c FFF7FEFF 		bl	sprintf
  94              	.LVL7:
  53:main.c        ****         UART_1_PutString(buf);
  95              		.loc 1 53 0
  96 0040 6068     		ldr	r0, [r4, #4]
  97 0042 FFF7FEFF 		bl	UART_1_PutString
  98              	.LVL8:
  54:main.c        ****         
  55:main.c        ****         /*Delay so it is possible to read the data!*/
  56:main.c        ****         CyDelay(WAIT_DELAY);  
  99              		.loc 1 56 0
 100 0046 FA20     		movs	r0, #250
 101 0048 FFF7FEFF 		bl	CyDelay
 102              	.LVL9:
 103 004c EAE7     		b	.L2
 104              	.L5:
 105 004e 00BF     		.align	2
 106              	.L4:
 107 0050 00000000 		.word	.LANCHOR0
 108 0054 00000000 		.word	.LC0
 109 0058 08000000 		.word	.LC1
 110              		.cfi_endproc
 111              	.LFE75:
 112              		.fnend
 113              		.size	main, .-main
 114              		.global	buf
 115              		.global	range
 116              		.section	.rodata.str1.4,"aMS",%progbits,1
 117              		.align	2
 118              	.LC0:
 119 0000 1B5B324A 		.ascii	"\033[2J\000"
 119      00
 120 0005 000000   		.space	3
 121              	.LC1:
 122 0008 2D2D2D2D 		.ascii	"------ RANGING DATA ------\015\012Distance: %d mm\015"
 122      2D2D2052 
 122      414E4749 
 122      4E472044 
 122      41544120 
 123 0034 0A00     		.ascii	"\012\000"
 124              		.bss
 125              		.align	2
 126              		.set	.LANCHOR0,. + 0
 127              		.type	range, %object
 128              		.size	range, 2
 129              	range:
 130 0000 0000     		.space	2
 131 0002 0000     		.space	2
ARM GAS  C:\Users\hejmi\AppData\Local\Temp\ccD3iOGx.s 			page 5


 132              		.type	buf, %object
 133              		.size	buf, 4
 134              	buf:
 135 0004 00000000 		.space	4
 136              		.text
 137              	.Letext0:
 138              		.file 3 "c:\\program files (x86)\\cypress\\psoc creator\\4.2\\psoc creator\\import\\gnu\\arm\\5.4.
 139              		.file 4 "c:\\program files (x86)\\cypress\\psoc creator\\4.2\\psoc creator\\import\\gnu\\arm\\5.4.
 140              		.file 5 "i2c.h"
 141              		.file 6 "Laser_def.h"
 142              		.file 7 "Generated_Source\\PSoC5/core_cm3.h"
 143              		.file 8 "Generated_Source\\PSoC5/UART_1.h"
 144              		.file 9 "c:\\program files (x86)\\cypress\\psoc creator\\4.2\\psoc creator\\import\\gnu\\arm\\5.4.
 145              		.file 10 "Generated_Source\\PSoC5/CyLib.h"