ARM GAS  C:\Users\Mathias\AppData\Local\Temp\ccWhpLUl.s 			page 1


   1              		.syntax unified
   2              		.cpu cortex-m3
   3              		.fpu softvfp
   4              		.eabi_attribute 20, 1
   5              		.eabi_attribute 21, 1
   6              		.eabi_attribute 23, 3
   7              		.eabi_attribute 24, 1
   8              		.eabi_attribute 25, 1
   9              		.eabi_attribute 26, 1
  10              		.eabi_attribute 30, 1
  11              		.eabi_attribute 34, 1
  12              		.eabi_attribute 18, 4
  13              		.thumb
  14              		.syntax unified
  15              		.file	"main.c"
  16              		.text
  17              	.Ltext0:
  18              		.cfi_sections	.debug_frame
  19              		.section	.text._Z11isr_handlerv,"ax",%progbits
  20              		.align	2
  21              		.global	_Z11isr_handlerv
  22              		.thumb
  23              		.thumb_func
  24              		.type	_Z11isr_handlerv, %function
  25              	_Z11isr_handlerv:
  26              	.LFB64:
  27              		.file 1 "main.c"
   1:main.c        **** #ifdef __cplusplus
   2:main.c        **** extern "C" {
   3:main.c        **** #endif
   4:main.c        **** 
   5:main.c        ****     // PSoC include, this has to be wrapped
   6:main.c        ****     #include "project.h"
   7:main.c        **** 
   8:main.c        **** 
   9:main.c        **** #ifdef __cplusplus
  10:main.c        **** }
  11:main.c        **** #endif
  12:main.c        **** 
  13:main.c        **** #include "ToF.h"
  14:main.c        **** 
  15:main.c        **** 
  16:main.c        **** uint8_t byteR = 0;
  17:main.c        **** ToF obj;
  18:main.c        **** /*
  19:main.c        **** uint8_t i = 0;
  20:main.c        **** uint16_t s1, s2, s3;
  21:main.c        **** char string[50];
  22:main.c        **** */
  23:main.c        **** CY_ISR_PROTO(isr_handler)
  24:main.c        **** {
  28              		.loc 1 24 0
  29              		.cfi_startproc
  30              		@ args = 0, pretend = 0, frame = 0
  31              		@ frame_needed = 0, uses_anonymous_args = 0
  32 0000 08B5     		push	{r3, lr}
  33              		.cfi_def_cfa_offset 8
ARM GAS  C:\Users\Mathias\AppData\Local\Temp\ccWhpLUl.s 			page 2


  34              		.cfi_offset 3, -8
  35              		.cfi_offset 14, -4
  25:main.c        ****     byteR = SPIS_ReadRxData();                                          // Gemmer aflæsning af RX-
  36              		.loc 1 25 0
  37 0002 FFF7FEFF 		bl	SPIS_ReadRxData
  38              	.LVL0:
  39 0006 0146     		mov	r1, r0
  40 0008 0248     		ldr	r0, .L3
  41 000a 00F8041B 		strb	r1, [r0], #4
  26:main.c        ****     obj.handleByte(byteR);
  42              		.loc 1 26 0
  43 000e FFF7FEFF 		bl	_ZN3ToF10handleByteEh
  44              	.LVL1:
  45 0012 08BD     		pop	{r3, pc}
  46              	.L4:
  47              		.align	2
  48              	.L3:
  49 0014 00000000 		.word	.LANCHOR0
  50              		.cfi_endproc
  51              	.LFE64:
  52              		.size	_Z11isr_handlerv, .-_Z11isr_handlerv
  53              		.section	.text._Z41__static_initialization_and_destruction_0ii,"ax",%progbits
  54              		.align	2
  55              		.thumb
  56              		.thumb_func
  57              		.type	_Z41__static_initialization_and_destruction_0ii, %function
  58              	_Z41__static_initialization_and_destruction_0ii:
  59              	.LFB66:
  27:main.c        **** }
  28:main.c        **** 
  29:main.c        **** 
  30:main.c        **** int main(void)
  31:main.c        **** {
  32:main.c        ****     
  33:main.c        ****     CyGlobalIntEnable; //Enable global interrupts.
  34:main.c        ****     /*
  35:main.c        ****     // Init
  36:main.c        ****     SPIS_Start();
  37:main.c        ****     isr_1_StartEx(isr_handler);
  38:main.c        ****     UART_1_Start();
  39:main.c        ****     UART_1_PutString("Terminal vindue er connected\n\r");
  40:main.c        ****     */
  41:main.c        ****     SPIS_Start();
  42:main.c        ****     isr_1_StartEx(isr_handler);
  43:main.c        ****     CyDelay(10000);
  44:main.c        ****     UART_1_PutString("-----------Nu er der gaaet 10 sekunder-----------\n\r");
  45:main.c        ****     SPIS_Stop();
  46:main.c        ****     
  47:main.c        ****     for(;;)
  48:main.c        ****     {
  49:main.c        ****         /* Place your application code here. */
  50:main.c        ****         
  51:main.c        ****     }
  52:main.c        **** 
  53:main.c        **** }
  60              		.loc 1 53 0
  61              		.cfi_startproc
ARM GAS  C:\Users\Mathias\AppData\Local\Temp\ccWhpLUl.s 			page 3


  62              		@ args = 0, pretend = 0, frame = 0
  63              		@ frame_needed = 0, uses_anonymous_args = 0
  64              	.LVL2:
  65 0000 0128     		cmp	r0, #1
  66 0002 08D1     		bne	.L8
  67              		.loc 1 53 0 is_stmt 0 discriminator 1
  68 0004 08B5     		push	{r3, lr}
  69              		.cfi_def_cfa_offset 8
  70              		.cfi_offset 3, -8
  71              		.cfi_offset 14, -4
  72              		.loc 1 53 0 is_stmt 1 discriminator 1
  73 0006 4FF6FF73 		movw	r3, #65535
  74 000a 9942     		cmp	r1, r3
  75 000c 02D1     		bne	.L5
  17:main.c        **** /*
  76              		.loc 1 17 0
  77 000e 0248     		ldr	r0, .L9
  78              	.LVL3:
  79 0010 FFF7FEFF 		bl	_ZN3ToFC1Ev
  80              	.LVL4:
  81              	.L5:
  82 0014 08BD     		pop	{r3, pc}
  83              	.LVL5:
  84              	.L8:
  85              		.cfi_def_cfa_offset 0
  86              		.cfi_restore 3
  87              		.cfi_restore 14
  88 0016 7047     		bx	lr
  89              	.L10:
  90              		.align	2
  91              	.L9:
  92 0018 04000000 		.word	.LANCHOR0+4
  93              		.cfi_endproc
  94              	.LFE66:
  95              		.size	_Z41__static_initialization_and_destruction_0ii, .-_Z41__static_initialization_and_destructi
  96              		.section	.text.main,"ax",%progbits
  97              		.align	2
  98              		.global	main
  99              		.thumb
 100              		.thumb_func
 101              		.type	main, %function
 102              	main:
 103              	.LFB65:
  31:main.c        ****     
 104              		.loc 1 31 0
 105              		.cfi_startproc
 106              		@ Volatile: function does not return.
 107              		@ args = 0, pretend = 0, frame = 0
 108              		@ frame_needed = 0, uses_anonymous_args = 0
 109 0000 08B5     		push	{r3, lr}
 110              		.cfi_def_cfa_offset 8
 111              		.cfi_offset 3, -8
 112              		.cfi_offset 14, -4
  33:main.c        ****     /*
 113              		.loc 1 33 0
 114              		.syntax unified
 115              	@ 33 "main.c" 1
ARM GAS  C:\Users\Mathias\AppData\Local\Temp\ccWhpLUl.s 			page 4


 116 0002 62B6     		CPSIE   i
 117              	@ 0 "" 2
  41:main.c        ****     isr_1_StartEx(isr_handler);
 118              		.loc 1 41 0
 119              		.thumb
 120              		.syntax unified
 121 0004 FFF7FEFF 		bl	SPIS_Start
 122              	.LVL6:
  42:main.c        ****     CyDelay(10000);
 123              		.loc 1 42 0
 124 0008 0648     		ldr	r0, .L14
 125 000a FFF7FEFF 		bl	isr_1_StartEx
 126              	.LVL7:
  43:main.c        ****     UART_1_PutString("-----------Nu er der gaaet 10 sekunder-----------\n\r");
 127              		.loc 1 43 0
 128 000e 42F21070 		movw	r0, #10000
 129 0012 FFF7FEFF 		bl	CyDelay
 130              	.LVL8:
  44:main.c        ****     SPIS_Stop();
 131              		.loc 1 44 0
 132 0016 0448     		ldr	r0, .L14+4
 133 0018 FFF7FEFF 		bl	UART_1_PutString
 134              	.LVL9:
  45:main.c        ****     
 135              		.loc 1 45 0
 136 001c FFF7FEFF 		bl	SPIS_Stop
 137              	.LVL10:
 138              	.L12:
 139 0020 FEE7     		b	.L12
 140              	.L15:
 141 0022 00BF     		.align	2
 142              	.L14:
 143 0024 00000000 		.word	_Z11isr_handlerv
 144 0028 00000000 		.word	.LC0
 145              		.cfi_endproc
 146              	.LFE65:
 147              		.size	main, .-main
 148              		.section	.text._GLOBAL__sub_I_byteR,"ax",%progbits
 149              		.align	2
 150              		.thumb
 151              		.thumb_func
 152              		.type	_GLOBAL__sub_I_byteR, %function
 153              	_GLOBAL__sub_I_byteR:
 154              	.LFB67:
 155              		.loc 1 53 0
 156              		.cfi_startproc
 157              		@ args = 0, pretend = 0, frame = 0
 158              		@ frame_needed = 0, uses_anonymous_args = 0
 159 0000 08B5     		push	{r3, lr}
 160              		.cfi_def_cfa_offset 8
 161              		.cfi_offset 3, -8
 162              		.cfi_offset 14, -4
 163              		.loc 1 53 0
 164 0002 4FF6FF71 		movw	r1, #65535
 165 0006 0120     		movs	r0, #1
 166 0008 FFF7FEFF 		bl	_Z41__static_initialization_and_destruction_0ii
 167              	.LVL11:
ARM GAS  C:\Users\Mathias\AppData\Local\Temp\ccWhpLUl.s 			page 5


 168 000c 08BD     		pop	{r3, pc}
 169              		.cfi_endproc
 170              	.LFE67:
 171              		.size	_GLOBAL__sub_I_byteR, .-_GLOBAL__sub_I_byteR
 172 000e 00BF     		.section	.init_array,"aw",%init_array
 173              		.align	2
 174 0000 00000000 		.word	_GLOBAL__sub_I_byteR(target1)
 175              		.global	obj
 176              		.global	byteR
 177              		.section	.rodata.str1.4,"aMS",%progbits,1
 178              		.align	2
 179              	.LC0:
 180 0000 2D2D2D2D 		.ascii	"-----------Nu er der gaaet 10 sekunder-----------\012"
 180      2D2D2D2D 
 180      2D2D2D4E 
 180      75206572 
 180      20646572 
 181 0032 0D00     		.ascii	"\015\000"
 182              		.bss
 183              		.align	2
 184              		.set	.LANCHOR0,. + 0
 185              		.type	byteR, %object
 186              		.size	byteR, 1
 187              	byteR:
 188 0000 00       		.space	1
 189 0001 000000   		.space	3
 190              		.type	obj, %object
 191              		.size	obj, 58
 192              	obj:
 193 0004 00000000 		.space	58
 193      00000000 
 193      00000000 
 193      00000000 
 193      00000000 
 194              		.text
 195              	.Letext0:
 196              		.file 2 "c:\\program files (x86)\\cypress\\psoc creator\\4.2\\psoc creator\\import\\gnu\\arm\\5.4.
 197              		.file 3 "c:\\program files (x86)\\cypress\\psoc creator\\4.2\\psoc creator\\import\\gnu\\arm\\5.4.
 198              		.file 4 "ToF.h"
 199              		.file 5 "Generated_Source\\PSoC5/core_cm3.h"
 200              		.file 6 "Generated_Source\\PSoC5/SPIS.h"
 201              		.file 7 "Generated_Source\\PSoC5/isr_1.h"
 202              		.file 8 "Generated_Source\\PSoC5/CyLib.h"
 203              		.file 9 "Generated_Source\\PSoC5/UART_1.h"