ARM GAS  C:\Users\Mathias\AppData\Local\Temp\ccH8Ni7h.s 			page 1


   1              		.syntax unified
   2              		.cpu cortex-m3
   3              		.fpu softvfp
   4              		.eabi_attribute 20, 1
   5              		.eabi_attribute 21, 1
   6              		.eabi_attribute 23, 3
   7              		.eabi_attribute 24, 1
   8              		.eabi_attribute 25, 1
   9              		.eabi_attribute 26, 1
  10              		.eabi_attribute 30, 1
  11              		.eabi_attribute 34, 1
  12              		.eabi_attribute 18, 4
  13              		.thumb
  14              		.syntax unified
  15              		.file	"SPIS.c"
  16              		.text
  17              	.Ltext0:
  18              		.cfi_sections	.debug_frame
  19              		.section	.text.SPIS_Enable,"ax",%progbits
  20              		.align	2
  21              		.global	SPIS_Enable
  22              		.thumb
  23              		.thumb_func
  24              		.type	SPIS_Enable, %function
  25              	SPIS_Enable:
  26              	.LFB1:
  27              		.file 1 "Generated_Source\\PSoC5\\SPIS.c"
   1:Generated_Source\PSoC5/SPIS.c **** /*******************************************************************************
   2:Generated_Source\PSoC5/SPIS.c **** * File Name: SPIS.c
   3:Generated_Source\PSoC5/SPIS.c **** * Version 2.70
   4:Generated_Source\PSoC5/SPIS.c **** *
   5:Generated_Source\PSoC5/SPIS.c **** * Description:
   6:Generated_Source\PSoC5/SPIS.c **** *  This file provides all API functionality of the SPI Slave component.
   7:Generated_Source\PSoC5/SPIS.c **** *
   8:Generated_Source\PSoC5/SPIS.c **** * Note:
   9:Generated_Source\PSoC5/SPIS.c **** *  None.
  10:Generated_Source\PSoC5/SPIS.c **** *
  11:Generated_Source\PSoC5/SPIS.c **** ********************************************************************************
  12:Generated_Source\PSoC5/SPIS.c **** * Copyright 2008-2015, Cypress Semiconductor Corporation.  All rights reserved.
  13:Generated_Source\PSoC5/SPIS.c **** * You may use this file only in accordance with the license, terms, conditions,
  14:Generated_Source\PSoC5/SPIS.c **** * disclaimers, and limitations in the end user license agreement accompanying
  15:Generated_Source\PSoC5/SPIS.c **** * the software package with which this file was provided.
  16:Generated_Source\PSoC5/SPIS.c **** *******************************************************************************/
  17:Generated_Source\PSoC5/SPIS.c **** 
  18:Generated_Source\PSoC5/SPIS.c **** #include "SPIS_PVT.h"
  19:Generated_Source\PSoC5/SPIS.c **** 
  20:Generated_Source\PSoC5/SPIS.c **** #if (SPIS_TX_SOFTWARE_BUF_ENABLED)
  21:Generated_Source\PSoC5/SPIS.c **** 
  22:Generated_Source\PSoC5/SPIS.c ****     volatile uint8 SPIS_txBuffer[SPIS_TX_BUFFER_SIZE];
  23:Generated_Source\PSoC5/SPIS.c ****     volatile uint8 SPIS_txBufferRead;
  24:Generated_Source\PSoC5/SPIS.c ****     volatile uint8 SPIS_txBufferWrite;
  25:Generated_Source\PSoC5/SPIS.c ****     volatile uint8 SPIS_txBufferFull;
  26:Generated_Source\PSoC5/SPIS.c **** 
  27:Generated_Source\PSoC5/SPIS.c **** #endif /* SPIS_TX_SOFTWARE_BUF_ENABLED*/
  28:Generated_Source\PSoC5/SPIS.c **** 
  29:Generated_Source\PSoC5/SPIS.c **** #if (SPIS_RX_SOFTWARE_BUF_ENABLED)
  30:Generated_Source\PSoC5/SPIS.c **** 
ARM GAS  C:\Users\Mathias\AppData\Local\Temp\ccH8Ni7h.s 			page 2


  31:Generated_Source\PSoC5/SPIS.c ****     volatile uint8 SPIS_rxBuffer[SPIS_RX_BUFFER_SIZE];
  32:Generated_Source\PSoC5/SPIS.c ****     volatile uint8 SPIS_rxBufferRead;
  33:Generated_Source\PSoC5/SPIS.c ****     volatile uint8 SPIS_rxBufferWrite;
  34:Generated_Source\PSoC5/SPIS.c ****     volatile uint8 SPIS_rxBufferFull;
  35:Generated_Source\PSoC5/SPIS.c **** 
  36:Generated_Source\PSoC5/SPIS.c **** #endif /* SPIS_RX_SOFTWARE_BUF_ENABLED */
  37:Generated_Source\PSoC5/SPIS.c **** 
  38:Generated_Source\PSoC5/SPIS.c **** uint8 SPIS_initVar = 0u;
  39:Generated_Source\PSoC5/SPIS.c **** 
  40:Generated_Source\PSoC5/SPIS.c **** volatile uint8 SPIS_swStatusTx;
  41:Generated_Source\PSoC5/SPIS.c **** volatile uint8 SPIS_swStatusRx;
  42:Generated_Source\PSoC5/SPIS.c **** 
  43:Generated_Source\PSoC5/SPIS.c **** 
  44:Generated_Source\PSoC5/SPIS.c **** /*******************************************************************************
  45:Generated_Source\PSoC5/SPIS.c **** * Function Name: SPIS_Init
  46:Generated_Source\PSoC5/SPIS.c **** ********************************************************************************
  47:Generated_Source\PSoC5/SPIS.c **** *
  48:Generated_Source\PSoC5/SPIS.c **** * Summary:
  49:Generated_Source\PSoC5/SPIS.c **** *  Inits/Restores default SPIS configuration provided with customizer.
  50:Generated_Source\PSoC5/SPIS.c **** *
  51:Generated_Source\PSoC5/SPIS.c **** * Parameters:
  52:Generated_Source\PSoC5/SPIS.c **** *  None.
  53:Generated_Source\PSoC5/SPIS.c **** *
  54:Generated_Source\PSoC5/SPIS.c **** * Return:
  55:Generated_Source\PSoC5/SPIS.c **** *  None.
  56:Generated_Source\PSoC5/SPIS.c **** *
  57:Generated_Source\PSoC5/SPIS.c **** * Side Effects:
  58:Generated_Source\PSoC5/SPIS.c **** *  When this function is called it initializes all of the necessary parameters
  59:Generated_Source\PSoC5/SPIS.c **** *  for execution. i.e. setting the initial interrupt mask, configuring the
  60:Generated_Source\PSoC5/SPIS.c **** *  interrupt service routine, configuring the bit-counter parameters and
  61:Generated_Source\PSoC5/SPIS.c **** *  clearing the FIFO and Status Register.
  62:Generated_Source\PSoC5/SPIS.c **** *
  63:Generated_Source\PSoC5/SPIS.c **** * Reentrant:
  64:Generated_Source\PSoC5/SPIS.c **** *  No.
  65:Generated_Source\PSoC5/SPIS.c **** *
  66:Generated_Source\PSoC5/SPIS.c **** *******************************************************************************/
  67:Generated_Source\PSoC5/SPIS.c **** void SPIS_Init(void) 
  68:Generated_Source\PSoC5/SPIS.c **** {
  69:Generated_Source\PSoC5/SPIS.c ****     /*Initialize the Bit counter */
  70:Generated_Source\PSoC5/SPIS.c ****     SPIS_COUNTER_PERIOD_REG = SPIS_BITCTR_INIT;
  71:Generated_Source\PSoC5/SPIS.c **** 
  72:Generated_Source\PSoC5/SPIS.c ****     /* ISR initialization */
  73:Generated_Source\PSoC5/SPIS.c ****     #if(SPIS_INTERNAL_TX_INT_ENABLED)
  74:Generated_Source\PSoC5/SPIS.c **** 
  75:Generated_Source\PSoC5/SPIS.c ****         CyIntDisable(SPIS_TX_ISR_NUMBER);
  76:Generated_Source\PSoC5/SPIS.c **** 
  77:Generated_Source\PSoC5/SPIS.c ****         /* Set the ISR to point to the SPIS_isr Interrupt. */
  78:Generated_Source\PSoC5/SPIS.c ****         (void)CyIntSetVector(SPIS_TX_ISR_NUMBER, &SPIS_TX_ISR);
  79:Generated_Source\PSoC5/SPIS.c **** 
  80:Generated_Source\PSoC5/SPIS.c ****         /* Set the priority. */
  81:Generated_Source\PSoC5/SPIS.c ****         CyIntSetPriority(SPIS_TX_ISR_NUMBER, SPIS_TX_ISR_PRIORITY);
  82:Generated_Source\PSoC5/SPIS.c **** 
  83:Generated_Source\PSoC5/SPIS.c ****     #endif /* SPIS_INTERNAL_TX_INT_ENABLED */
  84:Generated_Source\PSoC5/SPIS.c **** 
  85:Generated_Source\PSoC5/SPIS.c ****     #if(SPIS_INTERNAL_RX_INT_ENABLED)
  86:Generated_Source\PSoC5/SPIS.c **** 
  87:Generated_Source\PSoC5/SPIS.c ****         CyIntDisable(SPIS_RX_ISR_NUMBER);
ARM GAS  C:\Users\Mathias\AppData\Local\Temp\ccH8Ni7h.s 			page 3


  88:Generated_Source\PSoC5/SPIS.c **** 
  89:Generated_Source\PSoC5/SPIS.c ****         /* Set the ISR to point to the SPIS_isr Interrupt. */
  90:Generated_Source\PSoC5/SPIS.c ****         (void)CyIntSetVector(SPIS_RX_ISR_NUMBER, &SPIS_RX_ISR);
  91:Generated_Source\PSoC5/SPIS.c **** 
  92:Generated_Source\PSoC5/SPIS.c ****         /* Set the priority. */
  93:Generated_Source\PSoC5/SPIS.c ****         CyIntSetPriority(SPIS_RX_ISR_NUMBER, SPIS_RX_ISR_PRIORITY);
  94:Generated_Source\PSoC5/SPIS.c **** 
  95:Generated_Source\PSoC5/SPIS.c ****     #endif /* SPIS_INTERNAL_RX_INT_ENABLED */
  96:Generated_Source\PSoC5/SPIS.c **** 
  97:Generated_Source\PSoC5/SPIS.c ****     /* Clear any stray data from the RX and TX FIFO */
  98:Generated_Source\PSoC5/SPIS.c ****     SPIS_ClearFIFO();
  99:Generated_Source\PSoC5/SPIS.c **** 
 100:Generated_Source\PSoC5/SPIS.c ****     #if(SPIS_RX_SOFTWARE_BUF_ENABLED)
 101:Generated_Source\PSoC5/SPIS.c ****         SPIS_rxBufferFull = 0u;
 102:Generated_Source\PSoC5/SPIS.c ****         SPIS_rxBufferRead = 0u;
 103:Generated_Source\PSoC5/SPIS.c ****         SPIS_rxBufferWrite = 0u;
 104:Generated_Source\PSoC5/SPIS.c ****     #endif /* SPIS_RX_SOFTWARE_BUF_ENABLED */
 105:Generated_Source\PSoC5/SPIS.c **** 
 106:Generated_Source\PSoC5/SPIS.c ****     #if(SPIS_TX_SOFTWARE_BUF_ENABLED)
 107:Generated_Source\PSoC5/SPIS.c ****         SPIS_txBufferFull = 0u;
 108:Generated_Source\PSoC5/SPIS.c ****         SPIS_txBufferRead = 0u;
 109:Generated_Source\PSoC5/SPIS.c ****         SPIS_txBufferWrite = 0u;
 110:Generated_Source\PSoC5/SPIS.c ****     #endif /* SPIS_TX_SOFTWARE_BUF_ENABLED */
 111:Generated_Source\PSoC5/SPIS.c **** 
 112:Generated_Source\PSoC5/SPIS.c ****     (void) SPIS_ReadTxStatus(); /* Clear any pending status bits */
 113:Generated_Source\PSoC5/SPIS.c ****     (void) SPIS_ReadRxStatus(); /* Clear any pending status bits */
 114:Generated_Source\PSoC5/SPIS.c **** 
 115:Generated_Source\PSoC5/SPIS.c **** 
 116:Generated_Source\PSoC5/SPIS.c ****     /* Configure the Initial interrupt mask */
 117:Generated_Source\PSoC5/SPIS.c ****     #if (SPIS_TX_SOFTWARE_BUF_ENABLED)
 118:Generated_Source\PSoC5/SPIS.c ****         SPIS_TX_STATUS_MASK_REG  = (SPIS_TX_INIT_INTERRUPTS_MASK &
 119:Generated_Source\PSoC5/SPIS.c ****                                                 (uint8)~SPIS_STS_TX_FIFO_NOT_FULL);
 120:Generated_Source\PSoC5/SPIS.c ****     #else /* SPIS_TX_SOFTWARE_BUF_ENABLED */
 121:Generated_Source\PSoC5/SPIS.c ****         SPIS_TX_STATUS_MASK_REG  = SPIS_TX_INIT_INTERRUPTS_MASK;
 122:Generated_Source\PSoC5/SPIS.c ****     #endif /* SPIS_TX_SOFTWARE_BUF_ENABLED */
 123:Generated_Source\PSoC5/SPIS.c **** 
 124:Generated_Source\PSoC5/SPIS.c ****     SPIS_RX_STATUS_MASK_REG  = SPIS_RX_INIT_INTERRUPTS_MASK;
 125:Generated_Source\PSoC5/SPIS.c **** }
 126:Generated_Source\PSoC5/SPIS.c **** 
 127:Generated_Source\PSoC5/SPIS.c **** 
 128:Generated_Source\PSoC5/SPIS.c **** /*******************************************************************************
 129:Generated_Source\PSoC5/SPIS.c **** * Function Name: SPIS_Enable
 130:Generated_Source\PSoC5/SPIS.c **** ********************************************************************************
 131:Generated_Source\PSoC5/SPIS.c **** *
 132:Generated_Source\PSoC5/SPIS.c **** * Summary:
 133:Generated_Source\PSoC5/SPIS.c **** *  Enable SPIS component.
 134:Generated_Source\PSoC5/SPIS.c **** *
 135:Generated_Source\PSoC5/SPIS.c **** * Parameters:
 136:Generated_Source\PSoC5/SPIS.c **** *  None.
 137:Generated_Source\PSoC5/SPIS.c **** *
 138:Generated_Source\PSoC5/SPIS.c **** * Return:
 139:Generated_Source\PSoC5/SPIS.c **** *  None.
 140:Generated_Source\PSoC5/SPIS.c **** *
 141:Generated_Source\PSoC5/SPIS.c **** *******************************************************************************/
 142:Generated_Source\PSoC5/SPIS.c **** void SPIS_Enable(void) 
 143:Generated_Source\PSoC5/SPIS.c **** {
  28              		.loc 1 143 0
ARM GAS  C:\Users\Mathias\AppData\Local\Temp\ccH8Ni7h.s 			page 4


  29              		.cfi_startproc
  30              		@ args = 0, pretend = 0, frame = 0
  31              		@ frame_needed = 0, uses_anonymous_args = 0
  32 0000 08B5     		push	{r3, lr}
  33              		.cfi_def_cfa_offset 8
  34              		.cfi_offset 3, -8
  35              		.cfi_offset 14, -4
 144:Generated_Source\PSoC5/SPIS.c ****     uint8 enableInterrupts;
 145:Generated_Source\PSoC5/SPIS.c ****     enableInterrupts = CyEnterCriticalSection();
  36              		.loc 1 145 0
  37 0002 FFF7FEFF 		bl	CyEnterCriticalSection
  38              	.LVL0:
 146:Generated_Source\PSoC5/SPIS.c **** 
 147:Generated_Source\PSoC5/SPIS.c ****     SPIS_COUNTER_CONTROL_REG |= SPIS_CNTR_ENABLE;
  39              		.loc 1 147 0
  40 0006 0A4A     		ldr	r2, .L3
  41 0008 1378     		ldrb	r3, [r2]	@ zero_extendqisi2
  42 000a 43F02003 		orr	r3, r3, #32
  43 000e 1370     		strb	r3, [r2]
 148:Generated_Source\PSoC5/SPIS.c ****     SPIS_TX_STATUS_ACTL_REG |= SPIS_INT_ENABLE;
  44              		.loc 1 148 0
  45 0010 013A     		subs	r2, r2, #1
  46 0012 1378     		ldrb	r3, [r2]	@ zero_extendqisi2
  47 0014 43F01003 		orr	r3, r3, #16
  48 0018 1370     		strb	r3, [r2]
 149:Generated_Source\PSoC5/SPIS.c ****     SPIS_RX_STATUS_ACTL_REG |= SPIS_INT_ENABLE;
  49              		.loc 1 149 0
  50 001a FE3A     		subs	r2, r2, #254
  51 001c 1378     		ldrb	r3, [r2]	@ zero_extendqisi2
  52 001e 43F01003 		orr	r3, r3, #16
  53 0022 1370     		strb	r3, [r2]
 150:Generated_Source\PSoC5/SPIS.c **** 
 151:Generated_Source\PSoC5/SPIS.c ****     CyExitCriticalSection(enableInterrupts);
  54              		.loc 1 151 0
  55 0024 FFF7FEFF 		bl	CyExitCriticalSection
  56              	.LVL1:
 152:Generated_Source\PSoC5/SPIS.c **** 
 153:Generated_Source\PSoC5/SPIS.c ****     #if(SPIS_INTERNAL_TX_INT_ENABLED)
 154:Generated_Source\PSoC5/SPIS.c ****         CyIntEnable(SPIS_TX_ISR_NUMBER);
 155:Generated_Source\PSoC5/SPIS.c ****     #endif /* SPIS_INTERNAL_TX_INT_ENABLED */
 156:Generated_Source\PSoC5/SPIS.c **** 
 157:Generated_Source\PSoC5/SPIS.c ****     #if(SPIS_INTERNAL_RX_INT_ENABLED)
 158:Generated_Source\PSoC5/SPIS.c ****         CyIntEnable(SPIS_RX_ISR_NUMBER);
  57              		.loc 1 158 0
  58 0028 0122     		movs	r2, #1
  59 002a 024B     		ldr	r3, .L3+4
  60 002c 1A60     		str	r2, [r3]
  61 002e 08BD     		pop	{r3, pc}
  62              	.L4:
  63              		.align	2
  64              	.L3:
  65 0030 99650040 		.word	1073767833
  66 0034 00E100E0 		.word	-536813312
  67              		.cfi_endproc
  68              	.LFE1:
  69              		.size	SPIS_Enable, .-SPIS_Enable
  70              		.section	.text.SPIS_Stop,"ax",%progbits
ARM GAS  C:\Users\Mathias\AppData\Local\Temp\ccH8Ni7h.s 			page 5


  71              		.align	2
  72              		.global	SPIS_Stop
  73              		.thumb
  74              		.thumb_func
  75              		.type	SPIS_Stop, %function
  76              	SPIS_Stop:
  77              	.LFB3:
 159:Generated_Source\PSoC5/SPIS.c ****     #endif /* SPIS_INTERNAL_RX_INT_ENABLED */
 160:Generated_Source\PSoC5/SPIS.c **** }
 161:Generated_Source\PSoC5/SPIS.c **** 
 162:Generated_Source\PSoC5/SPIS.c **** 
 163:Generated_Source\PSoC5/SPIS.c **** /*******************************************************************************
 164:Generated_Source\PSoC5/SPIS.c **** * Function Name: SPIS_Start
 165:Generated_Source\PSoC5/SPIS.c **** ********************************************************************************
 166:Generated_Source\PSoC5/SPIS.c **** *
 167:Generated_Source\PSoC5/SPIS.c **** * Summary:
 168:Generated_Source\PSoC5/SPIS.c **** *  Initialize and Enable the SPI Slave component.
 169:Generated_Source\PSoC5/SPIS.c **** *
 170:Generated_Source\PSoC5/SPIS.c **** * Parameters:
 171:Generated_Source\PSoC5/SPIS.c **** *  None.
 172:Generated_Source\PSoC5/SPIS.c **** *
 173:Generated_Source\PSoC5/SPIS.c **** * Return:
 174:Generated_Source\PSoC5/SPIS.c **** *  None.
 175:Generated_Source\PSoC5/SPIS.c **** *
 176:Generated_Source\PSoC5/SPIS.c **** * Global variables:
 177:Generated_Source\PSoC5/SPIS.c **** *  SPIS_initVar - used to check initial configuration, modified on
 178:Generated_Source\PSoC5/SPIS.c **** *  first function call.
 179:Generated_Source\PSoC5/SPIS.c **** *
 180:Generated_Source\PSoC5/SPIS.c **** * Theory:
 181:Generated_Source\PSoC5/SPIS.c **** *  Enable the clock input to enable operation.
 182:Generated_Source\PSoC5/SPIS.c **** *
 183:Generated_Source\PSoC5/SPIS.c **** * Reentrant:
 184:Generated_Source\PSoC5/SPIS.c **** *  No.
 185:Generated_Source\PSoC5/SPIS.c **** *
 186:Generated_Source\PSoC5/SPIS.c **** *******************************************************************************/
 187:Generated_Source\PSoC5/SPIS.c **** void SPIS_Start(void) 
 188:Generated_Source\PSoC5/SPIS.c **** {
 189:Generated_Source\PSoC5/SPIS.c ****     if(SPIS_initVar == 0u)
 190:Generated_Source\PSoC5/SPIS.c ****     {
 191:Generated_Source\PSoC5/SPIS.c ****         SPIS_Init();
 192:Generated_Source\PSoC5/SPIS.c ****         SPIS_initVar = 1u;
 193:Generated_Source\PSoC5/SPIS.c ****     }
 194:Generated_Source\PSoC5/SPIS.c **** 
 195:Generated_Source\PSoC5/SPIS.c ****     SPIS_Enable();
 196:Generated_Source\PSoC5/SPIS.c **** }
 197:Generated_Source\PSoC5/SPIS.c **** 
 198:Generated_Source\PSoC5/SPIS.c **** 
 199:Generated_Source\PSoC5/SPIS.c **** /*******************************************************************************
 200:Generated_Source\PSoC5/SPIS.c **** * Function Name: SPIS_Stop
 201:Generated_Source\PSoC5/SPIS.c **** ********************************************************************************
 202:Generated_Source\PSoC5/SPIS.c **** *
 203:Generated_Source\PSoC5/SPIS.c **** * Summary:
 204:Generated_Source\PSoC5/SPIS.c **** *  Disable the SPI Slave component.
 205:Generated_Source\PSoC5/SPIS.c **** *
 206:Generated_Source\PSoC5/SPIS.c **** * Parameters:
 207:Generated_Source\PSoC5/SPIS.c **** *  None.
 208:Generated_Source\PSoC5/SPIS.c **** *
ARM GAS  C:\Users\Mathias\AppData\Local\Temp\ccH8Ni7h.s 			page 6


 209:Generated_Source\PSoC5/SPIS.c **** * Return:
 210:Generated_Source\PSoC5/SPIS.c **** *  None.
 211:Generated_Source\PSoC5/SPIS.c **** *
 212:Generated_Source\PSoC5/SPIS.c **** * Theory:
 213:Generated_Source\PSoC5/SPIS.c **** *  Disable the internal interrupt if one is used.
 214:Generated_Source\PSoC5/SPIS.c **** *
 215:Generated_Source\PSoC5/SPIS.c **** *******************************************************************************/
 216:Generated_Source\PSoC5/SPIS.c **** void SPIS_Stop(void) 
 217:Generated_Source\PSoC5/SPIS.c **** {
  78              		.loc 1 217 0
  79              		.cfi_startproc
  80              		@ args = 0, pretend = 0, frame = 0
  81              		@ frame_needed = 0, uses_anonymous_args = 0
  82 0000 08B5     		push	{r3, lr}
  83              		.cfi_def_cfa_offset 8
  84              		.cfi_offset 3, -8
  85              		.cfi_offset 14, -4
 218:Generated_Source\PSoC5/SPIS.c ****     uint8 enableInterrupts;
 219:Generated_Source\PSoC5/SPIS.c ****     enableInterrupts = CyEnterCriticalSection();
  86              		.loc 1 219 0
  87 0002 FFF7FEFF 		bl	CyEnterCriticalSection
  88              	.LVL2:
 220:Generated_Source\PSoC5/SPIS.c **** 
 221:Generated_Source\PSoC5/SPIS.c ****     SPIS_TX_STATUS_ACTL_REG &= (uint8)~SPIS_INT_ENABLE;
  89              		.loc 1 221 0
  90 0006 084A     		ldr	r2, .L7
  91 0008 1378     		ldrb	r3, [r2]	@ zero_extendqisi2
  92 000a 03F0EF03 		and	r3, r3, #239
  93 000e 1370     		strb	r3, [r2]
 222:Generated_Source\PSoC5/SPIS.c ****     SPIS_RX_STATUS_ACTL_REG &= (uint8)~SPIS_INT_ENABLE;
  94              		.loc 1 222 0
  95 0010 FE3A     		subs	r2, r2, #254
  96 0012 1378     		ldrb	r3, [r2]	@ zero_extendqisi2
  97 0014 03F0EF03 		and	r3, r3, #239
  98 0018 1370     		strb	r3, [r2]
 223:Generated_Source\PSoC5/SPIS.c **** 
 224:Generated_Source\PSoC5/SPIS.c ****     CyExitCriticalSection(enableInterrupts);
  99              		.loc 1 224 0
 100 001a FFF7FEFF 		bl	CyExitCriticalSection
 101              	.LVL3:
 225:Generated_Source\PSoC5/SPIS.c **** 
 226:Generated_Source\PSoC5/SPIS.c ****     #if(SPIS_INTERNAL_TX_INT_ENABLED)
 227:Generated_Source\PSoC5/SPIS.c ****         CyIntDisable(SPIS_TX_ISR_NUMBER);
 228:Generated_Source\PSoC5/SPIS.c ****     #endif /* SPIS_INTERNAL_TX_INT_ENABLED */
 229:Generated_Source\PSoC5/SPIS.c **** 
 230:Generated_Source\PSoC5/SPIS.c ****     #if(SPIS_INTERNAL_RX_INT_ENABLED)
 231:Generated_Source\PSoC5/SPIS.c ****         CyIntDisable(SPIS_RX_ISR_NUMBER);
 102              		.loc 1 231 0
 103 001e 0122     		movs	r2, #1
 104 0020 024B     		ldr	r3, .L7+4
 105 0022 1A60     		str	r2, [r3]
 106 0024 08BD     		pop	{r3, pc}
 107              	.L8:
 108 0026 00BF     		.align	2
 109              	.L7:
 110 0028 98650040 		.word	1073767832
 111 002c 80E100E0 		.word	-536813184
ARM GAS  C:\Users\Mathias\AppData\Local\Temp\ccH8Ni7h.s 			page 7


 112              		.cfi_endproc
 113              	.LFE3:
 114              		.size	SPIS_Stop, .-SPIS_Stop
 115              		.section	.text.SPIS_EnableTxInt,"ax",%progbits
 116              		.align	2
 117              		.global	SPIS_EnableTxInt
 118              		.thumb
 119              		.thumb_func
 120              		.type	SPIS_EnableTxInt, %function
 121              	SPIS_EnableTxInt:
 122              	.LFB4:
 232:Generated_Source\PSoC5/SPIS.c ****     #endif /* SPIS_INTERNAL_RX_INT_ENABLED */
 233:Generated_Source\PSoC5/SPIS.c **** }
 234:Generated_Source\PSoC5/SPIS.c **** 
 235:Generated_Source\PSoC5/SPIS.c **** 
 236:Generated_Source\PSoC5/SPIS.c **** /*******************************************************************************
 237:Generated_Source\PSoC5/SPIS.c **** * Function Name: SPIS_EnableTxInt
 238:Generated_Source\PSoC5/SPIS.c **** ********************************************************************************
 239:Generated_Source\PSoC5/SPIS.c **** *
 240:Generated_Source\PSoC5/SPIS.c **** * Summary:
 241:Generated_Source\PSoC5/SPIS.c **** *  Enable internal Tx interrupt generation.
 242:Generated_Source\PSoC5/SPIS.c **** *
 243:Generated_Source\PSoC5/SPIS.c **** * Parameters:
 244:Generated_Source\PSoC5/SPIS.c **** *  None.
 245:Generated_Source\PSoC5/SPIS.c **** *
 246:Generated_Source\PSoC5/SPIS.c **** * Return:
 247:Generated_Source\PSoC5/SPIS.c **** *  None.
 248:Generated_Source\PSoC5/SPIS.c **** *
 249:Generated_Source\PSoC5/SPIS.c **** * Theory:
 250:Generated_Source\PSoC5/SPIS.c **** *  Enable the internal Tx interrupt output -or- the interrupt component itself.
 251:Generated_Source\PSoC5/SPIS.c **** *
 252:Generated_Source\PSoC5/SPIS.c **** *******************************************************************************/
 253:Generated_Source\PSoC5/SPIS.c **** void SPIS_EnableTxInt(void) 
 254:Generated_Source\PSoC5/SPIS.c **** {
 123              		.loc 1 254 0
 124              		.cfi_startproc
 125              		@ args = 0, pretend = 0, frame = 0
 126              		@ frame_needed = 0, uses_anonymous_args = 0
 127              		@ link register save eliminated.
 128 0000 7047     		bx	lr
 129              		.cfi_endproc
 130              	.LFE4:
 131              		.size	SPIS_EnableTxInt, .-SPIS_EnableTxInt
 132 0002 00BF     		.section	.text.SPIS_EnableRxInt,"ax",%progbits
 133              		.align	2
 134              		.global	SPIS_EnableRxInt
 135              		.thumb
 136              		.thumb_func
 137              		.type	SPIS_EnableRxInt, %function
 138              	SPIS_EnableRxInt:
 139              	.LFB5:
 255:Generated_Source\PSoC5/SPIS.c ****     #if(SPIS_INTERNAL_TX_INT_ENABLED)
 256:Generated_Source\PSoC5/SPIS.c ****         CyIntEnable(SPIS_TX_ISR_NUMBER);
 257:Generated_Source\PSoC5/SPIS.c ****     #endif /* SPIS_INTERNAL_TX_INT_ENABLED */
 258:Generated_Source\PSoC5/SPIS.c **** }
 259:Generated_Source\PSoC5/SPIS.c **** 
 260:Generated_Source\PSoC5/SPIS.c **** 
ARM GAS  C:\Users\Mathias\AppData\Local\Temp\ccH8Ni7h.s 			page 8


 261:Generated_Source\PSoC5/SPIS.c **** /*******************************************************************************
 262:Generated_Source\PSoC5/SPIS.c **** * Function Name: SPIS_EnableRxInt
 263:Generated_Source\PSoC5/SPIS.c **** ********************************************************************************
 264:Generated_Source\PSoC5/SPIS.c **** *
 265:Generated_Source\PSoC5/SPIS.c **** * Summary:
 266:Generated_Source\PSoC5/SPIS.c **** *  Enable internal Rx interrupt generation.
 267:Generated_Source\PSoC5/SPIS.c **** *
 268:Generated_Source\PSoC5/SPIS.c **** * Parameters:
 269:Generated_Source\PSoC5/SPIS.c **** *  None.
 270:Generated_Source\PSoC5/SPIS.c **** *
 271:Generated_Source\PSoC5/SPIS.c **** * Return:
 272:Generated_Source\PSoC5/SPIS.c **** *  None.
 273:Generated_Source\PSoC5/SPIS.c **** *
 274:Generated_Source\PSoC5/SPIS.c **** * Theory:
 275:Generated_Source\PSoC5/SPIS.c **** *  Enable the internal Rx interrupt output -or- the interrupt component itself.
 276:Generated_Source\PSoC5/SPIS.c **** *
 277:Generated_Source\PSoC5/SPIS.c **** *******************************************************************************/
 278:Generated_Source\PSoC5/SPIS.c **** void SPIS_EnableRxInt(void) 
 279:Generated_Source\PSoC5/SPIS.c **** {
 140              		.loc 1 279 0
 141              		.cfi_startproc
 142              		@ args = 0, pretend = 0, frame = 0
 143              		@ frame_needed = 0, uses_anonymous_args = 0
 144              		@ link register save eliminated.
 280:Generated_Source\PSoC5/SPIS.c ****     #if(SPIS_INTERNAL_RX_INT_ENABLED)
 281:Generated_Source\PSoC5/SPIS.c ****         CyIntEnable(SPIS_RX_ISR_NUMBER);
 145              		.loc 1 281 0
 146 0000 0122     		movs	r2, #1
 147 0002 014B     		ldr	r3, .L11
 148 0004 1A60     		str	r2, [r3]
 149 0006 7047     		bx	lr
 150              	.L12:
 151              		.align	2
 152              	.L11:
 153 0008 00E100E0 		.word	-536813312
 154              		.cfi_endproc
 155              	.LFE5:
 156              		.size	SPIS_EnableRxInt, .-SPIS_EnableRxInt
 157              		.section	.text.SPIS_DisableTxInt,"ax",%progbits
 158              		.align	2
 159              		.global	SPIS_DisableTxInt
 160              		.thumb
 161              		.thumb_func
 162              		.type	SPIS_DisableTxInt, %function
 163              	SPIS_DisableTxInt:
 164              	.LFB6:
 282:Generated_Source\PSoC5/SPIS.c ****     #endif /* SPIS_INTERNAL_RX_INT_ENABLED */
 283:Generated_Source\PSoC5/SPIS.c **** }
 284:Generated_Source\PSoC5/SPIS.c **** 
 285:Generated_Source\PSoC5/SPIS.c **** 
 286:Generated_Source\PSoC5/SPIS.c **** /*******************************************************************************
 287:Generated_Source\PSoC5/SPIS.c **** * Function Name: SPIS_DisableTxInt
 288:Generated_Source\PSoC5/SPIS.c **** ********************************************************************************
 289:Generated_Source\PSoC5/SPIS.c **** *
 290:Generated_Source\PSoC5/SPIS.c **** * Summary:
 291:Generated_Source\PSoC5/SPIS.c **** *  Disable internal Tx interrupt generation.
 292:Generated_Source\PSoC5/SPIS.c **** *
ARM GAS  C:\Users\Mathias\AppData\Local\Temp\ccH8Ni7h.s 			page 9


 293:Generated_Source\PSoC5/SPIS.c **** * Parameters:
 294:Generated_Source\PSoC5/SPIS.c **** *  None.
 295:Generated_Source\PSoC5/SPIS.c **** *
 296:Generated_Source\PSoC5/SPIS.c **** * Return:
 297:Generated_Source\PSoC5/SPIS.c **** *  None.
 298:Generated_Source\PSoC5/SPIS.c **** *
 299:Generated_Source\PSoC5/SPIS.c **** * Theory:
 300:Generated_Source\PSoC5/SPIS.c **** *  Disable the internal Tx interrupt output -or- the interrupt component itself.
 301:Generated_Source\PSoC5/SPIS.c **** *
 302:Generated_Source\PSoC5/SPIS.c **** *******************************************************************************/
 303:Generated_Source\PSoC5/SPIS.c **** void SPIS_DisableTxInt(void) 
 304:Generated_Source\PSoC5/SPIS.c **** {
 165              		.loc 1 304 0
 166              		.cfi_startproc
 167              		@ args = 0, pretend = 0, frame = 0
 168              		@ frame_needed = 0, uses_anonymous_args = 0
 169              		@ link register save eliminated.
 170 0000 7047     		bx	lr
 171              		.cfi_endproc
 172              	.LFE6:
 173              		.size	SPIS_DisableTxInt, .-SPIS_DisableTxInt
 174 0002 00BF     		.section	.text.SPIS_DisableRxInt,"ax",%progbits
 175              		.align	2
 176              		.global	SPIS_DisableRxInt
 177              		.thumb
 178              		.thumb_func
 179              		.type	SPIS_DisableRxInt, %function
 180              	SPIS_DisableRxInt:
 181              	.LFB7:
 305:Generated_Source\PSoC5/SPIS.c ****     #if(SPIS_INTERNAL_TX_INT_ENABLED)
 306:Generated_Source\PSoC5/SPIS.c ****         CyIntDisable(SPIS_TX_ISR_NUMBER);
 307:Generated_Source\PSoC5/SPIS.c ****     #endif /* SPIS_INTERNAL_TX_INT_ENABLED */
 308:Generated_Source\PSoC5/SPIS.c **** }
 309:Generated_Source\PSoC5/SPIS.c **** 
 310:Generated_Source\PSoC5/SPIS.c **** 
 311:Generated_Source\PSoC5/SPIS.c **** /*******************************************************************************
 312:Generated_Source\PSoC5/SPIS.c **** * Function Name: SPIS_DisableRxInt
 313:Generated_Source\PSoC5/SPIS.c **** ********************************************************************************
 314:Generated_Source\PSoC5/SPIS.c **** *
 315:Generated_Source\PSoC5/SPIS.c **** * Summary:
 316:Generated_Source\PSoC5/SPIS.c **** *  Disable internal Rx interrupt generation.
 317:Generated_Source\PSoC5/SPIS.c **** *
 318:Generated_Source\PSoC5/SPIS.c **** * Parameters:
 319:Generated_Source\PSoC5/SPIS.c **** *  None.
 320:Generated_Source\PSoC5/SPIS.c **** *
 321:Generated_Source\PSoC5/SPIS.c **** * Return:
 322:Generated_Source\PSoC5/SPIS.c **** *  None.
 323:Generated_Source\PSoC5/SPIS.c **** *
 324:Generated_Source\PSoC5/SPIS.c **** * Theory:
 325:Generated_Source\PSoC5/SPIS.c **** *  Disable the internal Rx interrupt output -or- the interrupt component itself.
 326:Generated_Source\PSoC5/SPIS.c **** *
 327:Generated_Source\PSoC5/SPIS.c **** *******************************************************************************/
 328:Generated_Source\PSoC5/SPIS.c **** void SPIS_DisableRxInt(void) 
 329:Generated_Source\PSoC5/SPIS.c **** {
 182              		.loc 1 329 0
 183              		.cfi_startproc
 184              		@ args = 0, pretend = 0, frame = 0
ARM GAS  C:\Users\Mathias\AppData\Local\Temp\ccH8Ni7h.s 			page 10


 185              		@ frame_needed = 0, uses_anonymous_args = 0
 186              		@ link register save eliminated.
 330:Generated_Source\PSoC5/SPIS.c ****     #if(SPIS_INTERNAL_RX_INT_ENABLED)
 331:Generated_Source\PSoC5/SPIS.c ****         CyIntDisable(SPIS_RX_ISR_NUMBER);
 187              		.loc 1 331 0
 188 0000 0122     		movs	r2, #1
 189 0002 014B     		ldr	r3, .L15
 190 0004 1A60     		str	r2, [r3]
 191 0006 7047     		bx	lr
 192              	.L16:
 193              		.align	2
 194              	.L15:
 195 0008 80E100E0 		.word	-536813184
 196              		.cfi_endproc
 197              	.LFE7:
 198              		.size	SPIS_DisableRxInt, .-SPIS_DisableRxInt
 199              		.section	.text.SPIS_SetTxInterruptMode,"ax",%progbits
 200              		.align	2
 201              		.global	SPIS_SetTxInterruptMode
 202              		.thumb
 203              		.thumb_func
 204              		.type	SPIS_SetTxInterruptMode, %function
 205              	SPIS_SetTxInterruptMode:
 206              	.LFB8:
 332:Generated_Source\PSoC5/SPIS.c ****     #endif /* SPIS_INTERNAL_RX_INT_ENABLED */
 333:Generated_Source\PSoC5/SPIS.c **** }
 334:Generated_Source\PSoC5/SPIS.c **** 
 335:Generated_Source\PSoC5/SPIS.c **** 
 336:Generated_Source\PSoC5/SPIS.c **** /*******************************************************************************
 337:Generated_Source\PSoC5/SPIS.c **** * Function Name: SPIS_SetTxInterruptMode
 338:Generated_Source\PSoC5/SPIS.c **** ********************************************************************************
 339:Generated_Source\PSoC5/SPIS.c **** *
 340:Generated_Source\PSoC5/SPIS.c **** * Summary:
 341:Generated_Source\PSoC5/SPIS.c **** *  Configure which status bits trigger an interrupt event.
 342:Generated_Source\PSoC5/SPIS.c **** *
 343:Generated_Source\PSoC5/SPIS.c **** * Parameters:
 344:Generated_Source\PSoC5/SPIS.c **** *  intSrc: An or'd combination of the desired status bit masks (defined in the
 345:Generated_Source\PSoC5/SPIS.c **** *  header file).
 346:Generated_Source\PSoC5/SPIS.c **** *
 347:Generated_Source\PSoC5/SPIS.c **** * Return:
 348:Generated_Source\PSoC5/SPIS.c **** *  None.
 349:Generated_Source\PSoC5/SPIS.c **** *
 350:Generated_Source\PSoC5/SPIS.c **** * Theory:
 351:Generated_Source\PSoC5/SPIS.c **** *  Enables the output of specific status bits to the interrupt controller.
 352:Generated_Source\PSoC5/SPIS.c **** *
 353:Generated_Source\PSoC5/SPIS.c **** *******************************************************************************/
 354:Generated_Source\PSoC5/SPIS.c **** void SPIS_SetTxInterruptMode(uint8 intSrc) 
 355:Generated_Source\PSoC5/SPIS.c **** {
 207              		.loc 1 355 0
 208              		.cfi_startproc
 209              		@ args = 0, pretend = 0, frame = 0
 210              		@ frame_needed = 0, uses_anonymous_args = 0
 211              		@ link register save eliminated.
 212              	.LVL4:
 356:Generated_Source\PSoC5/SPIS.c ****     SPIS_TX_STATUS_MASK_REG  = intSrc;
 213              		.loc 1 356 0
 214 0000 014B     		ldr	r3, .L18
ARM GAS  C:\Users\Mathias\AppData\Local\Temp\ccH8Ni7h.s 			page 11


 215 0002 1870     		strb	r0, [r3]
 216 0004 7047     		bx	lr
 217              	.L19:
 218 0006 00BF     		.align	2
 219              	.L18:
 220 0008 88650040 		.word	1073767816
 221              		.cfi_endproc
 222              	.LFE8:
 223              		.size	SPIS_SetTxInterruptMode, .-SPIS_SetTxInterruptMode
 224              		.section	.text.SPIS_SetRxInterruptMode,"ax",%progbits
 225              		.align	2
 226              		.global	SPIS_SetRxInterruptMode
 227              		.thumb
 228              		.thumb_func
 229              		.type	SPIS_SetRxInterruptMode, %function
 230              	SPIS_SetRxInterruptMode:
 231              	.LFB9:
 357:Generated_Source\PSoC5/SPIS.c **** }
 358:Generated_Source\PSoC5/SPIS.c **** 
 359:Generated_Source\PSoC5/SPIS.c **** 
 360:Generated_Source\PSoC5/SPIS.c **** /*******************************************************************************
 361:Generated_Source\PSoC5/SPIS.c **** * Function Name: SPIS_SetRxInterruptMode
 362:Generated_Source\PSoC5/SPIS.c **** ********************************************************************************
 363:Generated_Source\PSoC5/SPIS.c **** *
 364:Generated_Source\PSoC5/SPIS.c **** * Summary:
 365:Generated_Source\PSoC5/SPIS.c **** *  Configure which status bits trigger an interrupt event.
 366:Generated_Source\PSoC5/SPIS.c **** *
 367:Generated_Source\PSoC5/SPIS.c **** * Parameters:
 368:Generated_Source\PSoC5/SPIS.c **** *  intSrc: An or'd combination of the desired status bit masks (defined in the
 369:Generated_Source\PSoC5/SPIS.c **** *  header file).
 370:Generated_Source\PSoC5/SPIS.c **** *
 371:Generated_Source\PSoC5/SPIS.c **** * Return:
 372:Generated_Source\PSoC5/SPIS.c **** *  None.
 373:Generated_Source\PSoC5/SPIS.c **** *
 374:Generated_Source\PSoC5/SPIS.c **** * Theory:
 375:Generated_Source\PSoC5/SPIS.c **** *  Enables the output of specific status bits to the interrupt controller.
 376:Generated_Source\PSoC5/SPIS.c **** *
 377:Generated_Source\PSoC5/SPIS.c **** *******************************************************************************/
 378:Generated_Source\PSoC5/SPIS.c **** void SPIS_SetRxInterruptMode(uint8 intSrc) 
 379:Generated_Source\PSoC5/SPIS.c **** {
 232              		.loc 1 379 0
 233              		.cfi_startproc
 234              		@ args = 0, pretend = 0, frame = 0
 235              		@ frame_needed = 0, uses_anonymous_args = 0
 236              		@ link register save eliminated.
 237              	.LVL5:
 380:Generated_Source\PSoC5/SPIS.c ****     SPIS_RX_STATUS_MASK_REG  = intSrc;
 238              		.loc 1 380 0
 239 0000 014B     		ldr	r3, .L21
 240 0002 1870     		strb	r0, [r3]
 241 0004 7047     		bx	lr
 242              	.L22:
 243 0006 00BF     		.align	2
 244              	.L21:
 245 0008 8A640040 		.word	1073767562
 246              		.cfi_endproc
 247              	.LFE9:
ARM GAS  C:\Users\Mathias\AppData\Local\Temp\ccH8Ni7h.s 			page 12


 248              		.size	SPIS_SetRxInterruptMode, .-SPIS_SetRxInterruptMode
 249              		.section	.text.SPIS_ReadTxStatus,"ax",%progbits
 250              		.align	2
 251              		.global	SPIS_ReadTxStatus
 252              		.thumb
 253              		.thumb_func
 254              		.type	SPIS_ReadTxStatus, %function
 255              	SPIS_ReadTxStatus:
 256              	.LFB10:
 381:Generated_Source\PSoC5/SPIS.c **** }
 382:Generated_Source\PSoC5/SPIS.c **** 
 383:Generated_Source\PSoC5/SPIS.c **** 
 384:Generated_Source\PSoC5/SPIS.c **** /*******************************************************************************
 385:Generated_Source\PSoC5/SPIS.c **** * Function Name: SPIS_ReadTxStatus
 386:Generated_Source\PSoC5/SPIS.c **** ********************************************************************************
 387:Generated_Source\PSoC5/SPIS.c **** *
 388:Generated_Source\PSoC5/SPIS.c **** * Summary:
 389:Generated_Source\PSoC5/SPIS.c **** *  Read the Tx status register for the component.
 390:Generated_Source\PSoC5/SPIS.c **** *
 391:Generated_Source\PSoC5/SPIS.c **** * Parameters:
 392:Generated_Source\PSoC5/SPIS.c **** *  None.
 393:Generated_Source\PSoC5/SPIS.c **** *
 394:Generated_Source\PSoC5/SPIS.c **** * Return:
 395:Generated_Source\PSoC5/SPIS.c **** *  Contents of the Tx status register.
 396:Generated_Source\PSoC5/SPIS.c **** *
 397:Generated_Source\PSoC5/SPIS.c **** * Global variables:
 398:Generated_Source\PSoC5/SPIS.c **** *  SPIS_swStatusTx - used to store in software status register,
 399:Generated_Source\PSoC5/SPIS.c **** *  modified every function call - resets to zero.
 400:Generated_Source\PSoC5/SPIS.c **** *
 401:Generated_Source\PSoC5/SPIS.c **** * Theory:
 402:Generated_Source\PSoC5/SPIS.c **** *  Allows the user and the API to read the Tx status register for error
 403:Generated_Source\PSoC5/SPIS.c **** *  detection and flow control.
 404:Generated_Source\PSoC5/SPIS.c **** *
 405:Generated_Source\PSoC5/SPIS.c **** * Side Effects:
 406:Generated_Source\PSoC5/SPIS.c **** *  Clear Tx status register of the component.
 407:Generated_Source\PSoC5/SPIS.c **** *
 408:Generated_Source\PSoC5/SPIS.c **** * Reentrant:
 409:Generated_Source\PSoC5/SPIS.c **** *  No.
 410:Generated_Source\PSoC5/SPIS.c **** *
 411:Generated_Source\PSoC5/SPIS.c **** *******************************************************************************/
 412:Generated_Source\PSoC5/SPIS.c **** uint8 SPIS_ReadTxStatus(void) 
 413:Generated_Source\PSoC5/SPIS.c **** {
 257              		.loc 1 413 0
 258              		.cfi_startproc
 259              		@ args = 0, pretend = 0, frame = 0
 260              		@ frame_needed = 0, uses_anonymous_args = 0
 261              		@ link register save eliminated.
 414:Generated_Source\PSoC5/SPIS.c ****     uint8 tmpStatus;
 415:Generated_Source\PSoC5/SPIS.c **** 
 416:Generated_Source\PSoC5/SPIS.c ****     #if (SPIS_TX_SOFTWARE_BUF_ENABLED)
 417:Generated_Source\PSoC5/SPIS.c **** 
 418:Generated_Source\PSoC5/SPIS.c ****         SPIS_DisableTxInt();
 419:Generated_Source\PSoC5/SPIS.c **** 
 420:Generated_Source\PSoC5/SPIS.c ****         tmpStatus = SPIS_GET_STATUS_TX(SPIS_swStatusTx);
 421:Generated_Source\PSoC5/SPIS.c **** 
 422:Generated_Source\PSoC5/SPIS.c ****         SPIS_swStatusTx = 0u;
 423:Generated_Source\PSoC5/SPIS.c **** 
ARM GAS  C:\Users\Mathias\AppData\Local\Temp\ccH8Ni7h.s 			page 13


 424:Generated_Source\PSoC5/SPIS.c ****         /* Enable Interrupts */
 425:Generated_Source\PSoC5/SPIS.c ****         SPIS_EnableTxInt();
 426:Generated_Source\PSoC5/SPIS.c **** 
 427:Generated_Source\PSoC5/SPIS.c ****     #else /* !SPIS_TX_SOFTWARE_BUF_ENABLED */
 428:Generated_Source\PSoC5/SPIS.c **** 
 429:Generated_Source\PSoC5/SPIS.c ****         tmpStatus = SPIS_TX_STATUS_REG;
 262              		.loc 1 429 0
 263 0000 014B     		ldr	r3, .L24
 264 0002 1878     		ldrb	r0, [r3]	@ zero_extendqisi2
 265              	.LVL6:
 430:Generated_Source\PSoC5/SPIS.c **** 
 431:Generated_Source\PSoC5/SPIS.c ****     #endif /* SPIS_TX_SOFTWARE_BUF_ENABLED */
 432:Generated_Source\PSoC5/SPIS.c **** 
 433:Generated_Source\PSoC5/SPIS.c ****     return(tmpStatus);
 434:Generated_Source\PSoC5/SPIS.c **** }
 266              		.loc 1 434 0
 267 0004 7047     		bx	lr
 268              	.L25:
 269 0006 00BF     		.align	2
 270              	.L24:
 271 0008 68650040 		.word	1073767784
 272              		.cfi_endproc
 273              	.LFE10:
 274              		.size	SPIS_ReadTxStatus, .-SPIS_ReadTxStatus
 275              		.section	.text.SPIS_ReadRxStatus,"ax",%progbits
 276              		.align	2
 277              		.global	SPIS_ReadRxStatus
 278              		.thumb
 279              		.thumb_func
 280              		.type	SPIS_ReadRxStatus, %function
 281              	SPIS_ReadRxStatus:
 282              	.LFB11:
 435:Generated_Source\PSoC5/SPIS.c **** 
 436:Generated_Source\PSoC5/SPIS.c **** 
 437:Generated_Source\PSoC5/SPIS.c **** /*******************************************************************************
 438:Generated_Source\PSoC5/SPIS.c **** * Function Name: SPIS_ReadRxStatus
 439:Generated_Source\PSoC5/SPIS.c **** ********************************************************************************
 440:Generated_Source\PSoC5/SPIS.c **** *
 441:Generated_Source\PSoC5/SPIS.c **** * Summary:
 442:Generated_Source\PSoC5/SPIS.c **** *  Read the Rx status register for the component.
 443:Generated_Source\PSoC5/SPIS.c **** *
 444:Generated_Source\PSoC5/SPIS.c **** * Parameters:
 445:Generated_Source\PSoC5/SPIS.c **** *  None.
 446:Generated_Source\PSoC5/SPIS.c **** *
 447:Generated_Source\PSoC5/SPIS.c **** * Return:
 448:Generated_Source\PSoC5/SPIS.c **** *  Contents of the Rx status register.
 449:Generated_Source\PSoC5/SPIS.c **** *
 450:Generated_Source\PSoC5/SPIS.c **** * Global variables:
 451:Generated_Source\PSoC5/SPIS.c **** *  SPIS_swStatusRx - used to store in software Rx status register,
 452:Generated_Source\PSoC5/SPIS.c **** *  modified every function call - resets to zero.
 453:Generated_Source\PSoC5/SPIS.c **** *
 454:Generated_Source\PSoC5/SPIS.c **** * Theory:
 455:Generated_Source\PSoC5/SPIS.c **** *  Allows the user and the API to read the Rx status register for error
 456:Generated_Source\PSoC5/SPIS.c **** *  detection and flow control.
 457:Generated_Source\PSoC5/SPIS.c **** *
 458:Generated_Source\PSoC5/SPIS.c **** * Side Effects:
 459:Generated_Source\PSoC5/SPIS.c **** *  Clear Rx status register of the component.
ARM GAS  C:\Users\Mathias\AppData\Local\Temp\ccH8Ni7h.s 			page 14


 460:Generated_Source\PSoC5/SPIS.c **** *
 461:Generated_Source\PSoC5/SPIS.c **** * Reentrant:
 462:Generated_Source\PSoC5/SPIS.c **** *  No.
 463:Generated_Source\PSoC5/SPIS.c **** *
 464:Generated_Source\PSoC5/SPIS.c **** *******************************************************************************/
 465:Generated_Source\PSoC5/SPIS.c **** uint8 SPIS_ReadRxStatus(void) 
 466:Generated_Source\PSoC5/SPIS.c **** {
 283              		.loc 1 466 0
 284              		.cfi_startproc
 285              		@ args = 0, pretend = 0, frame = 0
 286              		@ frame_needed = 0, uses_anonymous_args = 0
 287 0000 10B5     		push	{r4, lr}
 288              		.cfi_def_cfa_offset 8
 289              		.cfi_offset 4, -8
 290              		.cfi_offset 14, -4
 467:Generated_Source\PSoC5/SPIS.c ****     uint8 tmpStatus;
 468:Generated_Source\PSoC5/SPIS.c **** 
 469:Generated_Source\PSoC5/SPIS.c ****     #if (SPIS_RX_SOFTWARE_BUF_ENABLED)
 470:Generated_Source\PSoC5/SPIS.c **** 
 471:Generated_Source\PSoC5/SPIS.c ****         SPIS_DisableRxInt();
 291              		.loc 1 471 0
 292 0002 FFF7FEFF 		bl	SPIS_DisableRxInt
 293              	.LVL7:
 472:Generated_Source\PSoC5/SPIS.c **** 
 473:Generated_Source\PSoC5/SPIS.c ****         tmpStatus = SPIS_GET_STATUS_RX(SPIS_swStatusRx);
 294              		.loc 1 473 0
 295 0006 064B     		ldr	r3, .L28
 296 0008 1C78     		ldrb	r4, [r3]	@ zero_extendqisi2
 297 000a 064A     		ldr	r2, .L28+4
 298 000c 1378     		ldrb	r3, [r2]	@ zero_extendqisi2
 299 000e 03F06103 		and	r3, r3, #97
 300 0012 1C43     		orrs	r4, r4, r3
 301              	.LVL8:
 474:Generated_Source\PSoC5/SPIS.c **** 
 475:Generated_Source\PSoC5/SPIS.c ****         SPIS_swStatusRx = 0u;
 302              		.loc 1 475 0
 303 0014 0023     		movs	r3, #0
 304 0016 1370     		strb	r3, [r2]
 476:Generated_Source\PSoC5/SPIS.c **** 
 477:Generated_Source\PSoC5/SPIS.c ****         /* Enable Interrupts */
 478:Generated_Source\PSoC5/SPIS.c ****         SPIS_EnableRxInt();
 305              		.loc 1 478 0
 306 0018 FFF7FEFF 		bl	SPIS_EnableRxInt
 307              	.LVL9:
 479:Generated_Source\PSoC5/SPIS.c **** 
 480:Generated_Source\PSoC5/SPIS.c ****     #else /* !SPIS_RX_SOFTWARE_BUF_ENABLED */
 481:Generated_Source\PSoC5/SPIS.c **** 
 482:Generated_Source\PSoC5/SPIS.c ****         tmpStatus = SPIS_RX_STATUS_REG;
 483:Generated_Source\PSoC5/SPIS.c **** 
 484:Generated_Source\PSoC5/SPIS.c ****     #endif /* SPIS_RX_SOFTWARE_BUF_ENABLED */
 485:Generated_Source\PSoC5/SPIS.c **** 
 486:Generated_Source\PSoC5/SPIS.c ****     return(tmpStatus);
 487:Generated_Source\PSoC5/SPIS.c **** }
 308              		.loc 1 487 0
 309 001c 2046     		mov	r0, r4
 310 001e 10BD     		pop	{r4, pc}
 311              	.LVL10:
ARM GAS  C:\Users\Mathias\AppData\Local\Temp\ccH8Ni7h.s 			page 15


 312              	.L29:
 313              		.align	2
 314              	.L28:
 315 0020 6A640040 		.word	1073767530
 316 0024 00000000 		.word	SPIS_swStatusRx
 317              		.cfi_endproc
 318              	.LFE11:
 319              		.size	SPIS_ReadRxStatus, .-SPIS_ReadRxStatus
 320              		.section	.text.SPIS_WriteTxData,"ax",%progbits
 321              		.align	2
 322              		.global	SPIS_WriteTxData
 323              		.thumb
 324              		.thumb_func
 325              		.type	SPIS_WriteTxData, %function
 326              	SPIS_WriteTxData:
 327              	.LFB12:
 488:Generated_Source\PSoC5/SPIS.c **** 
 489:Generated_Source\PSoC5/SPIS.c **** 
 490:Generated_Source\PSoC5/SPIS.c **** /*******************************************************************************
 491:Generated_Source\PSoC5/SPIS.c **** * Function Name: SPIS_WriteTxData
 492:Generated_Source\PSoC5/SPIS.c **** ********************************************************************************
 493:Generated_Source\PSoC5/SPIS.c **** *
 494:Generated_Source\PSoC5/SPIS.c **** * Summary:
 495:Generated_Source\PSoC5/SPIS.c **** *  Write a byte of data to be sent across the SPI.
 496:Generated_Source\PSoC5/SPIS.c **** *
 497:Generated_Source\PSoC5/SPIS.c **** * Parameters:
 498:Generated_Source\PSoC5/SPIS.c **** *  txDataByte: The data value to send across the SPI.
 499:Generated_Source\PSoC5/SPIS.c **** *
 500:Generated_Source\PSoC5/SPIS.c **** * Return:
 501:Generated_Source\PSoC5/SPIS.c **** *  None.
 502:Generated_Source\PSoC5/SPIS.c **** *
 503:Generated_Source\PSoC5/SPIS.c **** * Global variables:
 504:Generated_Source\PSoC5/SPIS.c **** *  SPIS_txBufferWrite - used for the account of the bytes which
 505:Generated_Source\PSoC5/SPIS.c **** *  have been written down in the TX software buffer, modified every function
 506:Generated_Source\PSoC5/SPIS.c **** *  call if TX Software Buffer is used.
 507:Generated_Source\PSoC5/SPIS.c **** *  SPIS_txBufferRead - used for the account of the bytes which
 508:Generated_Source\PSoC5/SPIS.c **** *  have been read from the TX software buffer.
 509:Generated_Source\PSoC5/SPIS.c **** *  SPIS_txBuffer[SPIS_TX_BUFFER_SIZE] - used to store
 510:Generated_Source\PSoC5/SPIS.c **** *  data to sending, modified every function call if TX Software Buffer is used.
 511:Generated_Source\PSoC5/SPIS.c **** *
 512:Generated_Source\PSoC5/SPIS.c **** * Theory:
 513:Generated_Source\PSoC5/SPIS.c **** *  Allows the user to transmit any byte of data in a single transfer.
 514:Generated_Source\PSoC5/SPIS.c **** *
 515:Generated_Source\PSoC5/SPIS.c **** * Side Effects:
 516:Generated_Source\PSoC5/SPIS.c **** *  If this function is called again before the previous byte is finished then
 517:Generated_Source\PSoC5/SPIS.c **** *  the next byte will be appended to the transfer with no time between
 518:Generated_Source\PSoC5/SPIS.c **** *  the byte transfers. Clear Tx status register of the component.
 519:Generated_Source\PSoC5/SPIS.c **** *
 520:Generated_Source\PSoC5/SPIS.c **** * Reentrant:
 521:Generated_Source\PSoC5/SPIS.c **** *  No.
 522:Generated_Source\PSoC5/SPIS.c **** *
 523:Generated_Source\PSoC5/SPIS.c **** *******************************************************************************/
 524:Generated_Source\PSoC5/SPIS.c **** void SPIS_WriteTxData(uint8 txData) 
 525:Generated_Source\PSoC5/SPIS.c **** {
 328              		.loc 1 525 0
 329              		.cfi_startproc
 330              		@ args = 0, pretend = 0, frame = 0
ARM GAS  C:\Users\Mathias\AppData\Local\Temp\ccH8Ni7h.s 			page 16


 331              		@ frame_needed = 0, uses_anonymous_args = 0
 332              		@ link register save eliminated.
 333              	.LVL11:
 334              	.L31:
 526:Generated_Source\PSoC5/SPIS.c ****     #if(SPIS_TX_SOFTWARE_BUF_ENABLED)
 527:Generated_Source\PSoC5/SPIS.c **** 
 528:Generated_Source\PSoC5/SPIS.c ****         uint8 tempStatus;
 529:Generated_Source\PSoC5/SPIS.c ****         uint8 tmpTxBufferRead;
 530:Generated_Source\PSoC5/SPIS.c **** 
 531:Generated_Source\PSoC5/SPIS.c ****         /* Block if buffer is full, so we don't overwrite. */
 532:Generated_Source\PSoC5/SPIS.c ****         do
 533:Generated_Source\PSoC5/SPIS.c ****         {
 534:Generated_Source\PSoC5/SPIS.c ****             tmpTxBufferRead = SPIS_txBufferRead;
 535:Generated_Source\PSoC5/SPIS.c ****             if (0u == tmpTxBufferRead)
 536:Generated_Source\PSoC5/SPIS.c ****             {
 537:Generated_Source\PSoC5/SPIS.c ****                 tmpTxBufferRead = SPIS_TX_BUFFER_SIZE - 1u;
 538:Generated_Source\PSoC5/SPIS.c ****             }
 539:Generated_Source\PSoC5/SPIS.c ****             else
 540:Generated_Source\PSoC5/SPIS.c ****             {
 541:Generated_Source\PSoC5/SPIS.c ****                 tmpTxBufferRead--;
 542:Generated_Source\PSoC5/SPIS.c ****             }
 543:Generated_Source\PSoC5/SPIS.c **** 
 544:Generated_Source\PSoC5/SPIS.c ****         }
 545:Generated_Source\PSoC5/SPIS.c ****         while(tmpTxBufferRead == SPIS_txBufferWrite);
 546:Generated_Source\PSoC5/SPIS.c **** 
 547:Generated_Source\PSoC5/SPIS.c ****         /* Disable Interrupt to protect variables that could change on interrupt. */
 548:Generated_Source\PSoC5/SPIS.c ****         SPIS_DisableTxInt();
 549:Generated_Source\PSoC5/SPIS.c **** 
 550:Generated_Source\PSoC5/SPIS.c ****         tempStatus = SPIS_GET_STATUS_TX(SPIS_swStatusTx);
 551:Generated_Source\PSoC5/SPIS.c ****         SPIS_swStatusTx = tempStatus;
 552:Generated_Source\PSoC5/SPIS.c **** 
 553:Generated_Source\PSoC5/SPIS.c ****         if((SPIS_txBufferRead == SPIS_txBufferWrite) &&
 554:Generated_Source\PSoC5/SPIS.c ****             (0u != (SPIS_swStatusTx & SPIS_STS_TX_FIFO_NOT_FULL)))
 555:Generated_Source\PSoC5/SPIS.c ****         {
 556:Generated_Source\PSoC5/SPIS.c ****             /* Put data element into the TX FIFO */
 557:Generated_Source\PSoC5/SPIS.c ****             CY_SET_REG8(SPIS_TXDATA_PTR, txData);
 558:Generated_Source\PSoC5/SPIS.c ****         }
 559:Generated_Source\PSoC5/SPIS.c ****         else
 560:Generated_Source\PSoC5/SPIS.c ****         {
 561:Generated_Source\PSoC5/SPIS.c ****             /* Put data element into the software buffer */
 562:Generated_Source\PSoC5/SPIS.c ****             SPIS_txBufferWrite++;
 563:Generated_Source\PSoC5/SPIS.c ****             if(SPIS_txBufferWrite >= SPIS_TX_BUFFER_SIZE)
 564:Generated_Source\PSoC5/SPIS.c ****             {
 565:Generated_Source\PSoC5/SPIS.c ****                 SPIS_txBufferWrite = 0u;
 566:Generated_Source\PSoC5/SPIS.c ****             }
 567:Generated_Source\PSoC5/SPIS.c **** 
 568:Generated_Source\PSoC5/SPIS.c ****             if(SPIS_txBufferWrite == SPIS_txBufferRead)
 569:Generated_Source\PSoC5/SPIS.c ****             {
 570:Generated_Source\PSoC5/SPIS.c ****                 SPIS_txBufferRead++;
 571:Generated_Source\PSoC5/SPIS.c ****                 if(SPIS_txBufferRead >= SPIS_RX_BUFFER_SIZE)
 572:Generated_Source\PSoC5/SPIS.c ****                 {
 573:Generated_Source\PSoC5/SPIS.c ****                     SPIS_txBufferRead = 0u;
 574:Generated_Source\PSoC5/SPIS.c ****                 }
 575:Generated_Source\PSoC5/SPIS.c ****                 SPIS_txBufferFull = 1u;
 576:Generated_Source\PSoC5/SPIS.c ****             }
 577:Generated_Source\PSoC5/SPIS.c **** 
 578:Generated_Source\PSoC5/SPIS.c ****             SPIS_txBuffer[SPIS_txBufferWrite] = txData;
ARM GAS  C:\Users\Mathias\AppData\Local\Temp\ccH8Ni7h.s 			page 17


 579:Generated_Source\PSoC5/SPIS.c **** 
 580:Generated_Source\PSoC5/SPIS.c ****             SPIS_TX_STATUS_MASK_REG |= SPIS_STS_TX_FIFO_NOT_FULL;
 581:Generated_Source\PSoC5/SPIS.c ****         }
 582:Generated_Source\PSoC5/SPIS.c **** 
 583:Generated_Source\PSoC5/SPIS.c ****         /* Enable Interrupt. */
 584:Generated_Source\PSoC5/SPIS.c ****         SPIS_EnableTxInt();
 585:Generated_Source\PSoC5/SPIS.c **** 
 586:Generated_Source\PSoC5/SPIS.c ****     #else /* !SPIS_TX_SOFTWARE_BUF_ENABLED */
 587:Generated_Source\PSoC5/SPIS.c ****         /* Wait until TX FIFO has a place */
 588:Generated_Source\PSoC5/SPIS.c ****         while(0u == (SPIS_TX_STATUS_REG & SPIS_STS_TX_FIFO_NOT_FULL))
 335              		.loc 1 588 0 discriminator 1
 336 0000 034B     		ldr	r3, .L32
 337 0002 1B78     		ldrb	r3, [r3]	@ zero_extendqisi2
 338 0004 13F0020F 		tst	r3, #2
 339 0008 FAD0     		beq	.L31
 589:Generated_Source\PSoC5/SPIS.c ****         {
 590:Generated_Source\PSoC5/SPIS.c ****         }
 591:Generated_Source\PSoC5/SPIS.c **** 
 592:Generated_Source\PSoC5/SPIS.c ****         /* Put data element into the TX FIFO */
 593:Generated_Source\PSoC5/SPIS.c ****         CY_SET_REG8(SPIS_TXDATA_PTR, txData);
 340              		.loc 1 593 0
 341 000a 024B     		ldr	r3, .L32+4
 342 000c 1870     		strb	r0, [r3]
 343 000e 7047     		bx	lr
 344              	.L33:
 345              		.align	2
 346              	.L32:
 347 0010 68650040 		.word	1073767784
 348 0014 48640040 		.word	1073767496
 349              		.cfi_endproc
 350              	.LFE12:
 351              		.size	SPIS_WriteTxData, .-SPIS_WriteTxData
 352              		.section	.text.SPIS_WriteTxDataZero,"ax",%progbits
 353              		.align	2
 354              		.global	SPIS_WriteTxDataZero
 355              		.thumb
 356              		.thumb_func
 357              		.type	SPIS_WriteTxDataZero, %function
 358              	SPIS_WriteTxDataZero:
 359              	.LFB13:
 594:Generated_Source\PSoC5/SPIS.c ****         
 595:Generated_Source\PSoC5/SPIS.c ****     #endif /* SPIS_TX_SOFTWARE_BUF_ENABLED */
 596:Generated_Source\PSoC5/SPIS.c **** }
 597:Generated_Source\PSoC5/SPIS.c **** 
 598:Generated_Source\PSoC5/SPIS.c **** #if(SPIS_MODE_USE_ZERO != 0u)
 599:Generated_Source\PSoC5/SPIS.c **** 
 600:Generated_Source\PSoC5/SPIS.c ****     /*******************************************************************************
 601:Generated_Source\PSoC5/SPIS.c ****     * Function Name: SPIS_WriteTxDataZero
 602:Generated_Source\PSoC5/SPIS.c ****     ********************************************************************************
 603:Generated_Source\PSoC5/SPIS.c ****     *
 604:Generated_Source\PSoC5/SPIS.c ****     * Summary:
 605:Generated_Source\PSoC5/SPIS.c ****     *  Write a byte zero of data to be sent across the SPI. This must be used in
 606:Generated_Source\PSoC5/SPIS.c ****     *  Mode 00 and 01 if the FIFO is empty and data is not being sent.
 607:Generated_Source\PSoC5/SPIS.c ****     *
 608:Generated_Source\PSoC5/SPIS.c ****     * Parameters:
 609:Generated_Source\PSoC5/SPIS.c ****     *  txDataByte: The data value to send across the SPI.
 610:Generated_Source\PSoC5/SPIS.c ****     *
ARM GAS  C:\Users\Mathias\AppData\Local\Temp\ccH8Ni7h.s 			page 18


 611:Generated_Source\PSoC5/SPIS.c ****     * Return:
 612:Generated_Source\PSoC5/SPIS.c ****     *  None.
 613:Generated_Source\PSoC5/SPIS.c ****     *
 614:Generated_Source\PSoC5/SPIS.c ****     * Theory:
 615:Generated_Source\PSoC5/SPIS.c ****     *  Allows the user to transmit any byte of data in a single transfer. Clear
 616:Generated_Source\PSoC5/SPIS.c ****     *  status register of the component.
 617:Generated_Source\PSoC5/SPIS.c ****     *
 618:Generated_Source\PSoC5/SPIS.c ****     *******************************************************************************/
 619:Generated_Source\PSoC5/SPIS.c ****     void SPIS_WriteTxDataZero(uint8 txDataByte)
 620:Generated_Source\PSoC5/SPIS.c ****                                         
 621:Generated_Source\PSoC5/SPIS.c ****     {
 360              		.loc 1 621 0
 361              		.cfi_startproc
 362              		@ args = 0, pretend = 0, frame = 0
 363              		@ frame_needed = 0, uses_anonymous_args = 0
 364              		@ link register save eliminated.
 365              	.LVL12:
 622:Generated_Source\PSoC5/SPIS.c ****         CY_SET_REG8(SPIS_TXDATA_ZERO_PTR, txDataByte);
 366              		.loc 1 622 0
 367 0000 014B     		ldr	r3, .L35
 368 0002 1870     		strb	r0, [r3]
 369 0004 7047     		bx	lr
 370              	.L36:
 371 0006 00BF     		.align	2
 372              	.L35:
 373 0008 08640040 		.word	1073767432
 374              		.cfi_endproc
 375              	.LFE13:
 376              		.size	SPIS_WriteTxDataZero, .-SPIS_WriteTxDataZero
 377              		.section	.text.SPIS_ReadRxData,"ax",%progbits
 378              		.align	2
 379              		.global	SPIS_ReadRxData
 380              		.thumb
 381              		.thumb_func
 382              		.type	SPIS_ReadRxData, %function
 383              	SPIS_ReadRxData:
 384              	.LFB14:
 623:Generated_Source\PSoC5/SPIS.c ****     }
 624:Generated_Source\PSoC5/SPIS.c **** 
 625:Generated_Source\PSoC5/SPIS.c **** #endif /* (SPIS_MODE_USE_ZERO != 0u) */
 626:Generated_Source\PSoC5/SPIS.c **** 
 627:Generated_Source\PSoC5/SPIS.c **** 
 628:Generated_Source\PSoC5/SPIS.c **** /*******************************************************************************
 629:Generated_Source\PSoC5/SPIS.c **** * Function Name: SPIS_ReadRxData
 630:Generated_Source\PSoC5/SPIS.c **** ********************************************************************************
 631:Generated_Source\PSoC5/SPIS.c **** *
 632:Generated_Source\PSoC5/SPIS.c **** * Summary:
 633:Generated_Source\PSoC5/SPIS.c **** *  Read the next byte of data received across the SPI.
 634:Generated_Source\PSoC5/SPIS.c **** *
 635:Generated_Source\PSoC5/SPIS.c **** * Parameters:
 636:Generated_Source\PSoC5/SPIS.c **** *  None.
 637:Generated_Source\PSoC5/SPIS.c **** *
 638:Generated_Source\PSoC5/SPIS.c **** * Return:
 639:Generated_Source\PSoC5/SPIS.c **** *  The next byte of data read from the FIFO.
 640:Generated_Source\PSoC5/SPIS.c **** *
 641:Generated_Source\PSoC5/SPIS.c **** * Global variables:
 642:Generated_Source\PSoC5/SPIS.c **** *  SPIS_rxBufferWrite - used for the account of the bytes which
ARM GAS  C:\Users\Mathias\AppData\Local\Temp\ccH8Ni7h.s 			page 19


 643:Generated_Source\PSoC5/SPIS.c **** *  have been written down in the RX software buffer.
 644:Generated_Source\PSoC5/SPIS.c **** *  SPIS_rxBufferRead - used for the account of the bytes which
 645:Generated_Source\PSoC5/SPIS.c **** *  have been read from the RX software buffer, modified every function
 646:Generated_Source\PSoC5/SPIS.c **** *  call if RX Software Buffer is used.
 647:Generated_Source\PSoC5/SPIS.c **** *  SPIS_rxBuffer[SPIS_RX_BUFFER_SIZE] - used to store
 648:Generated_Source\PSoC5/SPIS.c **** *  received data.
 649:Generated_Source\PSoC5/SPIS.c **** *
 650:Generated_Source\PSoC5/SPIS.c **** * Theory:
 651:Generated_Source\PSoC5/SPIS.c **** *  Allows the user to read a byte of data received.
 652:Generated_Source\PSoC5/SPIS.c **** *
 653:Generated_Source\PSoC5/SPIS.c **** * Side Effects:
 654:Generated_Source\PSoC5/SPIS.c **** *  Will return invalid data if the FIFO is empty.  User should poll for FIFO
 655:Generated_Source\PSoC5/SPIS.c **** *  empty status before calling Read function.
 656:Generated_Source\PSoC5/SPIS.c **** *
 657:Generated_Source\PSoC5/SPIS.c **** * Reentrant:
 658:Generated_Source\PSoC5/SPIS.c **** *  No.
 659:Generated_Source\PSoC5/SPIS.c **** *
 660:Generated_Source\PSoC5/SPIS.c **** *******************************************************************************/
 661:Generated_Source\PSoC5/SPIS.c **** uint8 SPIS_ReadRxData(void) 
 662:Generated_Source\PSoC5/SPIS.c **** {
 385              		.loc 1 662 0
 386              		.cfi_startproc
 387              		@ args = 0, pretend = 0, frame = 0
 388              		@ frame_needed = 0, uses_anonymous_args = 0
 389 0000 10B5     		push	{r4, lr}
 390              		.cfi_def_cfa_offset 8
 391              		.cfi_offset 4, -8
 392              		.cfi_offset 14, -4
 663:Generated_Source\PSoC5/SPIS.c ****     uint8 rxData;
 664:Generated_Source\PSoC5/SPIS.c **** 
 665:Generated_Source\PSoC5/SPIS.c ****     #if(SPIS_RX_SOFTWARE_BUF_ENABLED)
 666:Generated_Source\PSoC5/SPIS.c **** 
 667:Generated_Source\PSoC5/SPIS.c ****         /* Disable Interrupt to protect variables that could change on interrupt. */
 668:Generated_Source\PSoC5/SPIS.c ****         SPIS_DisableRxInt();
 393              		.loc 1 668 0
 394 0002 FFF7FEFF 		bl	SPIS_DisableRxInt
 395              	.LVL13:
 669:Generated_Source\PSoC5/SPIS.c **** 
 670:Generated_Source\PSoC5/SPIS.c ****         if(SPIS_rxBufferRead != SPIS_rxBufferWrite)
 396              		.loc 1 670 0
 397 0006 134B     		ldr	r3, .L41
 398 0008 1A78     		ldrb	r2, [r3]	@ zero_extendqisi2
 399 000a D2B2     		uxtb	r2, r2
 400 000c 124B     		ldr	r3, .L41+4
 401 000e 1B78     		ldrb	r3, [r3]	@ zero_extendqisi2
 402 0010 DBB2     		uxtb	r3, r3
 403 0012 9A42     		cmp	r2, r3
 404 0014 14D0     		beq	.L38
 671:Generated_Source\PSoC5/SPIS.c ****         {
 672:Generated_Source\PSoC5/SPIS.c ****             if(SPIS_rxBufferFull == 0u)
 405              		.loc 1 672 0
 406 0016 114B     		ldr	r3, .L41+8
 407 0018 1B78     		ldrb	r3, [r3]	@ zero_extendqisi2
 408 001a 13F0FF0F 		tst	r3, #255
 409 001e 0CD1     		bne	.L39
 673:Generated_Source\PSoC5/SPIS.c ****             {
 674:Generated_Source\PSoC5/SPIS.c ****                 SPIS_rxBufferRead++;
ARM GAS  C:\Users\Mathias\AppData\Local\Temp\ccH8Ni7h.s 			page 20


 410              		.loc 1 674 0
 411 0020 0C4A     		ldr	r2, .L41
 412 0022 1378     		ldrb	r3, [r2]	@ zero_extendqisi2
 413 0024 0133     		adds	r3, r3, #1
 414 0026 DBB2     		uxtb	r3, r3
 415 0028 1370     		strb	r3, [r2]
 675:Generated_Source\PSoC5/SPIS.c ****                 if(SPIS_rxBufferRead >= SPIS_RX_BUFFER_SIZE)
 416              		.loc 1 675 0
 417 002a 1378     		ldrb	r3, [r2]	@ zero_extendqisi2
 418 002c DBB2     		uxtb	r3, r3
 419 002e 072B     		cmp	r3, #7
 420 0030 06D9     		bls	.L38
 676:Generated_Source\PSoC5/SPIS.c ****                 {
 677:Generated_Source\PSoC5/SPIS.c ****                     SPIS_rxBufferRead = 0u;
 421              		.loc 1 677 0
 422 0032 0022     		movs	r2, #0
 423 0034 074B     		ldr	r3, .L41
 424 0036 1A70     		strb	r2, [r3]
 425 0038 02E0     		b	.L38
 426              	.L39:
 678:Generated_Source\PSoC5/SPIS.c ****                 }
 679:Generated_Source\PSoC5/SPIS.c ****             }
 680:Generated_Source\PSoC5/SPIS.c ****             else
 681:Generated_Source\PSoC5/SPIS.c ****             {
 682:Generated_Source\PSoC5/SPIS.c ****                 SPIS_rxBufferFull = 0u;
 427              		.loc 1 682 0
 428 003a 0022     		movs	r2, #0
 429 003c 074B     		ldr	r3, .L41+8
 430 003e 1A70     		strb	r2, [r3]
 431              	.L38:
 683:Generated_Source\PSoC5/SPIS.c ****             }
 684:Generated_Source\PSoC5/SPIS.c ****         }
 685:Generated_Source\PSoC5/SPIS.c **** 
 686:Generated_Source\PSoC5/SPIS.c ****         rxData = SPIS_rxBuffer[SPIS_rxBufferRead];
 432              		.loc 1 686 0
 433 0040 044B     		ldr	r3, .L41
 434 0042 1B78     		ldrb	r3, [r3]	@ zero_extendqisi2
 435 0044 DBB2     		uxtb	r3, r3
 436 0046 064A     		ldr	r2, .L41+12
 437 0048 D45C     		ldrb	r4, [r2, r3]	@ zero_extendqisi2
 438 004a E4B2     		uxtb	r4, r4
 439              	.LVL14:
 687:Generated_Source\PSoC5/SPIS.c **** 
 688:Generated_Source\PSoC5/SPIS.c ****         /* Enable Interrupt. */
 689:Generated_Source\PSoC5/SPIS.c ****         SPIS_EnableRxInt();
 440              		.loc 1 689 0
 441 004c FFF7FEFF 		bl	SPIS_EnableRxInt
 442              	.LVL15:
 690:Generated_Source\PSoC5/SPIS.c **** 
 691:Generated_Source\PSoC5/SPIS.c ****     #else /* !SPIS_RX_SOFTWARE_BUF_ENABLED */
 692:Generated_Source\PSoC5/SPIS.c **** 
 693:Generated_Source\PSoC5/SPIS.c ****         rxData = CY_GET_REG8(SPIS_RXDATA_PTR);
 694:Generated_Source\PSoC5/SPIS.c **** 
 695:Generated_Source\PSoC5/SPIS.c ****     #endif /* SPIS_RX_SOFTWARE_BUF_ENABLED */
 696:Generated_Source\PSoC5/SPIS.c **** 
 697:Generated_Source\PSoC5/SPIS.c ****     return (rxData);
 698:Generated_Source\PSoC5/SPIS.c **** 
ARM GAS  C:\Users\Mathias\AppData\Local\Temp\ccH8Ni7h.s 			page 21


 699:Generated_Source\PSoC5/SPIS.c **** }
 443              		.loc 1 699 0
 444 0050 2046     		mov	r0, r4
 445 0052 10BD     		pop	{r4, pc}
 446              	.LVL16:
 447              	.L42:
 448              		.align	2
 449              	.L41:
 450 0054 00000000 		.word	SPIS_rxBufferRead
 451 0058 00000000 		.word	SPIS_rxBufferWrite
 452 005c 00000000 		.word	SPIS_rxBufferFull
 453 0060 00000000 		.word	SPIS_rxBuffer
 454              		.cfi_endproc
 455              	.LFE14:
 456              		.size	SPIS_ReadRxData, .-SPIS_ReadRxData
 457              		.section	.text.SPIS_GetRxBufferSize,"ax",%progbits
 458              		.align	2
 459              		.global	SPIS_GetRxBufferSize
 460              		.thumb
 461              		.thumb_func
 462              		.type	SPIS_GetRxBufferSize, %function
 463              	SPIS_GetRxBufferSize:
 464              	.LFB15:
 700:Generated_Source\PSoC5/SPIS.c **** 
 701:Generated_Source\PSoC5/SPIS.c **** 
 702:Generated_Source\PSoC5/SPIS.c **** /*******************************************************************************
 703:Generated_Source\PSoC5/SPIS.c **** * Function Name: SPIS_GetRxBufferSize
 704:Generated_Source\PSoC5/SPIS.c **** ********************************************************************************
 705:Generated_Source\PSoC5/SPIS.c **** *
 706:Generated_Source\PSoC5/SPIS.c **** * Summary:
 707:Generated_Source\PSoC5/SPIS.c **** *  Returns the number of bytes/words of data currently held in the RX buffer.
 708:Generated_Source\PSoC5/SPIS.c **** *  If RX Software Buffer not used then function return 0 if FIFO empty or 1 if
 709:Generated_Source\PSoC5/SPIS.c **** *  FIFO not empty. In another case function return size of RX Software Buffer.
 710:Generated_Source\PSoC5/SPIS.c **** *
 711:Generated_Source\PSoC5/SPIS.c **** * Parameters:
 712:Generated_Source\PSoC5/SPIS.c **** *  None.
 713:Generated_Source\PSoC5/SPIS.c **** *
 714:Generated_Source\PSoC5/SPIS.c **** * Return:
 715:Generated_Source\PSoC5/SPIS.c **** *  Integer count of the number of bytes/words in the RX buffer.
 716:Generated_Source\PSoC5/SPIS.c **** *
 717:Generated_Source\PSoC5/SPIS.c **** * Global variables:
 718:Generated_Source\PSoC5/SPIS.c **** *  SPIS_rxBufferWrite - used for the account of the bytes which
 719:Generated_Source\PSoC5/SPIS.c **** *  have been written down in the RX software buffer.
 720:Generated_Source\PSoC5/SPIS.c **** *  SPIS_rxBufferRead - used for the account of the bytes which
 721:Generated_Source\PSoC5/SPIS.c **** *  have been read from the RX software buffer.
 722:Generated_Source\PSoC5/SPIS.c **** *
 723:Generated_Source\PSoC5/SPIS.c **** * Theory:
 724:Generated_Source\PSoC5/SPIS.c **** *  Allows the user to find out how full the RX Buffer is.
 725:Generated_Source\PSoC5/SPIS.c **** *
 726:Generated_Source\PSoC5/SPIS.c **** *******************************************************************************/
 727:Generated_Source\PSoC5/SPIS.c **** uint8 SPIS_GetRxBufferSize(void) 
 728:Generated_Source\PSoC5/SPIS.c **** {
 465              		.loc 1 728 0
 466              		.cfi_startproc
 467              		@ args = 0, pretend = 0, frame = 0
 468              		@ frame_needed = 0, uses_anonymous_args = 0
 469 0000 10B5     		push	{r4, lr}
ARM GAS  C:\Users\Mathias\AppData\Local\Temp\ccH8Ni7h.s 			page 22


 470              		.cfi_def_cfa_offset 8
 471              		.cfi_offset 4, -8
 472              		.cfi_offset 14, -4
 729:Generated_Source\PSoC5/SPIS.c ****     uint8 size;
 730:Generated_Source\PSoC5/SPIS.c **** 
 731:Generated_Source\PSoC5/SPIS.c ****     #if(SPIS_RX_SOFTWARE_BUF_ENABLED)
 732:Generated_Source\PSoC5/SPIS.c **** 
 733:Generated_Source\PSoC5/SPIS.c ****         /* Disable Interrupt to protect variables that could change on interrupt. */
 734:Generated_Source\PSoC5/SPIS.c ****         SPIS_DisableRxInt();
 473              		.loc 1 734 0
 474 0002 FFF7FEFF 		bl	SPIS_DisableRxInt
 475              	.LVL17:
 735:Generated_Source\PSoC5/SPIS.c **** 
 736:Generated_Source\PSoC5/SPIS.c ****         if(SPIS_rxBufferRead == SPIS_rxBufferWrite)
 476              		.loc 1 736 0
 477 0006 124B     		ldr	r3, .L48
 478 0008 1A78     		ldrb	r2, [r3]	@ zero_extendqisi2
 479 000a D2B2     		uxtb	r2, r2
 480 000c 114B     		ldr	r3, .L48+4
 481 000e 1B78     		ldrb	r3, [r3]	@ zero_extendqisi2
 482 0010 DBB2     		uxtb	r3, r3
 483 0012 9A42     		cmp	r2, r3
 484 0014 16D0     		beq	.L46
 737:Generated_Source\PSoC5/SPIS.c ****         {
 738:Generated_Source\PSoC5/SPIS.c ****             size = 0u; /* No data in RX buffer */
 739:Generated_Source\PSoC5/SPIS.c ****         }
 740:Generated_Source\PSoC5/SPIS.c ****         else if(SPIS_rxBufferRead < SPIS_rxBufferWrite)
 485              		.loc 1 740 0
 486 0016 0E4B     		ldr	r3, .L48
 487 0018 1A78     		ldrb	r2, [r3]	@ zero_extendqisi2
 488 001a D2B2     		uxtb	r2, r2
 489 001c 0D4B     		ldr	r3, .L48+4
 490 001e 1B78     		ldrb	r3, [r3]	@ zero_extendqisi2
 491 0020 DBB2     		uxtb	r3, r3
 492 0022 9A42     		cmp	r2, r3
 493 0024 06D2     		bcs	.L45
 741:Generated_Source\PSoC5/SPIS.c ****         {
 742:Generated_Source\PSoC5/SPIS.c ****             size = (SPIS_rxBufferWrite - SPIS_rxBufferRead);
 494              		.loc 1 742 0
 495 0026 0B4B     		ldr	r3, .L48+4
 496 0028 1B78     		ldrb	r3, [r3]	@ zero_extendqisi2
 497 002a 094A     		ldr	r2, .L48
 498 002c 1478     		ldrb	r4, [r2]	@ zero_extendqisi2
 499 002e 1C1B     		subs	r4, r3, r4
 500 0030 E4B2     		uxtb	r4, r4
 501              	.LVL18:
 502 0032 08E0     		b	.L44
 503              	.LVL19:
 504              	.L45:
 743:Generated_Source\PSoC5/SPIS.c ****         }
 744:Generated_Source\PSoC5/SPIS.c ****         else
 745:Generated_Source\PSoC5/SPIS.c ****         {
 746:Generated_Source\PSoC5/SPIS.c ****             size = (SPIS_RX_BUFFER_SIZE - SPIS_rxBufferRead) + SPIS_rxBufferWrite;
 505              		.loc 1 746 0
 506 0034 074B     		ldr	r3, .L48+4
 507 0036 1B78     		ldrb	r3, [r3]	@ zero_extendqisi2
 508 0038 054A     		ldr	r2, .L48
ARM GAS  C:\Users\Mathias\AppData\Local\Temp\ccH8Ni7h.s 			page 23


 509 003a 1478     		ldrb	r4, [r2]	@ zero_extendqisi2
 510 003c 1C1B     		subs	r4, r3, r4
 511 003e 0834     		adds	r4, r4, #8
 512 0040 E4B2     		uxtb	r4, r4
 513              	.LVL20:
 514 0042 00E0     		b	.L44
 515              	.LVL21:
 516              	.L46:
 738:Generated_Source\PSoC5/SPIS.c ****         }
 517              		.loc 1 738 0
 518 0044 0024     		movs	r4, #0
 519              	.L44:
 520              	.LVL22:
 747:Generated_Source\PSoC5/SPIS.c ****         }
 748:Generated_Source\PSoC5/SPIS.c **** 
 749:Generated_Source\PSoC5/SPIS.c ****         /* Enable interrupt. */
 750:Generated_Source\PSoC5/SPIS.c ****         SPIS_EnableRxInt();
 521              		.loc 1 750 0
 522 0046 FFF7FEFF 		bl	SPIS_EnableRxInt
 523              	.LVL23:
 751:Generated_Source\PSoC5/SPIS.c **** 
 752:Generated_Source\PSoC5/SPIS.c ****     #else /* !SPIS_RX_SOFTWARE_BUF_ENABLED*/
 753:Generated_Source\PSoC5/SPIS.c **** 
 754:Generated_Source\PSoC5/SPIS.c ****         /* We can only know if there is data in the fifo. */
 755:Generated_Source\PSoC5/SPIS.c ****         size = ((SPIS_RX_STATUS_REG & SPIS_STS_RX_FIFO_NOT_EMPTY) != 0u) ? 1u : 0u;
 756:Generated_Source\PSoC5/SPIS.c **** 
 757:Generated_Source\PSoC5/SPIS.c ****     #endif /* SPIS_RX_SOFTWARE_BUF_ENABLED */
 758:Generated_Source\PSoC5/SPIS.c **** 
 759:Generated_Source\PSoC5/SPIS.c ****     return (size);
 760:Generated_Source\PSoC5/SPIS.c **** }
 524              		.loc 1 760 0
 525 004a 2046     		mov	r0, r4
 526 004c 10BD     		pop	{r4, pc}
 527              	.LVL24:
 528              	.L49:
 529 004e 00BF     		.align	2
 530              	.L48:
 531 0050 00000000 		.word	SPIS_rxBufferRead
 532 0054 00000000 		.word	SPIS_rxBufferWrite
 533              		.cfi_endproc
 534              	.LFE15:
 535              		.size	SPIS_GetRxBufferSize, .-SPIS_GetRxBufferSize
 536              		.section	.text.SPIS_GetTxBufferSize,"ax",%progbits
 537              		.align	2
 538              		.global	SPIS_GetTxBufferSize
 539              		.thumb
 540              		.thumb_func
 541              		.type	SPIS_GetTxBufferSize, %function
 542              	SPIS_GetTxBufferSize:
 543              	.LFB16:
 761:Generated_Source\PSoC5/SPIS.c **** 
 762:Generated_Source\PSoC5/SPIS.c **** 
 763:Generated_Source\PSoC5/SPIS.c **** /*******************************************************************************
 764:Generated_Source\PSoC5/SPIS.c **** * Function Name: SPIS_GetTxBufferSize
 765:Generated_Source\PSoC5/SPIS.c **** ********************************************************************************
 766:Generated_Source\PSoC5/SPIS.c **** *
 767:Generated_Source\PSoC5/SPIS.c **** * Summary:
ARM GAS  C:\Users\Mathias\AppData\Local\Temp\ccH8Ni7h.s 			page 24


 768:Generated_Source\PSoC5/SPIS.c **** *  Returns the number of bytes/words of data currently held in the TX buffer.
 769:Generated_Source\PSoC5/SPIS.c **** *  If TX Software Buffer not used then function return 0 - if FIFO empty, 1 - if
 770:Generated_Source\PSoC5/SPIS.c **** *  FIFO not full, 4 - if FIFO full. In another case function return size of TX
 771:Generated_Source\PSoC5/SPIS.c **** *  Software Buffer.
 772:Generated_Source\PSoC5/SPIS.c **** *
 773:Generated_Source\PSoC5/SPIS.c **** * Parameters:
 774:Generated_Source\PSoC5/SPIS.c **** *  None.
 775:Generated_Source\PSoC5/SPIS.c **** *
 776:Generated_Source\PSoC5/SPIS.c **** * Return:
 777:Generated_Source\PSoC5/SPIS.c **** *  Integer count of the number of bytes/words in the TX buffer.
 778:Generated_Source\PSoC5/SPIS.c **** *
 779:Generated_Source\PSoC5/SPIS.c **** * Global variables:
 780:Generated_Source\PSoC5/SPIS.c **** *  SPIS_txBufferWrite - used for the account of the bytes which
 781:Generated_Source\PSoC5/SPIS.c **** *  have been written down in the TX software buffer.
 782:Generated_Source\PSoC5/SPIS.c **** *  SPIS_txBufferRead - used for the account of the bytes which
 783:Generated_Source\PSoC5/SPIS.c **** *  have been read from the TX software buffer.
 784:Generated_Source\PSoC5/SPIS.c **** *
 785:Generated_Source\PSoC5/SPIS.c **** * Theory:
 786:Generated_Source\PSoC5/SPIS.c **** *  Allows the user to find out how full the TX Buffer is.
 787:Generated_Source\PSoC5/SPIS.c **** *
 788:Generated_Source\PSoC5/SPIS.c **** * Side Effects:
 789:Generated_Source\PSoC5/SPIS.c **** *  Clear status register of the component.
 790:Generated_Source\PSoC5/SPIS.c **** *
 791:Generated_Source\PSoC5/SPIS.c **** *******************************************************************************/
 792:Generated_Source\PSoC5/SPIS.c **** uint8  SPIS_GetTxBufferSize(void) 
 793:Generated_Source\PSoC5/SPIS.c **** {
 544              		.loc 1 793 0
 545              		.cfi_startproc
 546              		@ args = 0, pretend = 0, frame = 0
 547              		@ frame_needed = 0, uses_anonymous_args = 0
 548              		@ link register save eliminated.
 794:Generated_Source\PSoC5/SPIS.c ****     uint8 size;
 795:Generated_Source\PSoC5/SPIS.c **** 
 796:Generated_Source\PSoC5/SPIS.c ****     #if(SPIS_TX_SOFTWARE_BUF_ENABLED)
 797:Generated_Source\PSoC5/SPIS.c **** 
 798:Generated_Source\PSoC5/SPIS.c ****         /* Disable Interrupt to protect variables that could change on interrupt. */
 799:Generated_Source\PSoC5/SPIS.c ****         SPIS_DisableTxInt();
 800:Generated_Source\PSoC5/SPIS.c **** 
 801:Generated_Source\PSoC5/SPIS.c ****         if(SPIS_txBufferRead == SPIS_txBufferWrite)
 802:Generated_Source\PSoC5/SPIS.c ****         {
 803:Generated_Source\PSoC5/SPIS.c ****             size = 0u;
 804:Generated_Source\PSoC5/SPIS.c ****         }
 805:Generated_Source\PSoC5/SPIS.c ****         else if(SPIS_txBufferRead < SPIS_txBufferWrite)
 806:Generated_Source\PSoC5/SPIS.c ****         {
 807:Generated_Source\PSoC5/SPIS.c ****             size = (SPIS_txBufferWrite - SPIS_txBufferRead);
 808:Generated_Source\PSoC5/SPIS.c ****         }
 809:Generated_Source\PSoC5/SPIS.c ****         else
 810:Generated_Source\PSoC5/SPIS.c ****         {
 811:Generated_Source\PSoC5/SPIS.c ****             size = (SPIS_TX_BUFFER_SIZE - SPIS_txBufferRead) + SPIS_txBufferWrite;
 812:Generated_Source\PSoC5/SPIS.c ****         }
 813:Generated_Source\PSoC5/SPIS.c **** 
 814:Generated_Source\PSoC5/SPIS.c ****         /* Enable Interrupt. */
 815:Generated_Source\PSoC5/SPIS.c ****         SPIS_EnableTxInt();
 816:Generated_Source\PSoC5/SPIS.c **** 
 817:Generated_Source\PSoC5/SPIS.c ****     #else /* !SPIS_TX_SOFTWARE_BUF_ENABLED */
 818:Generated_Source\PSoC5/SPIS.c **** 
 819:Generated_Source\PSoC5/SPIS.c ****         size = SPIS_TX_STATUS_REG;
ARM GAS  C:\Users\Mathias\AppData\Local\Temp\ccH8Ni7h.s 			page 25


 549              		.loc 1 819 0
 550 0000 074B     		ldr	r3, .L54
 551 0002 1B78     		ldrb	r3, [r3]	@ zero_extendqisi2
 552 0004 DBB2     		uxtb	r3, r3
 553              	.LVL25:
 820:Generated_Source\PSoC5/SPIS.c **** 
 821:Generated_Source\PSoC5/SPIS.c ****         /* Is the fifo is full. */
 822:Generated_Source\PSoC5/SPIS.c ****         if((size & SPIS_STS_TX_FIFO_EMPTY) != 0u)
 554              		.loc 1 822 0
 555 0006 13F0040F 		tst	r3, #4
 556 000a 04D1     		bne	.L52
 823:Generated_Source\PSoC5/SPIS.c ****         {
 824:Generated_Source\PSoC5/SPIS.c ****             size = 0u;
 825:Generated_Source\PSoC5/SPIS.c ****         }
 826:Generated_Source\PSoC5/SPIS.c ****         else if((size & SPIS_STS_TX_FIFO_NOT_FULL) != 0u)
 557              		.loc 1 826 0
 558 000c 13F0020F 		tst	r3, #2
 559 0010 03D0     		beq	.L53
 827:Generated_Source\PSoC5/SPIS.c ****         {
 828:Generated_Source\PSoC5/SPIS.c ****             size = 1u;
 560              		.loc 1 828 0
 561 0012 0120     		movs	r0, #1
 562 0014 7047     		bx	lr
 563              	.L52:
 824:Generated_Source\PSoC5/SPIS.c ****         }
 564              		.loc 1 824 0
 565 0016 0020     		movs	r0, #0
 566 0018 7047     		bx	lr
 567              	.L53:
 829:Generated_Source\PSoC5/SPIS.c ****         }
 830:Generated_Source\PSoC5/SPIS.c ****         else
 831:Generated_Source\PSoC5/SPIS.c ****         {
 832:Generated_Source\PSoC5/SPIS.c ****             size = 4u;
 568              		.loc 1 832 0
 569 001a 0420     		movs	r0, #4
 570              	.LVL26:
 833:Generated_Source\PSoC5/SPIS.c ****         }
 834:Generated_Source\PSoC5/SPIS.c **** 
 835:Generated_Source\PSoC5/SPIS.c ****     #endif /* SPIS_TX_SOFTWARE_BUF_ENABLED */
 836:Generated_Source\PSoC5/SPIS.c **** 
 837:Generated_Source\PSoC5/SPIS.c ****     return (size);
 838:Generated_Source\PSoC5/SPIS.c **** }
 571              		.loc 1 838 0
 572 001c 7047     		bx	lr
 573              	.L55:
 574 001e 00BF     		.align	2
 575              	.L54:
 576 0020 68650040 		.word	1073767784
 577              		.cfi_endproc
 578              	.LFE16:
 579              		.size	SPIS_GetTxBufferSize, .-SPIS_GetTxBufferSize
 580              		.section	.text.SPIS_ClearRxBuffer,"ax",%progbits
 581              		.align	2
 582              		.global	SPIS_ClearRxBuffer
 583              		.thumb
 584              		.thumb_func
 585              		.type	SPIS_ClearRxBuffer, %function
ARM GAS  C:\Users\Mathias\AppData\Local\Temp\ccH8Ni7h.s 			page 26


 586              	SPIS_ClearRxBuffer:
 587              	.LFB17:
 839:Generated_Source\PSoC5/SPIS.c **** 
 840:Generated_Source\PSoC5/SPIS.c **** 
 841:Generated_Source\PSoC5/SPIS.c **** /*******************************************************************************
 842:Generated_Source\PSoC5/SPIS.c **** * Function Name: SPIS_ClearRxBuffer
 843:Generated_Source\PSoC5/SPIS.c **** ********************************************************************************
 844:Generated_Source\PSoC5/SPIS.c **** *
 845:Generated_Source\PSoC5/SPIS.c **** * Summary:
 846:Generated_Source\PSoC5/SPIS.c **** *  Clear the RX RAM buffer by setting the read and write pointers both to zero.
 847:Generated_Source\PSoC5/SPIS.c **** *
 848:Generated_Source\PSoC5/SPIS.c **** * Parameters:
 849:Generated_Source\PSoC5/SPIS.c **** *  None.
 850:Generated_Source\PSoC5/SPIS.c **** *
 851:Generated_Source\PSoC5/SPIS.c **** * Return:
 852:Generated_Source\PSoC5/SPIS.c **** *  None.
 853:Generated_Source\PSoC5/SPIS.c **** *
 854:Generated_Source\PSoC5/SPIS.c **** * Global variables:
 855:Generated_Source\PSoC5/SPIS.c **** *  SPIS_rxBufferWrite - used for the account of the bytes which
 856:Generated_Source\PSoC5/SPIS.c **** *  have been written down in the RX software buffer, modified every function
 857:Generated_Source\PSoC5/SPIS.c **** *  call - resets to zero.
 858:Generated_Source\PSoC5/SPIS.c **** *  SPIS_rxBufferRead - used for the account of the bytes which
 859:Generated_Source\PSoC5/SPIS.c **** *  have been read from the RX software buffer, modified every function call -
 860:Generated_Source\PSoC5/SPIS.c **** *  resets to zero.
 861:Generated_Source\PSoC5/SPIS.c **** *
 862:Generated_Source\PSoC5/SPIS.c **** * Theory:
 863:Generated_Source\PSoC5/SPIS.c **** *  Setting the pointers to zero makes the system believe there is no data to
 864:Generated_Source\PSoC5/SPIS.c **** *  read and writing will resume at address 0 overwriting any data that may have
 865:Generated_Source\PSoC5/SPIS.c **** *  remained in the RAM.
 866:Generated_Source\PSoC5/SPIS.c **** *
 867:Generated_Source\PSoC5/SPIS.c **** * Side Effects:
 868:Generated_Source\PSoC5/SPIS.c **** *  Any received data not read from the RAM buffer will be lost when overwritten.
 869:Generated_Source\PSoC5/SPIS.c **** *
 870:Generated_Source\PSoC5/SPIS.c **** * Reentrant:
 871:Generated_Source\PSoC5/SPIS.c **** *  No.
 872:Generated_Source\PSoC5/SPIS.c **** *
 873:Generated_Source\PSoC5/SPIS.c **** *******************************************************************************/
 874:Generated_Source\PSoC5/SPIS.c **** void SPIS_ClearRxBuffer(void) 
 875:Generated_Source\PSoC5/SPIS.c **** {
 588              		.loc 1 875 0
 589              		.cfi_startproc
 590              		@ args = 0, pretend = 0, frame = 0
 591              		@ frame_needed = 0, uses_anonymous_args = 0
 592 0000 08B5     		push	{r3, lr}
 593              		.cfi_def_cfa_offset 8
 594              		.cfi_offset 3, -8
 595              		.cfi_offset 14, -4
 876:Generated_Source\PSoC5/SPIS.c ****     /* Clear Hardware RX FIFO */
 877:Generated_Source\PSoC5/SPIS.c ****     while((SPIS_RX_STATUS_REG & SPIS_STS_RX_FIFO_NOT_EMPTY) != 0u)
 596              		.loc 1 877 0
 597 0002 01E0     		b	.L57
 598              	.L58:
 878:Generated_Source\PSoC5/SPIS.c ****     {
 879:Generated_Source\PSoC5/SPIS.c ****         CY_GET_REG8(SPIS_RXDATA_PTR);
 599              		.loc 1 879 0
 600 0004 094B     		ldr	r3, .L60
 601 0006 1B78     		ldrb	r3, [r3]	@ zero_extendqisi2
ARM GAS  C:\Users\Mathias\AppData\Local\Temp\ccH8Ni7h.s 			page 27


 602              	.L57:
 877:Generated_Source\PSoC5/SPIS.c ****     {
 603              		.loc 1 877 0
 604 0008 094B     		ldr	r3, .L60+4
 605 000a 1B78     		ldrb	r3, [r3]	@ zero_extendqisi2
 606 000c 13F0080F 		tst	r3, #8
 607 0010 F8D1     		bne	.L58
 880:Generated_Source\PSoC5/SPIS.c ****     }
 881:Generated_Source\PSoC5/SPIS.c **** 
 882:Generated_Source\PSoC5/SPIS.c ****     #if(SPIS_RX_SOFTWARE_BUF_ENABLED)
 883:Generated_Source\PSoC5/SPIS.c **** 
 884:Generated_Source\PSoC5/SPIS.c ****         /* Disable interrupt to protect variables that could change on interrupt. */
 885:Generated_Source\PSoC5/SPIS.c ****         SPIS_DisableRxInt();
 608              		.loc 1 885 0
 609 0012 FFF7FEFF 		bl	SPIS_DisableRxInt
 610              	.LVL27:
 886:Generated_Source\PSoC5/SPIS.c **** 
 887:Generated_Source\PSoC5/SPIS.c ****         SPIS_rxBufferRead  = 0u;
 611              		.loc 1 887 0
 612 0016 0023     		movs	r3, #0
 613 0018 064A     		ldr	r2, .L60+8
 614 001a 1370     		strb	r3, [r2]
 888:Generated_Source\PSoC5/SPIS.c ****         SPIS_rxBufferWrite = 0u;
 615              		.loc 1 888 0
 616 001c 064A     		ldr	r2, .L60+12
 617 001e 1370     		strb	r3, [r2]
 889:Generated_Source\PSoC5/SPIS.c **** 		SPIS_rxBufferFull  = 0u;
 618              		.loc 1 889 0
 619 0020 064A     		ldr	r2, .L60+16
 620 0022 1370     		strb	r3, [r2]
 890:Generated_Source\PSoC5/SPIS.c ****         /* Enable interrupt. */
 891:Generated_Source\PSoC5/SPIS.c ****         SPIS_EnableRxInt();
 621              		.loc 1 891 0
 622 0024 FFF7FEFF 		bl	SPIS_EnableRxInt
 623              	.LVL28:
 624 0028 08BD     		pop	{r3, pc}
 625              	.L61:
 626 002a 00BF     		.align	2
 627              	.L60:
 628 002c 58640040 		.word	1073767512
 629 0030 6A640040 		.word	1073767530
 630 0034 00000000 		.word	SPIS_rxBufferRead
 631 0038 00000000 		.word	SPIS_rxBufferWrite
 632 003c 00000000 		.word	SPIS_rxBufferFull
 633              		.cfi_endproc
 634              	.LFE17:
 635              		.size	SPIS_ClearRxBuffer, .-SPIS_ClearRxBuffer
 636              		.section	.text.SPIS_ClearTxBuffer,"ax",%progbits
 637              		.align	2
 638              		.global	SPIS_ClearTxBuffer
 639              		.thumb
 640              		.thumb_func
 641              		.type	SPIS_ClearTxBuffer, %function
 642              	SPIS_ClearTxBuffer:
 643              	.LFB18:
 892:Generated_Source\PSoC5/SPIS.c **** 
 893:Generated_Source\PSoC5/SPIS.c ****     #endif /* SPIS_RX_SOFTWARE_BUF_ENABLED */
ARM GAS  C:\Users\Mathias\AppData\Local\Temp\ccH8Ni7h.s 			page 28


 894:Generated_Source\PSoC5/SPIS.c **** }
 895:Generated_Source\PSoC5/SPIS.c **** 
 896:Generated_Source\PSoC5/SPIS.c **** 
 897:Generated_Source\PSoC5/SPIS.c **** /*******************************************************************************
 898:Generated_Source\PSoC5/SPIS.c **** * Function Name: SPIS_ClearTxBuffer
 899:Generated_Source\PSoC5/SPIS.c **** ********************************************************************************
 900:Generated_Source\PSoC5/SPIS.c **** *
 901:Generated_Source\PSoC5/SPIS.c **** * Summary:
 902:Generated_Source\PSoC5/SPIS.c **** *  Clear the TX RAM buffer by setting the read and write pointers both to zero.
 903:Generated_Source\PSoC5/SPIS.c **** *
 904:Generated_Source\PSoC5/SPIS.c **** * Parameters:
 905:Generated_Source\PSoC5/SPIS.c **** *  None.
 906:Generated_Source\PSoC5/SPIS.c **** *
 907:Generated_Source\PSoC5/SPIS.c **** * Return:
 908:Generated_Source\PSoC5/SPIS.c **** *  None.
 909:Generated_Source\PSoC5/SPIS.c **** *
 910:Generated_Source\PSoC5/SPIS.c **** * Global variables:
 911:Generated_Source\PSoC5/SPIS.c **** *  SPIS_txBufferWrite - used for the account of the bytes which
 912:Generated_Source\PSoC5/SPIS.c **** *  have been written down in the TX software buffer, modified every function
 913:Generated_Source\PSoC5/SPIS.c **** *  call - resets to zero.
 914:Generated_Source\PSoC5/SPIS.c **** *  SPIS_txBufferRead - used for the account of the bytes which
 915:Generated_Source\PSoC5/SPIS.c **** *  have been read from the TX software buffer, modified every function call -
 916:Generated_Source\PSoC5/SPIS.c **** *  resets to zero.
 917:Generated_Source\PSoC5/SPIS.c **** *
 918:Generated_Source\PSoC5/SPIS.c **** * Theory:
 919:Generated_Source\PSoC5/SPIS.c **** *  Setting the pointers to zero makes the system believe there is no data to
 920:Generated_Source\PSoC5/SPIS.c **** *  read and writing will resume at address 0 overwriting any data that may have
 921:Generated_Source\PSoC5/SPIS.c **** *  remained in the RAM.
 922:Generated_Source\PSoC5/SPIS.c **** *
 923:Generated_Source\PSoC5/SPIS.c **** * Side Effects:
 924:Generated_Source\PSoC5/SPIS.c **** *  Any data not yet transmitted from the RAM buffer will be lost when
 925:Generated_Source\PSoC5/SPIS.c **** *  overwritten.
 926:Generated_Source\PSoC5/SPIS.c **** *
 927:Generated_Source\PSoC5/SPIS.c **** * Reentrant:
 928:Generated_Source\PSoC5/SPIS.c **** *  No.
 929:Generated_Source\PSoC5/SPIS.c **** *
 930:Generated_Source\PSoC5/SPIS.c **** *******************************************************************************/
 931:Generated_Source\PSoC5/SPIS.c **** void SPIS_ClearTxBuffer(void) 
 932:Generated_Source\PSoC5/SPIS.c **** {
 644              		.loc 1 932 0
 645              		.cfi_startproc
 646              		@ args = 0, pretend = 0, frame = 0
 647              		@ frame_needed = 0, uses_anonymous_args = 0
 648 0000 08B5     		push	{r3, lr}
 649              		.cfi_def_cfa_offset 8
 650              		.cfi_offset 3, -8
 651              		.cfi_offset 14, -4
 933:Generated_Source\PSoC5/SPIS.c ****     uint8 enableInterrupts;
 934:Generated_Source\PSoC5/SPIS.c **** 
 935:Generated_Source\PSoC5/SPIS.c ****     /* Clear Hardware TX FIFO */
 936:Generated_Source\PSoC5/SPIS.c ****     enableInterrupts = CyEnterCriticalSection();
 652              		.loc 1 936 0
 653 0002 FFF7FEFF 		bl	CyEnterCriticalSection
 654              	.LVL29:
 937:Generated_Source\PSoC5/SPIS.c **** 
 938:Generated_Source\PSoC5/SPIS.c ****     #if(SPIS_DATA_WIDTH <= 8u)
 939:Generated_Source\PSoC5/SPIS.c **** 
ARM GAS  C:\Users\Mathias\AppData\Local\Temp\ccH8Ni7h.s 			page 29


 940:Generated_Source\PSoC5/SPIS.c ****         /* Clear TX FIFO */
 941:Generated_Source\PSoC5/SPIS.c ****         SPIS_TX_AUX_CONTROL_DP0_REG |= (uint8)SPIS_FIFO_CLR;
 655              		.loc 1 941 0
 656 0006 064B     		ldr	r3, .L64
 657 0008 1A78     		ldrb	r2, [r3]	@ zero_extendqisi2
 658 000a 42F00302 		orr	r2, r2, #3
 659 000e 1A70     		strb	r2, [r3]
 942:Generated_Source\PSoC5/SPIS.c ****         SPIS_TX_AUX_CONTROL_DP0_REG &= (uint8)~SPIS_FIFO_CLR;
 660              		.loc 1 942 0
 661 0010 1A78     		ldrb	r2, [r3]	@ zero_extendqisi2
 662 0012 02F0FC02 		and	r2, r2, #252
 663 0016 1A70     		strb	r2, [r3]
 943:Generated_Source\PSoC5/SPIS.c **** 
 944:Generated_Source\PSoC5/SPIS.c ****     #else
 945:Generated_Source\PSoC5/SPIS.c **** 
 946:Generated_Source\PSoC5/SPIS.c ****         /* Clear TX FIFO */
 947:Generated_Source\PSoC5/SPIS.c ****         SPIS_TX_AUX_CONTROL_DP0_REG |= (uint8)SPIS_FIFO_CLR;
 948:Generated_Source\PSoC5/SPIS.c ****         SPIS_TX_AUX_CONTROL_DP0_REG &= (uint8)~SPIS_FIFO_CLR;
 949:Generated_Source\PSoC5/SPIS.c ****         SPIS_TX_AUX_CONTROL_DP1_REG |= (uint8)SPIS_FIFO_CLR;
 950:Generated_Source\PSoC5/SPIS.c ****         SPIS_TX_AUX_CONTROL_DP1_REG &= (uint8)~SPIS_FIFO_CLR;
 951:Generated_Source\PSoC5/SPIS.c **** 
 952:Generated_Source\PSoC5/SPIS.c ****     #endif /* SPIS_DATA_WIDTH > 8u */
 953:Generated_Source\PSoC5/SPIS.c **** 
 954:Generated_Source\PSoC5/SPIS.c ****     CyExitCriticalSection(enableInterrupts);
 664              		.loc 1 954 0
 665 0018 FFF7FEFF 		bl	CyExitCriticalSection
 666              	.LVL30:
 667 001c 08BD     		pop	{r3, pc}
 668              	.L65:
 669 001e 00BF     		.align	2
 670              	.L64:
 671 0020 98640040 		.word	1073767576
 672              		.cfi_endproc
 673              	.LFE18:
 674              		.size	SPIS_ClearTxBuffer, .-SPIS_ClearTxBuffer
 675              		.section	.text.SPIS_PutArray,"ax",%progbits
 676              		.align	2
 677              		.global	SPIS_PutArray
 678              		.thumb
 679              		.thumb_func
 680              		.type	SPIS_PutArray, %function
 681              	SPIS_PutArray:
 682              	.LFB19:
 955:Generated_Source\PSoC5/SPIS.c **** 
 956:Generated_Source\PSoC5/SPIS.c ****     #if(SPIS_TX_SOFTWARE_BUF_ENABLED)
 957:Generated_Source\PSoC5/SPIS.c **** 
 958:Generated_Source\PSoC5/SPIS.c ****         /* Disable Interrupt to protect variables that could change on interrupt. */
 959:Generated_Source\PSoC5/SPIS.c ****         SPIS_DisableTxInt();
 960:Generated_Source\PSoC5/SPIS.c **** 
 961:Generated_Source\PSoC5/SPIS.c ****         SPIS_txBufferRead  = 0u;
 962:Generated_Source\PSoC5/SPIS.c ****         SPIS_txBufferWrite = 0u;
 963:Generated_Source\PSoC5/SPIS.c **** 		SPIS_txBufferFull  = 0u;
 964:Generated_Source\PSoC5/SPIS.c **** 		
 965:Generated_Source\PSoC5/SPIS.c ****         /* If Buffer is empty then disable TX FIFO status interrupt */
 966:Generated_Source\PSoC5/SPIS.c ****         SPIS_TX_STATUS_MASK_REG &= (uint8)~SPIS_STS_TX_FIFO_NOT_FULL;
 967:Generated_Source\PSoC5/SPIS.c **** 
 968:Generated_Source\PSoC5/SPIS.c ****         /* Enable Interrupt. */
ARM GAS  C:\Users\Mathias\AppData\Local\Temp\ccH8Ni7h.s 			page 30


 969:Generated_Source\PSoC5/SPIS.c ****         SPIS_EnableTxInt();
 970:Generated_Source\PSoC5/SPIS.c **** 
 971:Generated_Source\PSoC5/SPIS.c ****     #endif /* SPIS_TX_SOFTWARE_BUF_ENABLED */
 972:Generated_Source\PSoC5/SPIS.c **** }
 973:Generated_Source\PSoC5/SPIS.c **** 
 974:Generated_Source\PSoC5/SPIS.c **** 
 975:Generated_Source\PSoC5/SPIS.c **** #if (SPIS_BIDIRECTIONAL_MODE != 0u)
 976:Generated_Source\PSoC5/SPIS.c **** 
 977:Generated_Source\PSoC5/SPIS.c ****     /*******************************************************************************
 978:Generated_Source\PSoC5/SPIS.c ****     * Function Name: SPIS_TxEnable
 979:Generated_Source\PSoC5/SPIS.c ****     ********************************************************************************
 980:Generated_Source\PSoC5/SPIS.c ****     *
 981:Generated_Source\PSoC5/SPIS.c ****     * Summary:
 982:Generated_Source\PSoC5/SPIS.c ****     *  If the SPI Slave is configured to use a single bi-directional pin then this
 983:Generated_Source\PSoC5/SPIS.c ****     *  will set the bi-directional pin to transmit.
 984:Generated_Source\PSoC5/SPIS.c ****     *
 985:Generated_Source\PSoC5/SPIS.c ****     * Parameters:
 986:Generated_Source\PSoC5/SPIS.c ****     *  None.
 987:Generated_Source\PSoC5/SPIS.c ****     *
 988:Generated_Source\PSoC5/SPIS.c ****     * Return:
 989:Generated_Source\PSoC5/SPIS.c ****     *  None.
 990:Generated_Source\PSoC5/SPIS.c ****     *
 991:Generated_Source\PSoC5/SPIS.c ****     *******************************************************************************/
 992:Generated_Source\PSoC5/SPIS.c ****     void SPIS_TxEnable(void) 
 993:Generated_Source\PSoC5/SPIS.c ****     {
 994:Generated_Source\PSoC5/SPIS.c ****             SPIS_CONTROL_REG |= SPIS_CTRL_TX_SIGNAL_EN;
 995:Generated_Source\PSoC5/SPIS.c ****     }
 996:Generated_Source\PSoC5/SPIS.c **** 
 997:Generated_Source\PSoC5/SPIS.c **** 
 998:Generated_Source\PSoC5/SPIS.c ****     /*******************************************************************************
 999:Generated_Source\PSoC5/SPIS.c ****     * Function Name: SPIS_TxDisable
1000:Generated_Source\PSoC5/SPIS.c ****     ********************************************************************************
1001:Generated_Source\PSoC5/SPIS.c ****     *
1002:Generated_Source\PSoC5/SPIS.c ****     * Summary:
1003:Generated_Source\PSoC5/SPIS.c ****     *  If the SPI Slave is configured to use a single bi-directional pin then this
1004:Generated_Source\PSoC5/SPIS.c ****     *  will set the bi-directional pin to receive.
1005:Generated_Source\PSoC5/SPIS.c ****     *
1006:Generated_Source\PSoC5/SPIS.c ****     * Parameters:
1007:Generated_Source\PSoC5/SPIS.c ****     *  None.
1008:Generated_Source\PSoC5/SPIS.c ****     *
1009:Generated_Source\PSoC5/SPIS.c ****     * Return:
1010:Generated_Source\PSoC5/SPIS.c ****     *  None.
1011:Generated_Source\PSoC5/SPIS.c ****     *
1012:Generated_Source\PSoC5/SPIS.c ****     *******************************************************************************/
1013:Generated_Source\PSoC5/SPIS.c ****     void SPIS_TxDisable(void) 
1014:Generated_Source\PSoC5/SPIS.c ****     {
1015:Generated_Source\PSoC5/SPIS.c ****             SPIS_CONTROL_REG &= (uint8)~SPIS_CTRL_TX_SIGNAL_EN;
1016:Generated_Source\PSoC5/SPIS.c ****     }
1017:Generated_Source\PSoC5/SPIS.c **** 
1018:Generated_Source\PSoC5/SPIS.c **** #endif /* SPIS_BIDIRECTIONAL_MODE != 0u */
1019:Generated_Source\PSoC5/SPIS.c **** 
1020:Generated_Source\PSoC5/SPIS.c **** 
1021:Generated_Source\PSoC5/SPIS.c **** /*******************************************************************************
1022:Generated_Source\PSoC5/SPIS.c **** * Function Name: SPIS_PutArray
1023:Generated_Source\PSoC5/SPIS.c **** ********************************************************************************
1024:Generated_Source\PSoC5/SPIS.c **** *
1025:Generated_Source\PSoC5/SPIS.c **** * Summary:
ARM GAS  C:\Users\Mathias\AppData\Local\Temp\ccH8Ni7h.s 			page 31


1026:Generated_Source\PSoC5/SPIS.c **** *  Write available data from RAM/ROM to the TX buffer while space is available
1027:Generated_Source\PSoC5/SPIS.c **** *  in the TX buffer. Keep trying until all data is passed to the TX buffer. If
1028:Generated_Source\PSoC5/SPIS.c **** *  used Mode 00 or 01 before PutArray() function should be called
1029:Generated_Source\PSoC5/SPIS.c **** *  WriteTxDataZero() function.
1030:Generated_Source\PSoC5/SPIS.c **** *
1031:Generated_Source\PSoC5/SPIS.c **** * Parameters:
1032:Generated_Source\PSoC5/SPIS.c **** *  *buffer: Pointer to the location in RAM containing the data to send
1033:Generated_Source\PSoC5/SPIS.c **** *  byteCount: The number of bytes to move to the transmit buffer.
1034:Generated_Source\PSoC5/SPIS.c **** *
1035:Generated_Source\PSoC5/SPIS.c **** * Return:
1036:Generated_Source\PSoC5/SPIS.c **** *  None.
1037:Generated_Source\PSoC5/SPIS.c **** *
1038:Generated_Source\PSoC5/SPIS.c **** * Side Effects:
1039:Generated_Source\PSoC5/SPIS.c **** *  Will stay in this routine until all data has been sent.  May get locked in
1040:Generated_Source\PSoC5/SPIS.c **** *  this loop if data is not being initiated by the master if there is not
1041:Generated_Source\PSoC5/SPIS.c **** *  enough room in the TX FIFO.
1042:Generated_Source\PSoC5/SPIS.c **** *
1043:Generated_Source\PSoC5/SPIS.c **** * Reentrant:
1044:Generated_Source\PSoC5/SPIS.c **** *  No.
1045:Generated_Source\PSoC5/SPIS.c **** *
1046:Generated_Source\PSoC5/SPIS.c **** *******************************************************************************/
1047:Generated_Source\PSoC5/SPIS.c **** void SPIS_PutArray(const uint8 buffer[], uint8 byteCount)
1048:Generated_Source\PSoC5/SPIS.c ****                                                                     
1049:Generated_Source\PSoC5/SPIS.c **** {
 683              		.loc 1 1049 0
 684              		.cfi_startproc
 685              		@ args = 0, pretend = 0, frame = 0
 686              		@ frame_needed = 0, uses_anonymous_args = 0
 687              	.LVL31:
 688 0000 70B5     		push	{r4, r5, r6, lr}
 689              		.cfi_def_cfa_offset 16
 690              		.cfi_offset 4, -16
 691              		.cfi_offset 5, -12
 692              		.cfi_offset 6, -8
 693              		.cfi_offset 14, -4
 694 0002 0646     		mov	r6, r0
 695 0004 0C46     		mov	r4, r1
 696              	.LVL32:
1050:Generated_Source\PSoC5/SPIS.c ****     uint8 bufIndex;
1051:Generated_Source\PSoC5/SPIS.c ****     bufIndex = 0u;
 697              		.loc 1 1051 0
 698 0006 0025     		movs	r5, #0
1052:Generated_Source\PSoC5/SPIS.c **** 
1053:Generated_Source\PSoC5/SPIS.c ****     while(byteCount > 0u)
 699              		.loc 1 1053 0
 700 0008 06E0     		b	.L67
 701              	.LVL33:
 702              	.L68:
1054:Generated_Source\PSoC5/SPIS.c ****     {
1055:Generated_Source\PSoC5/SPIS.c ****         SPIS_WriteTxData(buffer[bufIndex]);
 703              		.loc 1 1055 0
 704 000a 705D     		ldrb	r0, [r6, r5]	@ zero_extendqisi2
 705 000c FFF7FEFF 		bl	SPIS_WriteTxData
 706              	.LVL34:
1056:Generated_Source\PSoC5/SPIS.c ****         bufIndex++;
 707              		.loc 1 1056 0
 708 0010 0135     		adds	r5, r5, #1
ARM GAS  C:\Users\Mathias\AppData\Local\Temp\ccH8Ni7h.s 			page 32


 709              	.LVL35:
 710 0012 EDB2     		uxtb	r5, r5
 711              	.LVL36:
1057:Generated_Source\PSoC5/SPIS.c ****         byteCount--;
 712              		.loc 1 1057 0
 713 0014 013C     		subs	r4, r4, #1
 714              	.LVL37:
 715 0016 E4B2     		uxtb	r4, r4
 716              	.LVL38:
 717              	.L67:
1053:Generated_Source\PSoC5/SPIS.c ****     {
 718              		.loc 1 1053 0
 719 0018 002C     		cmp	r4, #0
 720 001a F6D1     		bne	.L68
1058:Generated_Source\PSoC5/SPIS.c ****     }
1059:Generated_Source\PSoC5/SPIS.c **** }
 721              		.loc 1 1059 0
 722 001c 70BD     		pop	{r4, r5, r6, pc}
 723              		.cfi_endproc
 724              	.LFE19:
 725              		.size	SPIS_PutArray, .-SPIS_PutArray
 726 001e 00BF     		.section	.text.SPIS_ClearFIFO,"ax",%progbits
 727              		.align	2
 728              		.global	SPIS_ClearFIFO
 729              		.thumb
 730              		.thumb_func
 731              		.type	SPIS_ClearFIFO, %function
 732              	SPIS_ClearFIFO:
 733              	.LFB20:
1060:Generated_Source\PSoC5/SPIS.c **** 
1061:Generated_Source\PSoC5/SPIS.c **** 
1062:Generated_Source\PSoC5/SPIS.c **** /*******************************************************************************
1063:Generated_Source\PSoC5/SPIS.c **** * Function Name: SPIS_ClearFIFO
1064:Generated_Source\PSoC5/SPIS.c **** ********************************************************************************
1065:Generated_Source\PSoC5/SPIS.c **** *
1066:Generated_Source\PSoC5/SPIS.c **** * Summary:
1067:Generated_Source\PSoC5/SPIS.c **** *  Clear the RX and TX FIFO's of all data for a fresh start.
1068:Generated_Source\PSoC5/SPIS.c **** *
1069:Generated_Source\PSoC5/SPIS.c **** * Parameters:
1070:Generated_Source\PSoC5/SPIS.c **** *  None.
1071:Generated_Source\PSoC5/SPIS.c **** *
1072:Generated_Source\PSoC5/SPIS.c **** * Return:
1073:Generated_Source\PSoC5/SPIS.c **** *  None.
1074:Generated_Source\PSoC5/SPIS.c **** *
1075:Generated_Source\PSoC5/SPIS.c **** * Side Effects:
1076:Generated_Source\PSoC5/SPIS.c **** *  Clear status register of the component.
1077:Generated_Source\PSoC5/SPIS.c **** *
1078:Generated_Source\PSoC5/SPIS.c **** *******************************************************************************/
1079:Generated_Source\PSoC5/SPIS.c **** void SPIS_ClearFIFO(void) 
1080:Generated_Source\PSoC5/SPIS.c **** {
 734              		.loc 1 1080 0
 735              		.cfi_startproc
 736              		@ args = 0, pretend = 0, frame = 0
 737              		@ frame_needed = 0, uses_anonymous_args = 0
 738 0000 08B5     		push	{r3, lr}
 739              		.cfi_def_cfa_offset 8
 740              		.cfi_offset 3, -8
ARM GAS  C:\Users\Mathias\AppData\Local\Temp\ccH8Ni7h.s 			page 33


 741              		.cfi_offset 14, -4
1081:Generated_Source\PSoC5/SPIS.c ****     uint8 enableInterrupts;
1082:Generated_Source\PSoC5/SPIS.c **** 
1083:Generated_Source\PSoC5/SPIS.c ****     while((SPIS_RX_STATUS_REG & SPIS_STS_RX_FIFO_NOT_EMPTY) != 0u)
 742              		.loc 1 1083 0
 743 0002 01E0     		b	.L71
 744              	.L72:
1084:Generated_Source\PSoC5/SPIS.c ****     {
1085:Generated_Source\PSoC5/SPIS.c ****         CY_GET_REG8(SPIS_RXDATA_PTR);
 745              		.loc 1 1085 0
 746 0004 0A4B     		ldr	r3, .L74
 747 0006 1B78     		ldrb	r3, [r3]	@ zero_extendqisi2
 748              	.L71:
1083:Generated_Source\PSoC5/SPIS.c ****     {
 749              		.loc 1 1083 0
 750 0008 0A4B     		ldr	r3, .L74+4
 751 000a 1B78     		ldrb	r3, [r3]	@ zero_extendqisi2
 752 000c 13F0080F 		tst	r3, #8
 753 0010 F8D1     		bne	.L72
1086:Generated_Source\PSoC5/SPIS.c ****     }
1087:Generated_Source\PSoC5/SPIS.c **** 
1088:Generated_Source\PSoC5/SPIS.c ****     enableInterrupts = CyEnterCriticalSection();
 754              		.loc 1 1088 0
 755 0012 FFF7FEFF 		bl	CyEnterCriticalSection
 756              	.LVL39:
1089:Generated_Source\PSoC5/SPIS.c **** 
1090:Generated_Source\PSoC5/SPIS.c ****     #if(SPIS_DATA_WIDTH <= 8u)
1091:Generated_Source\PSoC5/SPIS.c **** 
1092:Generated_Source\PSoC5/SPIS.c ****         /* Clear TX FIFO */
1093:Generated_Source\PSoC5/SPIS.c ****         SPIS_TX_AUX_CONTROL_DP0_REG |= (uint8)SPIS_FIFO_CLR;
 757              		.loc 1 1093 0
 758 0016 084B     		ldr	r3, .L74+8
 759 0018 1A78     		ldrb	r2, [r3]	@ zero_extendqisi2
 760 001a 42F00302 		orr	r2, r2, #3
 761 001e 1A70     		strb	r2, [r3]
1094:Generated_Source\PSoC5/SPIS.c ****         SPIS_TX_AUX_CONTROL_DP0_REG &= (uint8)~SPIS_FIFO_CLR;
 762              		.loc 1 1094 0
 763 0020 1A78     		ldrb	r2, [r3]	@ zero_extendqisi2
 764 0022 02F0FC02 		and	r2, r2, #252
 765 0026 1A70     		strb	r2, [r3]
1095:Generated_Source\PSoC5/SPIS.c **** 
1096:Generated_Source\PSoC5/SPIS.c ****     #else
1097:Generated_Source\PSoC5/SPIS.c **** 
1098:Generated_Source\PSoC5/SPIS.c ****         /* Clear TX FIFO */
1099:Generated_Source\PSoC5/SPIS.c ****         SPIS_TX_AUX_CONTROL_DP0_REG |= (uint8)SPIS_FIFO_CLR;
1100:Generated_Source\PSoC5/SPIS.c ****         SPIS_TX_AUX_CONTROL_DP0_REG &= (uint8)~SPIS_FIFO_CLR;
1101:Generated_Source\PSoC5/SPIS.c ****         SPIS_TX_AUX_CONTROL_DP1_REG |= (uint8)SPIS_FIFO_CLR;
1102:Generated_Source\PSoC5/SPIS.c ****         SPIS_TX_AUX_CONTROL_DP1_REG &= (uint8)~SPIS_FIFO_CLR;
1103:Generated_Source\PSoC5/SPIS.c **** 
1104:Generated_Source\PSoC5/SPIS.c ****     #endif /* SPIS_DATA_WIDTH <= 8u */
1105:Generated_Source\PSoC5/SPIS.c **** 
1106:Generated_Source\PSoC5/SPIS.c ****     CyExitCriticalSection(enableInterrupts);
 766              		.loc 1 1106 0
 767 0028 FFF7FEFF 		bl	CyExitCriticalSection
 768              	.LVL40:
 769 002c 08BD     		pop	{r3, pc}
 770              	.L75:
ARM GAS  C:\Users\Mathias\AppData\Local\Temp\ccH8Ni7h.s 			page 34


 771 002e 00BF     		.align	2
 772              	.L74:
 773 0030 58640040 		.word	1073767512
 774 0034 6A640040 		.word	1073767530
 775 0038 98640040 		.word	1073767576
 776              		.cfi_endproc
 777              	.LFE20:
 778              		.size	SPIS_ClearFIFO, .-SPIS_ClearFIFO
 779              		.section	.text.SPIS_Init,"ax",%progbits
 780              		.align	2
 781              		.global	SPIS_Init
 782              		.thumb
 783              		.thumb_func
 784              		.type	SPIS_Init, %function
 785              	SPIS_Init:
 786              	.LFB0:
  68:Generated_Source\PSoC5/SPIS.c ****     /*Initialize the Bit counter */
 787              		.loc 1 68 0
 788              		.cfi_startproc
 789              		@ args = 0, pretend = 0, frame = 0
 790              		@ frame_needed = 0, uses_anonymous_args = 0
 791 0000 10B5     		push	{r4, lr}
 792              		.cfi_def_cfa_offset 8
 793              		.cfi_offset 4, -8
 794              		.cfi_offset 14, -4
  70:Generated_Source\PSoC5/SPIS.c **** 
 795              		.loc 1 70 0
 796 0002 0724     		movs	r4, #7
 797 0004 0F4B     		ldr	r3, .L78
 798 0006 1C70     		strb	r4, [r3]
  87:Generated_Source\PSoC5/SPIS.c **** 
 799              		.loc 1 87 0
 800 0008 0122     		movs	r2, #1
 801 000a 0F4B     		ldr	r3, .L78+4
 802 000c 1A60     		str	r2, [r3]
  90:Generated_Source\PSoC5/SPIS.c **** 
 803              		.loc 1 90 0
 804 000e 0F49     		ldr	r1, .L78+8
 805 0010 0020     		movs	r0, #0
 806 0012 FFF7FEFF 		bl	CyIntSetVector
 807              	.LVL41:
  93:Generated_Source\PSoC5/SPIS.c **** 
 808              		.loc 1 93 0
 809 0016 2146     		mov	r1, r4
 810 0018 0020     		movs	r0, #0
 811 001a FFF7FEFF 		bl	CyIntSetPriority
 812              	.LVL42:
  98:Generated_Source\PSoC5/SPIS.c **** 
 813              		.loc 1 98 0
 814 001e FFF7FEFF 		bl	SPIS_ClearFIFO
 815              	.LVL43:
 101:Generated_Source\PSoC5/SPIS.c ****         SPIS_rxBufferRead = 0u;
 816              		.loc 1 101 0
 817 0022 0024     		movs	r4, #0
 818 0024 0A4B     		ldr	r3, .L78+12
 819 0026 1C70     		strb	r4, [r3]
 102:Generated_Source\PSoC5/SPIS.c ****         SPIS_rxBufferWrite = 0u;
ARM GAS  C:\Users\Mathias\AppData\Local\Temp\ccH8Ni7h.s 			page 35


 820              		.loc 1 102 0
 821 0028 0A4B     		ldr	r3, .L78+16
 822 002a 1C70     		strb	r4, [r3]
 103:Generated_Source\PSoC5/SPIS.c ****     #endif /* SPIS_RX_SOFTWARE_BUF_ENABLED */
 823              		.loc 1 103 0
 824 002c 0A4B     		ldr	r3, .L78+20
 825 002e 1C70     		strb	r4, [r3]
 112:Generated_Source\PSoC5/SPIS.c ****     (void) SPIS_ReadRxStatus(); /* Clear any pending status bits */
 826              		.loc 1 112 0
 827 0030 FFF7FEFF 		bl	SPIS_ReadTxStatus
 828              	.LVL44:
 113:Generated_Source\PSoC5/SPIS.c **** 
 829              		.loc 1 113 0
 830 0034 FFF7FEFF 		bl	SPIS_ReadRxStatus
 831              	.LVL45:
 121:Generated_Source\PSoC5/SPIS.c ****     #endif /* SPIS_TX_SOFTWARE_BUF_ENABLED */
 832              		.loc 1 121 0
 833 0038 084B     		ldr	r3, .L78+24
 834 003a 1C70     		strb	r4, [r3]
 124:Generated_Source\PSoC5/SPIS.c **** }
 835              		.loc 1 124 0
 836 003c 0822     		movs	r2, #8
 837 003e FE3B     		subs	r3, r3, #254
 838 0040 1A70     		strb	r2, [r3]
 839 0042 10BD     		pop	{r4, pc}
 840              	.L79:
 841              		.align	2
 842              	.L78:
 843 0044 89650040 		.word	1073767817
 844 0048 80E100E0 		.word	-536813184
 845 004c 00000000 		.word	SPIS_RX_ISR
 846 0050 00000000 		.word	SPIS_rxBufferFull
 847 0054 00000000 		.word	SPIS_rxBufferRead
 848 0058 00000000 		.word	SPIS_rxBufferWrite
 849 005c 88650040 		.word	1073767816
 850              		.cfi_endproc
 851              	.LFE0:
 852              		.size	SPIS_Init, .-SPIS_Init
 853              		.section	.text.SPIS_Start,"ax",%progbits
 854              		.align	2
 855              		.global	SPIS_Start
 856              		.thumb
 857              		.thumb_func
 858              		.type	SPIS_Start, %function
 859              	SPIS_Start:
 860              	.LFB2:
 188:Generated_Source\PSoC5/SPIS.c ****     if(SPIS_initVar == 0u)
 861              		.loc 1 188 0
 862              		.cfi_startproc
 863              		@ args = 0, pretend = 0, frame = 0
 864              		@ frame_needed = 0, uses_anonymous_args = 0
 865 0000 08B5     		push	{r3, lr}
 866              		.cfi_def_cfa_offset 8
 867              		.cfi_offset 3, -8
 868              		.cfi_offset 14, -4
 189:Generated_Source\PSoC5/SPIS.c ****     {
 869              		.loc 1 189 0
ARM GAS  C:\Users\Mathias\AppData\Local\Temp\ccH8Ni7h.s 			page 36


 870 0002 054B     		ldr	r3, .L83
 871 0004 1B78     		ldrb	r3, [r3]	@ zero_extendqisi2
 872 0006 23B9     		cbnz	r3, .L81
 191:Generated_Source\PSoC5/SPIS.c ****         SPIS_initVar = 1u;
 873              		.loc 1 191 0
 874 0008 FFF7FEFF 		bl	SPIS_Init
 875              	.LVL46:
 192:Generated_Source\PSoC5/SPIS.c ****     }
 876              		.loc 1 192 0
 877 000c 0122     		movs	r2, #1
 878 000e 024B     		ldr	r3, .L83
 879 0010 1A70     		strb	r2, [r3]
 880              	.L81:
 195:Generated_Source\PSoC5/SPIS.c **** }
 881              		.loc 1 195 0
 882 0012 FFF7FEFF 		bl	SPIS_Enable
 883              	.LVL47:
 884 0016 08BD     		pop	{r3, pc}
 885              	.L84:
 886              		.align	2
 887              	.L83:
 888 0018 00000000 		.word	.LANCHOR0
 889              		.cfi_endproc
 890              	.LFE2:
 891              		.size	SPIS_Start, .-SPIS_Start
 892              		.section	.text.SPIS_EnableInt,"ax",%progbits
 893              		.align	2
 894              		.global	SPIS_EnableInt
 895              		.thumb
 896              		.thumb_func
 897              		.type	SPIS_EnableInt, %function
 898              	SPIS_EnableInt:
 899              	.LFB21:
1107:Generated_Source\PSoC5/SPIS.c **** }
1108:Generated_Source\PSoC5/SPIS.c **** 
1109:Generated_Source\PSoC5/SPIS.c **** 
1110:Generated_Source\PSoC5/SPIS.c **** /* Following functions are for version Compatibility, they are obsolete.
1111:Generated_Source\PSoC5/SPIS.c **** *  Please do not use it in new projects.
1112:Generated_Source\PSoC5/SPIS.c **** */
1113:Generated_Source\PSoC5/SPIS.c **** 
1114:Generated_Source\PSoC5/SPIS.c **** 
1115:Generated_Source\PSoC5/SPIS.c **** /*******************************************************************************
1116:Generated_Source\PSoC5/SPIS.c **** * Function Name: SPIS_EnableInt
1117:Generated_Source\PSoC5/SPIS.c **** ********************************************************************************
1118:Generated_Source\PSoC5/SPIS.c **** *
1119:Generated_Source\PSoC5/SPIS.c **** * Summary:
1120:Generated_Source\PSoC5/SPIS.c **** *  Enable internal interrupt generation.
1121:Generated_Source\PSoC5/SPIS.c **** *
1122:Generated_Source\PSoC5/SPIS.c **** * Parameters:
1123:Generated_Source\PSoC5/SPIS.c **** *  None.
1124:Generated_Source\PSoC5/SPIS.c **** *
1125:Generated_Source\PSoC5/SPIS.c **** * Return:
1126:Generated_Source\PSoC5/SPIS.c **** *  None.
1127:Generated_Source\PSoC5/SPIS.c **** *
1128:Generated_Source\PSoC5/SPIS.c **** * Theory:
1129:Generated_Source\PSoC5/SPIS.c **** *  Enable the internal interrupt output -or- the interrupt component itself.
1130:Generated_Source\PSoC5/SPIS.c **** *
ARM GAS  C:\Users\Mathias\AppData\Local\Temp\ccH8Ni7h.s 			page 37


1131:Generated_Source\PSoC5/SPIS.c **** *******************************************************************************/
1132:Generated_Source\PSoC5/SPIS.c **** void SPIS_EnableInt(void) 
1133:Generated_Source\PSoC5/SPIS.c **** {
 900              		.loc 1 1133 0
 901              		.cfi_startproc
 902              		@ args = 0, pretend = 0, frame = 0
 903              		@ frame_needed = 0, uses_anonymous_args = 0
 904              		@ link register save eliminated.
1134:Generated_Source\PSoC5/SPIS.c ****     #if(SPIS_INTERNAL_TX_INT_ENABLED)
1135:Generated_Source\PSoC5/SPIS.c ****         CyIntEnable(SPIS_TX_ISR_NUMBER);
1136:Generated_Source\PSoC5/SPIS.c ****     #endif /* SPIS_INTERNAL_TX_INT_ENABLED */
1137:Generated_Source\PSoC5/SPIS.c **** 
1138:Generated_Source\PSoC5/SPIS.c ****     #if(SPIS_INTERNAL_RX_INT_ENABLED)
1139:Generated_Source\PSoC5/SPIS.c ****         CyIntEnable(SPIS_RX_ISR_NUMBER);
 905              		.loc 1 1139 0
 906 0000 0122     		movs	r2, #1
 907 0002 014B     		ldr	r3, .L86
 908 0004 1A60     		str	r2, [r3]
 909 0006 7047     		bx	lr
 910              	.L87:
 911              		.align	2
 912              	.L86:
 913 0008 00E100E0 		.word	-536813312
 914              		.cfi_endproc
 915              	.LFE21:
 916              		.size	SPIS_EnableInt, .-SPIS_EnableInt
 917              		.section	.text.SPIS_DisableInt,"ax",%progbits
 918              		.align	2
 919              		.global	SPIS_DisableInt
 920              		.thumb
 921              		.thumb_func
 922              		.type	SPIS_DisableInt, %function
 923              	SPIS_DisableInt:
 924              	.LFB22:
1140:Generated_Source\PSoC5/SPIS.c ****     #endif /* SPIS_INTERNAL_RX_INT_ENABLED */
1141:Generated_Source\PSoC5/SPIS.c **** }
1142:Generated_Source\PSoC5/SPIS.c **** 
1143:Generated_Source\PSoC5/SPIS.c **** 
1144:Generated_Source\PSoC5/SPIS.c **** /*******************************************************************************
1145:Generated_Source\PSoC5/SPIS.c **** * Function Name: SPIS_DisableInt
1146:Generated_Source\PSoC5/SPIS.c **** ********************************************************************************
1147:Generated_Source\PSoC5/SPIS.c **** *
1148:Generated_Source\PSoC5/SPIS.c **** * Summary:
1149:Generated_Source\PSoC5/SPIS.c **** *  Disable internal interrupt generation.
1150:Generated_Source\PSoC5/SPIS.c **** *
1151:Generated_Source\PSoC5/SPIS.c **** * Parameters:
1152:Generated_Source\PSoC5/SPIS.c **** *  None.
1153:Generated_Source\PSoC5/SPIS.c **** *
1154:Generated_Source\PSoC5/SPIS.c **** * Return:
1155:Generated_Source\PSoC5/SPIS.c **** *  None.
1156:Generated_Source\PSoC5/SPIS.c **** *
1157:Generated_Source\PSoC5/SPIS.c **** * Theory:
1158:Generated_Source\PSoC5/SPIS.c **** *  Disable the internal interrupt output -or- the interrupt component itself.
1159:Generated_Source\PSoC5/SPIS.c **** *
1160:Generated_Source\PSoC5/SPIS.c **** *******************************************************************************/
1161:Generated_Source\PSoC5/SPIS.c **** void SPIS_DisableInt(void) 
1162:Generated_Source\PSoC5/SPIS.c **** {
ARM GAS  C:\Users\Mathias\AppData\Local\Temp\ccH8Ni7h.s 			page 38


 925              		.loc 1 1162 0
 926              		.cfi_startproc
 927              		@ args = 0, pretend = 0, frame = 0
 928              		@ frame_needed = 0, uses_anonymous_args = 0
 929              		@ link register save eliminated.
1163:Generated_Source\PSoC5/SPIS.c ****     #if(SPIS_INTERNAL_TX_INT_ENABLED)
1164:Generated_Source\PSoC5/SPIS.c ****         CyIntDisable(SPIS_TX_ISR_NUMBER);
1165:Generated_Source\PSoC5/SPIS.c ****     #endif /* SPIS_INTERNAL_TX_INT_ENABLED */
1166:Generated_Source\PSoC5/SPIS.c **** 
1167:Generated_Source\PSoC5/SPIS.c ****     #if(SPIS_INTERNAL_RX_INT_ENABLED)
1168:Generated_Source\PSoC5/SPIS.c ****         CyIntDisable(SPIS_RX_ISR_NUMBER);
 930              		.loc 1 1168 0
 931 0000 0122     		movs	r2, #1
 932 0002 014B     		ldr	r3, .L89
 933 0004 1A60     		str	r2, [r3]
 934 0006 7047     		bx	lr
 935              	.L90:
 936              		.align	2
 937              	.L89:
 938 0008 80E100E0 		.word	-536813184
 939              		.cfi_endproc
 940              	.LFE22:
 941              		.size	SPIS_DisableInt, .-SPIS_DisableInt
 942              		.section	.text.SPIS_SetInterruptMode,"ax",%progbits
 943              		.align	2
 944              		.global	SPIS_SetInterruptMode
 945              		.thumb
 946              		.thumb_func
 947              		.type	SPIS_SetInterruptMode, %function
 948              	SPIS_SetInterruptMode:
 949              	.LFB23:
1169:Generated_Source\PSoC5/SPIS.c ****     #endif /* SPIS_INTERNAL_RX_INT_ENABLED */
1170:Generated_Source\PSoC5/SPIS.c **** }
1171:Generated_Source\PSoC5/SPIS.c **** 
1172:Generated_Source\PSoC5/SPIS.c **** 
1173:Generated_Source\PSoC5/SPIS.c **** /*******************************************************************************
1174:Generated_Source\PSoC5/SPIS.c **** * Function Name: SPIS_SetInterruptMode
1175:Generated_Source\PSoC5/SPIS.c **** ********************************************************************************
1176:Generated_Source\PSoC5/SPIS.c **** *
1177:Generated_Source\PSoC5/SPIS.c **** * Summary:
1178:Generated_Source\PSoC5/SPIS.c **** *  Configure which status bits trigger an interrupt event.
1179:Generated_Source\PSoC5/SPIS.c **** *
1180:Generated_Source\PSoC5/SPIS.c **** * Parameters:
1181:Generated_Source\PSoC5/SPIS.c **** *  intSrc: An or'd combination of the desired status bit masks (defined in the
1182:Generated_Source\PSoC5/SPIS.c **** *  header file).
1183:Generated_Source\PSoC5/SPIS.c **** *
1184:Generated_Source\PSoC5/SPIS.c **** * Return:
1185:Generated_Source\PSoC5/SPIS.c **** *  None.
1186:Generated_Source\PSoC5/SPIS.c **** *
1187:Generated_Source\PSoC5/SPIS.c **** * Theory:
1188:Generated_Source\PSoC5/SPIS.c **** *  Enables the output of specific status bits to the interrupt controller.
1189:Generated_Source\PSoC5/SPIS.c **** *
1190:Generated_Source\PSoC5/SPIS.c **** *******************************************************************************/
1191:Generated_Source\PSoC5/SPIS.c **** void SPIS_SetInterruptMode(uint8 intSrc) 
1192:Generated_Source\PSoC5/SPIS.c **** {
 950              		.loc 1 1192 0
 951              		.cfi_startproc
ARM GAS  C:\Users\Mathias\AppData\Local\Temp\ccH8Ni7h.s 			page 39


 952              		@ args = 0, pretend = 0, frame = 0
 953              		@ frame_needed = 0, uses_anonymous_args = 0
 954              		@ link register save eliminated.
 955              	.LVL48:
1193:Generated_Source\PSoC5/SPIS.c ****     SPIS_TX_STATUS_MASK_REG  = intSrc;
 956              		.loc 1 1193 0
 957 0000 024B     		ldr	r3, .L92
 958 0002 1870     		strb	r0, [r3]
1194:Generated_Source\PSoC5/SPIS.c ****     SPIS_RX_STATUS_MASK_REG  = intSrc;
 959              		.loc 1 1194 0
 960 0004 FE3B     		subs	r3, r3, #254
 961 0006 1870     		strb	r0, [r3]
 962 0008 7047     		bx	lr
 963              	.L93:
 964 000a 00BF     		.align	2
 965              	.L92:
 966 000c 88650040 		.word	1073767816
 967              		.cfi_endproc
 968              	.LFE23:
 969              		.size	SPIS_SetInterruptMode, .-SPIS_SetInterruptMode
 970              		.section	.text.SPIS_ReadStatus,"ax",%progbits
 971              		.align	2
 972              		.global	SPIS_ReadStatus
 973              		.thumb
 974              		.thumb_func
 975              		.type	SPIS_ReadStatus, %function
 976              	SPIS_ReadStatus:
 977              	.LFB24:
1195:Generated_Source\PSoC5/SPIS.c **** }
1196:Generated_Source\PSoC5/SPIS.c **** 
1197:Generated_Source\PSoC5/SPIS.c **** 
1198:Generated_Source\PSoC5/SPIS.c **** /*******************************************************************************
1199:Generated_Source\PSoC5/SPIS.c **** * Function Name: SPIS_ReadStatus
1200:Generated_Source\PSoC5/SPIS.c **** ********************************************************************************
1201:Generated_Source\PSoC5/SPIS.c **** *
1202:Generated_Source\PSoC5/SPIS.c **** * Summary:
1203:Generated_Source\PSoC5/SPIS.c **** *  Read the status register for the component.
1204:Generated_Source\PSoC5/SPIS.c **** *
1205:Generated_Source\PSoC5/SPIS.c **** * Parameters:
1206:Generated_Source\PSoC5/SPIS.c **** *  None.
1207:Generated_Source\PSoC5/SPIS.c **** *
1208:Generated_Source\PSoC5/SPIS.c **** * Return:
1209:Generated_Source\PSoC5/SPIS.c **** *  Contents of the status register.
1210:Generated_Source\PSoC5/SPIS.c **** *
1211:Generated_Source\PSoC5/SPIS.c **** * Global variables:
1212:Generated_Source\PSoC5/SPIS.c **** *  SPIS_swStatus - used to store in software status register,
1213:Generated_Source\PSoC5/SPIS.c **** *  modified every function call - resets to zero.
1214:Generated_Source\PSoC5/SPIS.c **** *
1215:Generated_Source\PSoC5/SPIS.c **** * Theory:
1216:Generated_Source\PSoC5/SPIS.c **** *  Allows the user and the API to read the status register for error detection
1217:Generated_Source\PSoC5/SPIS.c **** *  and flow control.
1218:Generated_Source\PSoC5/SPIS.c **** *
1219:Generated_Source\PSoC5/SPIS.c **** * Side Effects:
1220:Generated_Source\PSoC5/SPIS.c **** *  Clear status register of the component.
1221:Generated_Source\PSoC5/SPIS.c **** *
1222:Generated_Source\PSoC5/SPIS.c **** * Reentrant:
1223:Generated_Source\PSoC5/SPIS.c **** *  No.
ARM GAS  C:\Users\Mathias\AppData\Local\Temp\ccH8Ni7h.s 			page 40


1224:Generated_Source\PSoC5/SPIS.c **** *
1225:Generated_Source\PSoC5/SPIS.c **** *******************************************************************************/
1226:Generated_Source\PSoC5/SPIS.c **** uint8 SPIS_ReadStatus(void) 
1227:Generated_Source\PSoC5/SPIS.c **** {
 978              		.loc 1 1227 0
 979              		.cfi_startproc
 980              		@ args = 0, pretend = 0, frame = 0
 981              		@ frame_needed = 0, uses_anonymous_args = 0
 982 0000 10B5     		push	{r4, lr}
 983              		.cfi_def_cfa_offset 8
 984              		.cfi_offset 4, -8
 985              		.cfi_offset 14, -4
1228:Generated_Source\PSoC5/SPIS.c ****     uint8 tmpStatus;
1229:Generated_Source\PSoC5/SPIS.c **** 
1230:Generated_Source\PSoC5/SPIS.c ****     #if ((SPIS_TX_SOFTWARE_BUF_ENABLED) || (SPIS_RX_SOFTWARE_BUF_ENABLED))
1231:Generated_Source\PSoC5/SPIS.c **** 
1232:Generated_Source\PSoC5/SPIS.c ****         SPIS_DisableInt();
 986              		.loc 1 1232 0
 987 0002 FFF7FEFF 		bl	SPIS_DisableInt
 988              	.LVL49:
1233:Generated_Source\PSoC5/SPIS.c **** 
1234:Generated_Source\PSoC5/SPIS.c ****         tmpStatus = SPIS_GET_STATUS_TX(SPIS_swStatusTx) |
 989              		.loc 1 1234 0
 990 0006 0C4B     		ldr	r3, .L96
 991 0008 1B78     		ldrb	r3, [r3]	@ zero_extendqisi2
 992 000a 0C49     		ldr	r1, .L96+4
 993 000c 0C78     		ldrb	r4, [r1]	@ zero_extendqisi2
 994 000e 04F06104 		and	r4, r4, #97
 995 0012 2343     		orrs	r3, r3, r4
1235:Generated_Source\PSoC5/SPIS.c ****               (SPIS_GET_STATUS_RX(SPIS_swStatusRx) & (uint8)~SPIS_STS_RX_FIFO_FULL);
 996              		.loc 1 1235 0
 997 0014 0A4A     		ldr	r2, .L96+8
 998 0016 1078     		ldrb	r0, [r2]	@ zero_extendqisi2
 999 0018 0A4A     		ldr	r2, .L96+12
 1000 001a 1478     		ldrb	r4, [r2]	@ zero_extendqisi2
 1001 001c 04F06104 		and	r4, r4, #97
 1002 0020 0443     		orrs	r4, r4, r0
1234:Generated_Source\PSoC5/SPIS.c ****               (SPIS_GET_STATUS_RX(SPIS_swStatusRx) & (uint8)~SPIS_STS_RX_FIFO_FULL);
 1003              		.loc 1 1234 0
 1004 0022 24F04004 		bic	r4, r4, #64
 1005 0026 1C43     		orrs	r4, r4, r3
 1006              	.LVL50:
1236:Generated_Source\PSoC5/SPIS.c **** 
1237:Generated_Source\PSoC5/SPIS.c ****         SPIS_swStatusTx = 0u;
 1007              		.loc 1 1237 0
 1008 0028 0023     		movs	r3, #0
 1009 002a 0B70     		strb	r3, [r1]
1238:Generated_Source\PSoC5/SPIS.c ****         SPIS_swStatusRx = 0u;
 1010              		.loc 1 1238 0
 1011 002c 1370     		strb	r3, [r2]
1239:Generated_Source\PSoC5/SPIS.c **** 
1240:Generated_Source\PSoC5/SPIS.c ****         /* Enable Interrupts */
1241:Generated_Source\PSoC5/SPIS.c ****         SPIS_EnableInt();
 1012              		.loc 1 1241 0
 1013 002e FFF7FEFF 		bl	SPIS_EnableInt
 1014              	.LVL51:
1242:Generated_Source\PSoC5/SPIS.c **** 
ARM GAS  C:\Users\Mathias\AppData\Local\Temp\ccH8Ni7h.s 			page 41


1243:Generated_Source\PSoC5/SPIS.c ****     #else /* !((SPIS_TX_SOFTWARE_BUF_ENABLED) || (SPIS_RX_SOFTWARE_BUF_ENABLED)) */
1244:Generated_Source\PSoC5/SPIS.c **** 
1245:Generated_Source\PSoC5/SPIS.c ****         tmpStatus = SPIS_TX_STATUS_REG | (SPIS_RX_STATUS_REG &
1246:Generated_Source\PSoC5/SPIS.c ****                                                       (uint8)~SPIS_STS_RX_FIFO_FULL);
1247:Generated_Source\PSoC5/SPIS.c **** 
1248:Generated_Source\PSoC5/SPIS.c ****     #endif /* (SPIS_TX_SOFTWARE_BUF_ENABLED) || (SPIS_RX_SOFTWARE_BUF_ENABLED) */
1249:Generated_Source\PSoC5/SPIS.c **** 
1250:Generated_Source\PSoC5/SPIS.c ****     return(tmpStatus);
1251:Generated_Source\PSoC5/SPIS.c **** }
 1015              		.loc 1 1251 0
 1016 0032 2046     		mov	r0, r4
 1017 0034 10BD     		pop	{r4, pc}
 1018              	.LVL52:
 1019              	.L97:
 1020 0036 00BF     		.align	2
 1021              	.L96:
 1022 0038 68650040 		.word	1073767784
 1023 003c 00000000 		.word	SPIS_swStatusTx
 1024 0040 6A640040 		.word	1073767530
 1025 0044 00000000 		.word	SPIS_swStatusRx
 1026              		.cfi_endproc
 1027              	.LFE24:
 1028              		.size	SPIS_ReadStatus, .-SPIS_ReadStatus
 1029              		.comm	SPIS_swStatusRx,1,1
 1030              		.comm	SPIS_swStatusTx,1,1
 1031              		.global	SPIS_initVar
 1032              		.comm	SPIS_rxBufferFull,1,1
 1033              		.comm	SPIS_rxBufferWrite,1,1
 1034              		.comm	SPIS_rxBufferRead,1,1
 1035              		.comm	SPIS_rxBuffer,8,4
 1036              		.bss
 1037              		.set	.LANCHOR0,. + 0
 1038              		.type	SPIS_initVar, %object
 1039              		.size	SPIS_initVar, 1
 1040              	SPIS_initVar:
 1041 0000 00       		.space	1
 1042              		.text
 1043              	.Letext0:
 1044              		.file 2 "Generated_Source\\PSoC5\\cytypes.h"
 1045              		.file 3 "Generated_Source\\PSoC5\\CyLib.h"