ARM GAS  C:\Users\SYFO\AppData\Local\Temp\ccpLGKtH.s 			page 1


   1              		.syntax unified
   2              		.cpu cortex-m3
   3              		.fpu softvfp
   4              		.eabi_attribute 20, 1
   5              		.eabi_attribute 21, 1
   6              		.eabi_attribute 23, 3
   7              		.eabi_attribute 24, 1
   8              		.eabi_attribute 25, 1
   9              		.eabi_attribute 26, 1
  10              		.eabi_attribute 30, 1
  11              		.eabi_attribute 34, 1
  12              		.eabi_attribute 18, 4
  13              		.thumb
  14              		.syntax unified
  15              		.file	"Gyro.c"
  16              		.text
  17              	.Ltext0:
  18              		.cfi_sections	.debug_frame
  19              		.section	.text._Znwj,"ax",%progbits
  20              		.align	2
  21              		.global	_Znwj
  22              		.thumb
  23              		.thumb_func
  24              		.type	_Znwj, %function
  25              	_Znwj:
  26              	.LFB69:
  27              		.file 1 "Gyro.c"
   1:Gyro.c        **** /* ========================================
   2:Gyro.c        ****  *
   3:Gyro.c        ****  * Copyright YOUR COMPANY, THE YEAR
   4:Gyro.c        ****  * All Rights Reserved
   5:Gyro.c        ****  * UNPUBLISHED, LICENSED SOFTWARE.
   6:Gyro.c        ****  *
   7:Gyro.c        ****  * CONFIDENTIAL AND PROPRIETARY INFORMATION
   8:Gyro.c        ****  * WHICH IS THE PROPERTY OF your company.
   9:Gyro.c        ****  *
  10:Gyro.c        ****  * ========================================
  11:Gyro.c        **** */
  12:Gyro.c        **** #include "Gyro.h"
  13:Gyro.c        **** 
  14:Gyro.c        **** /*C++ new and delete operators*/
  15:Gyro.c        **** void* operator new(size_t size) { 
  28              		.loc 1 15 0
  29              		.cfi_startproc
  30              		@ args = 0, pretend = 0, frame = 0
  31              		@ frame_needed = 0, uses_anonymous_args = 0
  32              	.LVL0:
  33 0000 08B5     		push	{r3, lr}
  34              		.cfi_def_cfa_offset 8
  35              		.cfi_offset 3, -8
  36              		.cfi_offset 14, -4
  16:Gyro.c        ****     return malloc(size); 
  37              		.loc 1 16 0
  38 0002 FFF7FEFF 		bl	malloc
  39              	.LVL1:
  17:Gyro.c        **** } 
  40              		.loc 1 17 0
ARM GAS  C:\Users\SYFO\AppData\Local\Temp\ccpLGKtH.s 			page 2


  41 0006 08BD     		pop	{r3, pc}
  42              		.cfi_endproc
  43              	.LFE69:
  44              		.size	_Znwj, .-_Znwj
  45              		.section	.text._ZdlPv,"ax",%progbits
  46              		.align	2
  47              		.global	_ZdlPv
  48              		.thumb
  49              		.thumb_func
  50              		.type	_ZdlPv, %function
  51              	_ZdlPv:
  52              	.LFB70:
  18:Gyro.c        **** 
  19:Gyro.c        **** void operator delete(void* ptr) {
  53              		.loc 1 19 0
  54              		.cfi_startproc
  55              		@ args = 0, pretend = 0, frame = 0
  56              		@ frame_needed = 0, uses_anonymous_args = 0
  57              	.LVL2:
  58 0000 08B5     		push	{r3, lr}
  59              		.cfi_def_cfa_offset 8
  60              		.cfi_offset 3, -8
  61              		.cfi_offset 14, -4
  20:Gyro.c        ****     free(ptr); 
  62              		.loc 1 20 0
  63 0002 FFF7FEFF 		bl	free
  64              	.LVL3:
  65 0006 08BD     		pop	{r3, pc}
  66              		.cfi_endproc
  67              	.LFE70:
  68              		.size	_ZdlPv, .-_ZdlPv
  69              		.section	.text._ZN4GyroD2Ev,"ax",%progbits
  70              		.align	2
  71              		.global	_ZN4GyroD2Ev
  72              		.thumb
  73              		.thumb_func
  74              		.type	_ZN4GyroD2Ev, %function
  75              	_ZN4GyroD2Ev:
  76              	.LFB81:
  21:Gyro.c        **** }
  22:Gyro.c        **** 
  23:Gyro.c        **** Gyro::Gyro(){
  24:Gyro.c        **** 	/*Make I2C interface*/
  25:Gyro.c        **** 	I2C = new i2c;
  26:Gyro.c        **** 	
  27:Gyro.c        **** 	/*Initialize pointers to structures*/
  28:Gyro.c        **** 	acceldata_ = new acc_data;
  29:Gyro.c        **** 	gyrodata_ = new gyro_data;
  30:Gyro.c        **** 	sensordata_ = new sensor_data(gyrodata_,
  31:Gyro.c        **** 		acceldata_,
  32:Gyro.c        **** 		&temperature_);
  33:Gyro.c        **** 	sensordata_->gyro_ = gyrodata_;
  34:Gyro.c        **** 	
  35:Gyro.c        **** 	initGyro();
  36:Gyro.c        **** };
  37:Gyro.c        ****     
  38:Gyro.c        **** Gyro::~Gyro(){
ARM GAS  C:\Users\SYFO\AppData\Local\Temp\ccpLGKtH.s 			page 3


  77              		.loc 1 38 0
  78              		.cfi_startproc
  79              		@ args = 0, pretend = 0, frame = 0
  80              		@ frame_needed = 0, uses_anonymous_args = 0
  81              	.LVL4:
  82 0000 10B5     		push	{r4, lr}
  83              		.cfi_def_cfa_offset 8
  84              		.cfi_offset 4, -8
  85              		.cfi_offset 14, -4
  86 0002 0446     		mov	r4, r0
  87              	.LBB11:
  39:Gyro.c        **** 	/*Free dynamically allocated memory*/
  40:Gyro.c        **** 	delete I2C;
  88              		.loc 1 40 0
  89 0004 0068     		ldr	r0, [r0]
  90              	.LVL5:
  91 0006 FFF7FEFF 		bl	_ZdlPv
  92              	.LVL6:
  41:Gyro.c        **** 	delete acceldata_;
  93              		.loc 1 41 0
  94 000a A068     		ldr	r0, [r4, #8]
  95 000c FFF7FEFF 		bl	_ZdlPv
  96              	.LVL7:
  42:Gyro.c        **** 	delete gyrodata_;
  97              		.loc 1 42 0
  98 0010 E068     		ldr	r0, [r4, #12]
  99 0012 FFF7FEFF 		bl	_ZdlPv
 100              	.LVL8:
  43:Gyro.c        **** 	delete sensordata_;
 101              		.loc 1 43 0
 102 0016 2069     		ldr	r0, [r4, #16]
 103 0018 FFF7FEFF 		bl	_ZdlPv
 104              	.LVL9:
 105              	.LBE11:
  44:Gyro.c        **** };
 106              		.loc 1 44 0
 107 001c 2046     		mov	r0, r4
 108 001e 10BD     		pop	{r4, pc}
 109              		.cfi_endproc
 110              	.LFE81:
 111              		.size	_ZN4GyroD2Ev, .-_ZN4GyroD2Ev
 112              		.global	_ZN4GyroD1Ev
 113              		.thumb_set _ZN4GyroD1Ev,_ZN4GyroD2Ev
 114              		.section	.text._ZN4Gyro8initGyroEv,"ax",%progbits
 115              		.align	2
 116              		.global	_ZN4Gyro8initGyroEv
 117              		.thumb
 118              		.thumb_func
 119              		.type	_ZN4Gyro8initGyroEv, %function
 120              	_ZN4Gyro8initGyroEv:
 121              	.LFB84:
  45:Gyro.c        **** 
  46:Gyro.c        **** int Gyro::hasFallen()
  47:Gyro.c        **** {
  48:Gyro.c        **** 	getAccData();
  49:Gyro.c        **** 	//return 1;
  50:Gyro.c        **** 	return acceldata_->z_G < 0 ? 1 : 0;
ARM GAS  C:\Users\SYFO\AppData\Local\Temp\ccpLGKtH.s 			page 4


  51:Gyro.c        **** }
  52:Gyro.c        **** 
  53:Gyro.c        **** void Gyro::initGyro()
  54:Gyro.c        **** {
 122              		.loc 1 54 0
 123              		.cfi_startproc
 124              		@ args = 0, pretend = 0, frame = 0
 125              		@ frame_needed = 0, uses_anonymous_args = 0
 126              	.LVL10:
 127 0000 10B5     		push	{r4, lr}
 128              		.cfi_def_cfa_offset 8
 129              		.cfi_offset 4, -8
 130              		.cfi_offset 14, -4
 131 0002 0446     		mov	r4, r0
  55:Gyro.c        ****     //Initializing MPU6050 -- Might need some tweaking
  56:Gyro.c        ****     //UART_1_PutString("Intializing MPU6050..\r\n");
  57:Gyro.c        ****     I2C->WriteByte(MPU6050_ADD, PWR_MGMT_1, 0x00);
 132              		.loc 1 57 0
 133 0004 0023     		movs	r3, #0
 134 0006 6B22     		movs	r2, #107
 135 0008 6821     		movs	r1, #104
 136 000a 0068     		ldr	r0, [r0]
 137              	.LVL11:
 138 000c FFF7FEFF 		bl	_ZN3i2c9WriteByteEhhh
 139              	.LVL12:
  58:Gyro.c        ****     I2C->WriteByte(MPU6050_ADD,SMPRT_DIV,109);
 140              		.loc 1 58 0
 141 0010 6D23     		movs	r3, #109
 142 0012 1922     		movs	r2, #25
 143 0014 6821     		movs	r1, #104
 144 0016 2068     		ldr	r0, [r4]
 145 0018 FFF7FEFF 		bl	_ZN3i2c9WriteByteEhhh
 146              	.LVL13:
  59:Gyro.c        ****     I2C->WriteByte(MPU6050_ADD,GYRO_CONFIG,0x18); // FULLSCALE
 147              		.loc 1 59 0
 148 001c 1823     		movs	r3, #24
 149 001e 1B22     		movs	r2, #27
 150 0020 6821     		movs	r1, #104
 151 0022 2068     		ldr	r0, [r4]
 152 0024 FFF7FEFF 		bl	_ZN3i2c9WriteByteEhhh
 153              	.LVL14:
  60:Gyro.c        ****     I2C->WriteByte(MPU6050_ADD,USER_CTRL,0x20);
 154              		.loc 1 60 0
 155 0028 2023     		movs	r3, #32
 156 002a 6A22     		movs	r2, #106
 157 002c 6821     		movs	r1, #104
 158 002e 2068     		ldr	r0, [r4]
 159 0030 FFF7FEFF 		bl	_ZN3i2c9WriteByteEhhh
 160              	.LVL15:
  61:Gyro.c        ****     I2C->WriteByte(MPU6050_ADD,INT_PIN_CFG,0x37);
 161              		.loc 1 61 0
 162 0034 3723     		movs	r3, #55
 163 0036 1A46     		mov	r2, r3
 164 0038 6821     		movs	r1, #104
 165 003a 2068     		ldr	r0, [r4]
 166 003c FFF7FEFF 		bl	_ZN3i2c9WriteByteEhhh
 167              	.LVL16:
ARM GAS  C:\Users\SYFO\AppData\Local\Temp\ccpLGKtH.s 			page 5


  62:Gyro.c        ****     I2C->WriteByte(MPU6050_ADD,CONFIG,6);         //6 very slow
 168              		.loc 1 62 0
 169 0040 0623     		movs	r3, #6
 170 0042 1A22     		movs	r2, #26
 171 0044 6821     		movs	r1, #104
 172 0046 2068     		ldr	r0, [r4]
 173 0048 FFF7FEFF 		bl	_ZN3i2c9WriteByteEhhh
 174              	.LVL17:
 175 004c 10BD     		pop	{r4, pc}
 176              		.cfi_endproc
 177              	.LFE84:
 178              		.size	_ZN4Gyro8initGyroEv, .-_ZN4Gyro8initGyroEv
 179 004e 00BF     		.section	.text._ZN4GyroC2Ev,"ax",%progbits
 180              		.align	2
 181              		.global	_ZN4GyroC2Ev
 182              		.thumb
 183              		.thumb_func
 184              		.type	_ZN4GyroC2Ev, %function
 185              	_ZN4GyroC2Ev:
 186              	.LFB78:
  23:Gyro.c        **** 	/*Make I2C interface*/
 187              		.loc 1 23 0
 188              		.cfi_startproc
 189              		@ args = 0, pretend = 0, frame = 0
 190              		@ frame_needed = 0, uses_anonymous_args = 0
 191              	.LVL18:
 192 0000 70B5     		push	{r4, r5, r6, lr}
 193              		.cfi_def_cfa_offset 16
 194              		.cfi_offset 4, -16
 195              		.cfi_offset 5, -12
 196              		.cfi_offset 6, -8
 197              		.cfi_offset 14, -4
 198 0002 0446     		mov	r4, r0
 199              	.LBB12:
  23:Gyro.c        **** 	/*Make I2C interface*/
 200              		.loc 1 23 0
 201 0004 0026     		movs	r6, #0
 202 0006 4660     		str	r6, [r0, #4]	@ float
 203 0008 0025     		movs	r5, #0
 204 000a 8560     		str	r5, [r0, #8]
 205 000c C560     		str	r5, [r0, #12]
 206 000e 0561     		str	r5, [r0, #16]
  25:Gyro.c        **** 	
 207              		.loc 1 25 0
 208 0010 0120     		movs	r0, #1
 209              	.LVL19:
 210 0012 FFF7FEFF 		bl	_Znwj
 211              	.LVL20:
 212 0016 2060     		str	r0, [r4]
  28:Gyro.c        **** 	gyrodata_ = new gyro_data;
 213              		.loc 1 28 0
 214 0018 1420     		movs	r0, #20
 215 001a FFF7FEFF 		bl	_Znwj
 216              	.LVL21:
 217              	.LBB13:
 218              	.LBB14:
 219              		.file 2 "GyroDefs.h"
ARM GAS  C:\Users\SYFO\AppData\Local\Temp\ccpLGKtH.s 			page 6


   1:GyroDefs.h    **** /* ========================================
   2:GyroDefs.h    ****  *
   3:GyroDefs.h    ****  * Copyright YOUR COMPANY, THE YEAR
   4:GyroDefs.h    ****  * All Rights Reserved
   5:GyroDefs.h    ****  * UNPUBLISHED, LICENSED SOFTWARE.
   6:GyroDefs.h    ****  *
   7:GyroDefs.h    ****  * CONFIDENTIAL AND PROPRIETARY INFORMATION
   8:GyroDefs.h    ****  * WHICH IS THE PROPERTY OF your company.
   9:GyroDefs.h    ****  *
  10:GyroDefs.h    ****  * ========================================
  11:GyroDefs.h    **** */
  12:GyroDefs.h    **** 
  13:GyroDefs.h    **** #ifndef GYRODEFS_H
  14:GyroDefs.h    **** #define GYRODEFS_H
  15:GyroDefs.h    **** 
  16:GyroDefs.h    **** #ifdef __cplusplus
  17:GyroDefs.h    **** extern "C" {
  18:GyroDefs.h    **** #endif
  19:GyroDefs.h    ****     // PSoC include, this has to be wrapped
  20:GyroDefs.h    ****     #include "project.h"
  21:GyroDefs.h    **** 
  22:GyroDefs.h    **** #ifdef __cplusplus
  23:GyroDefs.h    **** }
  24:GyroDefs.h    **** #endif
  25:GyroDefs.h    **** 
  26:GyroDefs.h    **** #include <stdlib.h>
  27:GyroDefs.h    **** 
  28:GyroDefs.h    **** /*ADDRESSES FOR I2C-COMMUNICATION WITH MPU6050*/
  29:GyroDefs.h    **** #define MPU6050_ADD     (0x68)      // Device / Slave Address
  30:GyroDefs.h    **** #define PWR_MGMT_1      (0x6B)      // Reset with 0x00 to wakeup
  31:GyroDefs.h    **** #define SMPRT_DIV       (0x19)      // Register for holding sample rate 109
  32:GyroDefs.h    **** #define GYRO_CONFIG     (0x1b)      // Register for self-test and scale 0x18 for fullscale
  33:GyroDefs.h    **** #define ACCEL_CONFIG    (0x1c)      // --||-- 0x08 fullscale +- 4g
  34:GyroDefs.h    **** #define USER_CTRL       (0x6a)      // 0x00 to disable master mode | 0x20 to enable
  35:GyroDefs.h    **** #define INT_PIN_CFG     (0x37)      // 0x02 I2C bypass enable
  36:GyroDefs.h    **** #define CONFIG          (0x1A)      // For setting DLPF - fast or slow
  37:GyroDefs.h    **** #define START_GYRO_DATA (0x43)      // First address in gyro registers      | 6bytes long
  38:GyroDefs.h    **** #define START_ACC_DATA  (0x3b)      // First address in accelerometer       | 6bytes long
  39:GyroDefs.h    **** #define START_TEMP_DATA (0x41)      // First address in temperature sensor  | 2bytes long
  40:GyroDefs.h    **** 
  41:GyroDefs.h    **** /***********Typedefs************/
  42:GyroDefs.h    **** /*Structure for gyrosensor data*/
  43:GyroDefs.h    **** typedef struct gyro_data {
  44:GyroDefs.h    ****     int16_t x = 0;
  45:GyroDefs.h    ****     int16_t y = 0;
  46:GyroDefs.h    ****     int16_t z = 0;
  47:GyroDefs.h    ****     float x_rad = 0.0f;
  48:GyroDefs.h    ****     float y_rad = 0.0f;
  49:GyroDefs.h    ****     float z_rad = 0.0f;
  50:GyroDefs.h    **** } gyro_data;
  51:GyroDefs.h    **** 
  52:GyroDefs.h    **** /*Structure for accelerometer data*/
  53:GyroDefs.h    **** typedef struct acc_data {
 220              		.loc 2 53 0
 221 001e 0580     		strh	r5, [r0]	@ movhi
 222 0020 4580     		strh	r5, [r0, #2]	@ movhi
 223 0022 8580     		strh	r5, [r0, #4]	@ movhi
ARM GAS  C:\Users\SYFO\AppData\Local\Temp\ccpLGKtH.s 			page 7


 224 0024 8660     		str	r6, [r0, #8]	@ float
 225 0026 C660     		str	r6, [r0, #12]	@ float
 226 0028 0661     		str	r6, [r0, #16]	@ float
 227              	.LVL22:
 228              	.LBE14:
 229              	.LBE13:
  28:Gyro.c        **** 	gyrodata_ = new gyro_data;
 230              		.loc 1 28 0
 231 002a A060     		str	r0, [r4, #8]
  29:Gyro.c        **** 	sensordata_ = new sensor_data(gyrodata_,
 232              		.loc 1 29 0
 233 002c 1420     		movs	r0, #20
 234 002e FFF7FEFF 		bl	_Znwj
 235              	.LVL23:
 236              	.LBB15:
 237              	.LBB16:
  43:GyroDefs.h    ****     int16_t x = 0;
 238              		.loc 2 43 0
 239 0032 0580     		strh	r5, [r0]	@ movhi
 240 0034 4580     		strh	r5, [r0, #2]	@ movhi
 241 0036 8580     		strh	r5, [r0, #4]	@ movhi
 242 0038 8660     		str	r6, [r0, #8]	@ float
 243 003a C660     		str	r6, [r0, #12]	@ float
 244 003c 0661     		str	r6, [r0, #16]	@ float
 245              	.LVL24:
 246              	.LBE16:
 247              	.LBE15:
  29:Gyro.c        **** 	sensordata_ = new sensor_data(gyrodata_,
 248              		.loc 1 29 0
 249 003e E060     		str	r0, [r4, #12]
  32:Gyro.c        **** 	sensordata_->gyro_ = gyrodata_;
 250              		.loc 1 32 0
 251 0040 0C20     		movs	r0, #12
 252 0042 FFF7FEFF 		bl	_Znwj
 253              	.LVL25:
 254 0046 0546     		mov	r5, r0
 255 0048 231D     		adds	r3, r4, #4
 256 004a A268     		ldr	r2, [r4, #8]
 257 004c E168     		ldr	r1, [r4, #12]
 258 004e FFF7FEFF 		bl	_ZN11sensor_dataC1EP9gyro_dataP8acc_dataPf
 259              	.LVL26:
 260 0052 2561     		str	r5, [r4, #16]
  33:Gyro.c        **** 	
 261              		.loc 1 33 0
 262 0054 E368     		ldr	r3, [r4, #12]
 263 0056 2B60     		str	r3, [r5]
  35:Gyro.c        **** };
 264              		.loc 1 35 0
 265 0058 2046     		mov	r0, r4
 266 005a FFF7FEFF 		bl	_ZN4Gyro8initGyroEv
 267              	.LVL27:
 268              	.LBE12:
  36:Gyro.c        ****     
 269              		.loc 1 36 0
 270 005e 2046     		mov	r0, r4
 271 0060 70BD     		pop	{r4, r5, r6, pc}
 272              		.cfi_endproc
ARM GAS  C:\Users\SYFO\AppData\Local\Temp\ccpLGKtH.s 			page 8


 273              	.LFE78:
 274              		.size	_ZN4GyroC2Ev, .-_ZN4GyroC2Ev
 275              		.global	_ZN4GyroC1Ev
 276              		.thumb_set _ZN4GyroC1Ev,_ZN4GyroC2Ev
 277              		.global	__aeabi_i2f
 278              		.global	__aeabi_fmul
 279 0062 00BF     		.section	.text._ZN4Gyro10getAccDataEv,"ax",%progbits
 280              		.align	2
 281              		.global	_ZN4Gyro10getAccDataEv
 282              		.thumb
 283              		.thumb_func
 284              		.type	_ZN4Gyro10getAccDataEv, %function
 285              	_ZN4Gyro10getAccDataEv:
 286              	.LFB85:
  63:Gyro.c        ****     
  64:Gyro.c        **** }
  65:Gyro.c        **** 
  66:Gyro.c        **** acc_data* Gyro::getAccData()
  67:Gyro.c        **** {
 287              		.loc 1 67 0
 288              		.cfi_startproc
 289              		@ args = 0, pretend = 0, frame = 8
 290              		@ frame_needed = 0, uses_anonymous_args = 0
 291              	.LVL28:
 292 0000 30B5     		push	{r4, r5, lr}
 293              		.cfi_def_cfa_offset 12
 294              		.cfi_offset 4, -12
 295              		.cfi_offset 5, -8
 296              		.cfi_offset 14, -4
 297 0002 85B0     		sub	sp, sp, #20
 298              		.cfi_def_cfa_offset 32
 299 0004 0446     		mov	r4, r0
  68:Gyro.c        **** 	//Buffer for sensor data
  69:Gyro.c        ****     uint8_t rx_buffer[6];
  70:Gyro.c        **** 
  71:Gyro.c        ****     /*Read data into buffer*/
  72:Gyro.c        ****     I2C->ReadBytes(MPU6050_ADD,START_ACC_DATA, 6, rx_buffer);
 300              		.loc 1 72 0
 301 0006 02AB     		add	r3, sp, #8
 302 0008 0093     		str	r3, [sp]
 303 000a 0623     		movs	r3, #6
 304 000c 3B22     		movs	r2, #59
 305 000e 6821     		movs	r1, #104
 306 0010 0068     		ldr	r0, [r0]
 307              	.LVL29:
 308 0012 FFF7FEFF 		bl	_ZN3i2c9ReadBytesEhhhPh
 309              	.LVL30:
  73:Gyro.c        ****     
  74:Gyro.c        ****     //Extract raw data
  75:Gyro.c        ****     acceldata_->x = rx_buffer[0] << 8 | rx_buffer[1];
 310              		.loc 1 75 0
 311 0016 A268     		ldr	r2, [r4, #8]
 312 0018 9DF80810 		ldrb	r1, [sp, #8]	@ zero_extendqisi2
 313 001c 9DF80930 		ldrb	r3, [sp, #9]	@ zero_extendqisi2
 314 0020 43EA0123 		orr	r3, r3, r1, lsl #8
 315 0024 1380     		strh	r3, [r2]	@ movhi
  76:Gyro.c        ****     acceldata_->y = rx_buffer[2] << 8 | rx_buffer[3];
ARM GAS  C:\Users\SYFO\AppData\Local\Temp\ccpLGKtH.s 			page 9


 316              		.loc 1 76 0
 317 0026 A268     		ldr	r2, [r4, #8]
 318 0028 9DF80A10 		ldrb	r1, [sp, #10]	@ zero_extendqisi2
 319 002c 9DF80B30 		ldrb	r3, [sp, #11]	@ zero_extendqisi2
 320 0030 43EA0123 		orr	r3, r3, r1, lsl #8
 321 0034 5380     		strh	r3, [r2, #2]	@ movhi
  77:Gyro.c        ****     acceldata_->z = rx_buffer[4] << 8 | rx_buffer[5];
 322              		.loc 1 77 0
 323 0036 A268     		ldr	r2, [r4, #8]
 324 0038 9DF80C10 		ldrb	r1, [sp, #12]	@ zero_extendqisi2
 325 003c 9DF80D30 		ldrb	r3, [sp, #13]	@ zero_extendqisi2
 326 0040 43EA0123 		orr	r3, r3, r1, lsl #8
 327 0044 9380     		strh	r3, [r2, #4]	@ movhi
  78:Gyro.c        ****     
  79:Gyro.c        ****     /*Convert into G's*/
  80:Gyro.c        ****     acceldata_->x_G = acceldata_->x / 8192.0f;
 328              		.loc 1 80 0
 329 0046 A568     		ldr	r5, [r4, #8]
 330 0048 B5F90000 		ldrsh	r0, [r5]
 331 004c FFF7FEFF 		bl	__aeabi_i2f
 332              	.LVL31:
 333 0050 4FF06451 		mov	r1, #956301312
 334 0054 FFF7FEFF 		bl	__aeabi_fmul
 335              	.LVL32:
 336 0058 A860     		str	r0, [r5, #8]	@ float
  81:Gyro.c        ****     acceldata_->y_G = acceldata_->y / 8192.0f;
 337              		.loc 1 81 0
 338 005a A568     		ldr	r5, [r4, #8]
 339 005c B5F90200 		ldrsh	r0, [r5, #2]
 340 0060 FFF7FEFF 		bl	__aeabi_i2f
 341              	.LVL33:
 342 0064 4FF06451 		mov	r1, #956301312
 343 0068 FFF7FEFF 		bl	__aeabi_fmul
 344              	.LVL34:
 345 006c E860     		str	r0, [r5, #12]	@ float
  82:Gyro.c        ****     acceldata_->z_G = acceldata_->z / 8192.0f;
 346              		.loc 1 82 0
 347 006e A568     		ldr	r5, [r4, #8]
 348 0070 B5F90400 		ldrsh	r0, [r5, #4]
 349 0074 FFF7FEFF 		bl	__aeabi_i2f
 350              	.LVL35:
 351 0078 4FF06451 		mov	r1, #956301312
 352 007c FFF7FEFF 		bl	__aeabi_fmul
 353              	.LVL36:
 354 0080 2861     		str	r0, [r5, #16]	@ float
  83:Gyro.c        **** 	
  84:Gyro.c        **** 	return acceldata_;
  85:Gyro.c        **** }
 355              		.loc 1 85 0
 356 0082 A068     		ldr	r0, [r4, #8]
 357 0084 05B0     		add	sp, sp, #20
 358              		.cfi_def_cfa_offset 12
 359              		@ sp needed
 360 0086 30BD     		pop	{r4, r5, pc}
 361              		.cfi_endproc
 362              	.LFE85:
 363              		.size	_ZN4Gyro10getAccDataEv, .-_ZN4Gyro10getAccDataEv
ARM GAS  C:\Users\SYFO\AppData\Local\Temp\ccpLGKtH.s 			page 10


 364              		.global	__aeabi_fcmplt
 365              		.section	.text._ZN4Gyro9hasFallenEv,"ax",%progbits
 366              		.align	2
 367              		.global	_ZN4Gyro9hasFallenEv
 368              		.thumb
 369              		.thumb_func
 370              		.type	_ZN4Gyro9hasFallenEv, %function
 371              	_ZN4Gyro9hasFallenEv:
 372              	.LFB83:
  47:Gyro.c        **** 	getAccData();
 373              		.loc 1 47 0
 374              		.cfi_startproc
 375              		@ args = 0, pretend = 0, frame = 0
 376              		@ frame_needed = 0, uses_anonymous_args = 0
 377              	.LVL37:
 378 0000 10B5     		push	{r4, lr}
 379              		.cfi_def_cfa_offset 8
 380              		.cfi_offset 4, -8
 381              		.cfi_offset 14, -4
 382 0002 0446     		mov	r4, r0
  48:Gyro.c        **** 	//return 1;
 383              		.loc 1 48 0
 384 0004 FFF7FEFF 		bl	_ZN4Gyro10getAccDataEv
 385              	.LVL38:
  50:Gyro.c        **** }
 386              		.loc 1 50 0
 387 0008 A368     		ldr	r3, [r4, #8]
 388 000a 0021     		movs	r1, #0
 389 000c 1869     		ldr	r0, [r3, #16]	@ float
 390 000e FFF7FEFF 		bl	__aeabi_fcmplt
 391              	.LVL39:
 392 0012 08B1     		cbz	r0, .L18
 393 0014 0120     		movs	r0, #1
 394 0016 10BD     		pop	{r4, pc}
 395              	.LVL40:
 396              	.L18:
 397 0018 0020     		movs	r0, #0
  51:Gyro.c        **** 
 398              		.loc 1 51 0
 399 001a 10BD     		pop	{r4, pc}
 400              		.cfi_endproc
 401              	.LFE83:
 402              		.size	_ZN4Gyro9hasFallenEv, .-_ZN4Gyro9hasFallenEv
 403              		.global	__aeabi_fdiv
 404              		.global	__aeabi_fadd
 405              		.section	.text._ZN4Gyro7getTempEv,"ax",%progbits
 406              		.align	2
 407              		.global	_ZN4Gyro7getTempEv
 408              		.thumb
 409              		.thumb_func
 410              		.type	_ZN4Gyro7getTempEv, %function
 411              	_ZN4Gyro7getTempEv:
 412              	.LFB86:
  86:Gyro.c        **** 
  87:Gyro.c        **** float Gyro::getTemp()
  88:Gyro.c        **** {
 413              		.loc 1 88 0
ARM GAS  C:\Users\SYFO\AppData\Local\Temp\ccpLGKtH.s 			page 11


 414              		.cfi_startproc
 415              		@ args = 0, pretend = 0, frame = 8
 416              		@ frame_needed = 0, uses_anonymous_args = 0
 417              	.LVL41:
 418 0000 10B5     		push	{r4, lr}
 419              		.cfi_def_cfa_offset 8
 420              		.cfi_offset 4, -8
 421              		.cfi_offset 14, -4
 422 0002 84B0     		sub	sp, sp, #16
 423              		.cfi_def_cfa_offset 24
 424 0004 0446     		mov	r4, r0
  89:Gyro.c        ****     uint8_t rx_buffer[2];
  90:Gyro.c        ****     uint16_t temp_buffer;
  91:Gyro.c        ****     
  92:Gyro.c        ****     /*Read data into buffer*/
  93:Gyro.c        ****     I2C->ReadBytes(MPU6050_ADD,START_TEMP_DATA, 2, rx_buffer);
 425              		.loc 1 93 0
 426 0006 03AB     		add	r3, sp, #12
 427 0008 0093     		str	r3, [sp]
 428 000a 0223     		movs	r3, #2
 429 000c 4122     		movs	r2, #65
 430 000e 6821     		movs	r1, #104
 431 0010 0068     		ldr	r0, [r0]
 432              	.LVL42:
 433 0012 FFF7FEFF 		bl	_ZN3i2c9ReadBytesEhhhPh
 434              	.LVL43:
  94:Gyro.c        ****     
  95:Gyro.c        ****     /*Extract raw data*/
  96:Gyro.c        ****     temp_buffer = rx_buffer[0] << 8 | rx_buffer[1];
 435              		.loc 1 96 0
 436 0016 9DF80C00 		ldrb	r0, [sp, #12]	@ zero_extendqisi2
 437 001a 9DF80D30 		ldrb	r3, [sp, #13]	@ zero_extendqisi2
 438              	.LVL44:
  97:Gyro.c        ****     
  98:Gyro.c        ****     /*Convert to celsius*/
  99:Gyro.c        ****     temperature_ = temp_buffer / 340.0f + 36.53f;
 439              		.loc 1 99 0
 440 001e 43EA0020 		orr	r0, r3, r0, lsl #8
 441              	.LVL45:
 442 0022 FFF7FEFF 		bl	__aeabi_i2f
 443              	.LVL46:
 444 0026 0449     		ldr	r1, .L22
 445 0028 FFF7FEFF 		bl	__aeabi_fdiv
 446              	.LVL47:
 447 002c 0349     		ldr	r1, .L22+4
 448 002e FFF7FEFF 		bl	__aeabi_fadd
 449              	.LVL48:
 450 0032 6060     		str	r0, [r4, #4]	@ float
 100:Gyro.c        **** 	return temperature_;
 101:Gyro.c        **** }
 451              		.loc 1 101 0
 452 0034 04B0     		add	sp, sp, #16
 453              		.cfi_def_cfa_offset 8
 454              		@ sp needed
 455 0036 10BD     		pop	{r4, pc}
 456              	.LVL49:
 457              	.L23:
ARM GAS  C:\Users\SYFO\AppData\Local\Temp\ccpLGKtH.s 			page 12


 458              		.align	2
 459              	.L22:
 460 0038 0000AA43 		.word	1135214592
 461 003c B81E1242 		.word	1108483768
 462              		.cfi_endproc
 463              	.LFE86:
 464              		.size	_ZN4Gyro7getTempEv, .-_ZN4Gyro7getTempEv
 465              		.section	.text._ZN4Gyro11getGyroDataEv,"ax",%progbits
 466              		.align	2
 467              		.global	_ZN4Gyro11getGyroDataEv
 468              		.thumb
 469              		.thumb_func
 470              		.type	_ZN4Gyro11getGyroDataEv, %function
 471              	_ZN4Gyro11getGyroDataEv:
 472              	.LFB88:
 102:Gyro.c        **** 
 103:Gyro.c        **** sensor_data* Gyro::getSensorData()
 104:Gyro.c        **** {
 105:Gyro.c        **** 	/*Get new values from sensor!*/
 106:Gyro.c        **** 	getAccData();
 107:Gyro.c        **** 	getTemp();
 108:Gyro.c        **** 	getGyroData();
 109:Gyro.c        **** 	
 110:Gyro.c        **** 	/*Return sensor struct*/
 111:Gyro.c        **** 	return sensordata_;
 112:Gyro.c        **** }
 113:Gyro.c        **** 
 114:Gyro.c        **** gyro_data* Gyro::getGyroData()
 115:Gyro.c        **** {
 473              		.loc 1 115 0
 474              		.cfi_startproc
 475              		@ args = 0, pretend = 0, frame = 8
 476              		@ frame_needed = 0, uses_anonymous_args = 0
 477              	.LVL50:
 478 0000 30B5     		push	{r4, r5, lr}
 479              		.cfi_def_cfa_offset 12
 480              		.cfi_offset 4, -12
 481              		.cfi_offset 5, -8
 482              		.cfi_offset 14, -4
 483 0002 85B0     		sub	sp, sp, #20
 484              		.cfi_def_cfa_offset 32
 485 0004 0446     		mov	r4, r0
 116:Gyro.c        **** 	//Buffer for sensor data
 117:Gyro.c        ****     uint8_t rx_buffer[6];
 118:Gyro.c        **** 
 119:Gyro.c        ****     /*Read data into buffer*/
 120:Gyro.c        ****     I2C->ReadBytes(MPU6050_ADD,START_GYRO_DATA, 6, rx_buffer);
 486              		.loc 1 120 0
 487 0006 02AB     		add	r3, sp, #8
 488 0008 0093     		str	r3, [sp]
 489 000a 0623     		movs	r3, #6
 490 000c 4322     		movs	r2, #67
 491 000e 6821     		movs	r1, #104
 492 0010 0068     		ldr	r0, [r0]
 493              	.LVL51:
 494 0012 FFF7FEFF 		bl	_ZN3i2c9ReadBytesEhhhPh
 495              	.LVL52:
ARM GAS  C:\Users\SYFO\AppData\Local\Temp\ccpLGKtH.s 			page 13


 121:Gyro.c        ****     
 122:Gyro.c        ****     //Extract raw data
 123:Gyro.c        ****     gyrodata_->x = rx_buffer[0] << 8 | rx_buffer[1];
 496              		.loc 1 123 0
 497 0016 E268     		ldr	r2, [r4, #12]
 498 0018 9DF80810 		ldrb	r1, [sp, #8]	@ zero_extendqisi2
 499 001c 9DF80930 		ldrb	r3, [sp, #9]	@ zero_extendqisi2
 500 0020 43EA0123 		orr	r3, r3, r1, lsl #8
 501 0024 1380     		strh	r3, [r2]	@ movhi
 124:Gyro.c        ****     gyrodata_->y = rx_buffer[2] << 8 | rx_buffer[3];
 502              		.loc 1 124 0
 503 0026 E268     		ldr	r2, [r4, #12]
 504 0028 9DF80A10 		ldrb	r1, [sp, #10]	@ zero_extendqisi2
 505 002c 9DF80B30 		ldrb	r3, [sp, #11]	@ zero_extendqisi2
 506 0030 43EA0123 		orr	r3, r3, r1, lsl #8
 507 0034 5380     		strh	r3, [r2, #2]	@ movhi
 125:Gyro.c        ****     gyrodata_->z = rx_buffer[4] << 8 | rx_buffer[5];
 508              		.loc 1 125 0
 509 0036 E268     		ldr	r2, [r4, #12]
 510 0038 9DF80C10 		ldrb	r1, [sp, #12]	@ zero_extendqisi2
 511 003c 9DF80D30 		ldrb	r3, [sp, #13]	@ zero_extendqisi2
 512 0040 43EA0123 		orr	r3, r3, r1, lsl #8
 513 0044 9380     		strh	r3, [r2, #4]	@ movhi
 126:Gyro.c        ****     
 127:Gyro.c        ****     /*Convert into radians per second*/
 128:Gyro.c        ****     gyrodata_->x_rad = gyrodata_->x / 939.650784f;
 514              		.loc 1 128 0
 515 0046 E568     		ldr	r5, [r4, #12]
 516 0048 B5F90000 		ldrsh	r0, [r5]
 517 004c FFF7FEFF 		bl	__aeabi_i2f
 518              	.LVL53:
 519 0050 0C49     		ldr	r1, .L26
 520 0052 FFF7FEFF 		bl	__aeabi_fdiv
 521              	.LVL54:
 522 0056 A860     		str	r0, [r5, #8]	@ float
 129:Gyro.c        ****     gyrodata_->y_rad = gyrodata_->y / 939.650784f;
 523              		.loc 1 129 0
 524 0058 E568     		ldr	r5, [r4, #12]
 525 005a B5F90200 		ldrsh	r0, [r5, #2]
 526 005e FFF7FEFF 		bl	__aeabi_i2f
 527              	.LVL55:
 528 0062 0849     		ldr	r1, .L26
 529 0064 FFF7FEFF 		bl	__aeabi_fdiv
 530              	.LVL56:
 531 0068 E860     		str	r0, [r5, #12]	@ float
 130:Gyro.c        ****     gyrodata_->z_rad = gyrodata_->z / 939.650784f;
 532              		.loc 1 130 0
 533 006a E568     		ldr	r5, [r4, #12]
 534 006c B5F90400 		ldrsh	r0, [r5, #4]
 535 0070 FFF7FEFF 		bl	__aeabi_i2f
 536              	.LVL57:
 537 0074 0349     		ldr	r1, .L26
 538 0076 FFF7FEFF 		bl	__aeabi_fdiv
 539              	.LVL58:
 540 007a 2861     		str	r0, [r5, #16]	@ float
 131:Gyro.c        **** 	
 132:Gyro.c        **** 	return gyrodata_;
ARM GAS  C:\Users\SYFO\AppData\Local\Temp\ccpLGKtH.s 			page 14


 133:Gyro.c        **** }
 541              		.loc 1 133 0
 542 007c E068     		ldr	r0, [r4, #12]
 543 007e 05B0     		add	sp, sp, #20
 544              		.cfi_def_cfa_offset 12
 545              		@ sp needed
 546 0080 30BD     		pop	{r4, r5, pc}
 547              	.LVL59:
 548              	.L27:
 549 0082 00BF     		.align	2
 550              	.L26:
 551 0084 A6E96A44 		.word	1147857318
 552              		.cfi_endproc
 553              	.LFE88:
 554              		.size	_ZN4Gyro11getGyroDataEv, .-_ZN4Gyro11getGyroDataEv
 555              		.section	.text._ZN4Gyro13getSensorDataEv,"ax",%progbits
 556              		.align	2
 557              		.global	_ZN4Gyro13getSensorDataEv
 558              		.thumb
 559              		.thumb_func
 560              		.type	_ZN4Gyro13getSensorDataEv, %function
 561              	_ZN4Gyro13getSensorDataEv:
 562              	.LFB87:
 104:Gyro.c        **** 	/*Get new values from sensor!*/
 563              		.loc 1 104 0
 564              		.cfi_startproc
 565              		@ args = 0, pretend = 0, frame = 0
 566              		@ frame_needed = 0, uses_anonymous_args = 0
 567              	.LVL60:
 568 0000 10B5     		push	{r4, lr}
 569              		.cfi_def_cfa_offset 8
 570              		.cfi_offset 4, -8
 571              		.cfi_offset 14, -4
 572 0002 0446     		mov	r4, r0
 106:Gyro.c        **** 	getTemp();
 573              		.loc 1 106 0
 574 0004 FFF7FEFF 		bl	_ZN4Gyro10getAccDataEv
 575              	.LVL61:
 107:Gyro.c        **** 	getGyroData();
 576              		.loc 1 107 0
 577 0008 2046     		mov	r0, r4
 578 000a FFF7FEFF 		bl	_ZN4Gyro7getTempEv
 579              	.LVL62:
 108:Gyro.c        **** 	
 580              		.loc 1 108 0
 581 000e 2046     		mov	r0, r4
 582 0010 FFF7FEFF 		bl	_ZN4Gyro11getGyroDataEv
 583              	.LVL63:
 112:Gyro.c        **** 
 584              		.loc 1 112 0
 585 0014 2069     		ldr	r0, [r4, #16]
 586 0016 10BD     		pop	{r4, pc}
 587              		.cfi_endproc
 588              	.LFE87:
 589              		.size	_ZN4Gyro13getSensorDataEv, .-_ZN4Gyro13getSensorDataEv
 590              		.text
 591              	.Letext0:
ARM GAS  C:\Users\SYFO\AppData\Local\Temp\ccpLGKtH.s 			page 15


 592              		.file 3 "c:\\program files (x86)\\cypress\\psoc creator\\4.2\\psoc creator\\import\\gnu\\arm\\5.4.
 593              		.file 4 "c:\\program files (x86)\\cypress\\psoc creator\\4.2\\psoc creator\\import\\gnu\\arm\\5.4.
 594              		.file 5 "c:\\program files (x86)\\cypress\\psoc creator\\4.2\\psoc creator\\import\\gnu\\arm\\5.4.
 595              		.file 6 "i2c.h"
 596              		.file 7 "Gyro.h"
 597              		.file 8 "c:\\program files (x86)\\cypress\\psoc creator\\4.2\\psoc creator\\import\\gnu\\arm\\5.4.
 598              		.file 9 "Generated_Source\\PSoC5/core_cm3.h"