ARM GAS  C:\Users\hejmi\AppData\Local\Temp\ccXhHiit.s 			page 1


   1              		.syntax unified
   2              		.cpu cortex-m3
   3              		.fpu softvfp
   4              		.eabi_attribute 20, 1
   5              		.eabi_attribute 21, 1
   6              		.eabi_attribute 23, 3
   7              		.eabi_attribute 24, 1
   8              		.eabi_attribute 25, 1
   9              		.eabi_attribute 26, 1
  10              		.eabi_attribute 30, 1
  11              		.eabi_attribute 34, 1
  12              		.eabi_attribute 18, 4
  13              		.thumb
  14              		.syntax unified
  15              		.file	"main.c"
  16              		.text
  17              	.Ltext0:
  18              		.cfi_sections	.debug_frame
  19              		.section	.text.I2CWriteBytes,"ax",%progbits
  20              		.align	2
  21              		.global	I2CWriteBytes
  22              		.thumb
  23              		.thumb_func
  24              		.type	I2CWriteBytes, %function
  25              	I2CWriteBytes:
  26              	.LFB65:
  27              		.file 1 "main.c"
   1:main.c        **** /* ========================================
   2:main.c        ****  *
   3:main.c        ****  * Copyright Nicklas Grunert, 2019
   4:main.c        ****  * All Rights Reserved
   5:main.c        ****  * UNPUBLISHED, LICENSED SOFTWARE.
   6:main.c        ****  *
   7:main.c        ****  * CONFIDENTIAL AND PROPRIETARY INFORMATION
   8:main.c        ****  * WHICH IS THE PROPERTY OF Nicklas Grunert.
   9:main.c        ****  *
  10:main.c        ****  * ========================================
  11:main.c        **** */
  12:main.c        **** #include "project.h"
  13:main.c        **** #include "stdio.h"
  14:main.c        **** 
  15:main.c        **** /*ADDRESSES FOR I2C-COMMUNICATION WITH MPU6050*/
  16:main.c        **** #define MPU6050_ADD     (0x68)      // Device / Slave Address
  17:main.c        **** #define PWR_MGMT_1      (0x6B)      // Reset with 0x00 to wakeup
  18:main.c        **** #define SMPRT_DIV       (0x19)      // Register for holding sample rate 109
  19:main.c        **** #define GYRO_CONFIG     (0x1b)      // Register for self-test and scale 0x18 for fullscale
  20:main.c        **** #define ACCEL_CONFIG    (0x1c)      // --||-- 0x08 fullscale +- 4g
  21:main.c        **** #define USER_CTRL       (0x6a)      // 0x00 to disable master mode -- 0x20 to enable
  22:main.c        **** #define INT_PIN_CFG     (0x37)      // 0x02 I2C bypass enable
  23:main.c        **** #define START_GYRO_DATA (0x43)      // First address in gyro registers
  24:main.c        **** #define END_GYRO_DATA   (0x48)      // Last address in gyro registers
  25:main.c        **** #define CONFIG          (0x1A)      // For setting DLPF - fast or slow
  26:main.c        **** 
  27:main.c        **** /*ADDITIONAL MACROS*/
  28:main.c        **** #define WAIT_DELAY      (500)       // Delay in ms     
  29:main.c        **** #define CLEAR_SCREEN    "\x1b[2J"   // Clears terminal when printed
  30:main.c        **** 
ARM GAS  C:\Users\hejmi\AppData\Local\Temp\ccXhHiit.s 			page 2


  31:main.c        **** /*Structure for gyrosensor data*/
  32:main.c        **** typedef struct gyro_data {
  33:main.c        ****     int16_t x;
  34:main.c        ****     int16_t y;
  35:main.c        ****     int16_t z;
  36:main.c        ****     float x_rad;
  37:main.c        ****     float y_rad;
  38:main.c        ****     float z_rad;
  39:main.c        **** } gyro_data;
  40:main.c        **** 
  41:main.c        **** /*TODO: PUT IN HEADER!!*/
  42:main.c        **** void readGyroData(gyro_data*);
  43:main.c        **** void I2CReadBytes(uint8_t devAddr, uint8_t regAddr, uint8_t length, uint8_t *value);
  44:main.c        **** void I2CWriteBytes(uint8_t devAddr, uint8_t regAddr, uint8_t length, uint8_t *value);
  45:main.c        **** void I2CWriteByte(uint8_t devAddr, uint8_t regAddr, uint8_t value);
  46:main.c        **** void readGyroData(gyro_data* gp);
  47:main.c        **** 
  48:main.c        **** int main(void)
  49:main.c        **** {
  50:main.c        ****     CyGlobalIntEnable; /* Enable global interrupts. */
  51:main.c        ****     UART_1_Start();
  52:main.c        ****     I2C_1_Start();
  53:main.c        ****     char buf[255];
  54:main.c        ****     UART_1_PutString("Done intializing UART and I2C!\r\n");
  55:main.c        ****     
  56:main.c        ****     //Initializing MPU6050 -- Might need some tweaking
  57:main.c        ****     UART_1_PutString("Intializing MPU6050..\r\n");
  58:main.c        ****     I2CWriteByte(MPU6050_ADD, PWR_MGMT_1, 0x00);
  59:main.c        ****     I2CWriteByte(MPU6050_ADD,SMPRT_DIV,109);
  60:main.c        ****     I2CWriteByte(MPU6050_ADD,GYRO_CONFIG,0x18); // FULLSCALE
  61:main.c        ****     I2CWriteByte(MPU6050_ADD,USER_CTRL,0x20);
  62:main.c        ****     I2CWriteByte(MPU6050_ADD,INT_PIN_CFG,0x37);
  63:main.c        ****     I2CWriteByte(MPU6050_ADD,CONFIG,6);         //6 very slow
  64:main.c        ****     
  65:main.c        ****     //struct for gyro-data
  66:main.c        ****     gyro_data gdata;
  67:main.c        ****     
  68:main.c        ****     for(;;)
  69:main.c        ****     {
  70:main.c        ****         /*Read data from gyrosensor with I2C*/
  71:main.c        ****         readGyroData(&gdata);
  72:main.c        ****         
  73:main.c        ****         /*Print out data*/
  74:main.c        ****         UART_1_PutString(CLEAR_SCREEN);
  75:main.c        ****         sprintf(buf,"------ GYRO-DATA ------\r\nX: %d\r\nY: %d\r\nZ: %d\r\n",
  76:main.c        ****             gdata.x,
  77:main.c        ****             gdata.y,
  78:main.c        ****             gdata.z
  79:main.c        ****         );
  80:main.c        ****         UART_1_PutString(buf);
  81:main.c        ****         
  82:main.c        ****         /*Print out float data*/
  83:main.c        ****         sprintf(buf,"------ GYRO-DATA (Rad/s) ------\r\nX: %f\r\nY: %f\r\nZ: %f\r\n",
  84:main.c        ****             gdata.x_rad,
  85:main.c        ****             gdata.y_rad,
  86:main.c        ****             gdata.z_rad
  87:main.c        ****         );
ARM GAS  C:\Users\hejmi\AppData\Local\Temp\ccXhHiit.s 			page 3


  88:main.c        ****         UART_1_PutString(buf);
  89:main.c        ****         
  90:main.c        ****         /*Delay so it is possible to read the data!*/
  91:main.c        ****         CyDelay(WAIT_DELAY);
  92:main.c        ****     }
  93:main.c        ****     
  94:main.c        **** }
  95:main.c        **** 
  96:main.c        **** void I2CWriteBytes(uint8_t device_add, uint8_t reg_add, uint8_t nobytes, uint8_t *data) {
  28              		.loc 1 96 0
  29              		.cfi_startproc
  30              		@ args = 0, pretend = 0, frame = 0
  31              		@ frame_needed = 0, uses_anonymous_args = 0
  32              	.LVL0:
  33 0000 F8B5     		push	{r3, r4, r5, r6, r7, lr}
  34              		.cfi_def_cfa_offset 24
  35              		.cfi_offset 3, -24
  36              		.cfi_offset 4, -20
  37              		.cfi_offset 5, -16
  38              		.cfi_offset 6, -12
  39              		.cfi_offset 7, -8
  40              		.cfi_offset 14, -4
  41 0002 0C46     		mov	r4, r1
  42 0004 1746     		mov	r7, r2
  43 0006 1D46     		mov	r5, r3
  44              	.LVL1:
  97:main.c        ****     
  98:main.c        ****     uint8_t i=0;    //Index for loop
  99:main.c        ****     
 100:main.c        ****     /*Send start condition*/
 101:main.c        ****     I2C_1_MasterSendStart(device_add, I2C_1_WRITE_XFER_MODE);
  45              		.loc 1 101 0
  46 0008 0021     		movs	r1, #0
  47              	.LVL2:
  48 000a FFF7FEFF 		bl	I2C_1_MasterSendStart
  49              	.LVL3:
 102:main.c        ****     
 103:main.c        ****     /*Begin writing to register address*/
 104:main.c        ****     I2C_1_MasterWriteByte(reg_add);
  50              		.loc 1 104 0
  51 000e 2046     		mov	r0, r4
  52 0010 FFF7FEFF 		bl	I2C_1_MasterWriteByte
  53              	.LVL4:
  98:main.c        ****     
  54              		.loc 1 98 0
  55 0014 0022     		movs	r2, #0
 105:main.c        ****     
 106:main.c        ****     while (i++ < nobytes) 
  56              		.loc 1 106 0
  57 0016 05E0     		b	.L2
  58              	.LVL5:
  59              	.L3:
 107:main.c        ****     {
 108:main.c        ****         /*Keep writing bytes untill nobytes is reached*/
 109:main.c        ****         I2C_1_MasterWriteByte(*data++);
  60              		.loc 1 109 0
  61 0018 6E1C     		adds	r6, r5, #1
ARM GAS  C:\Users\hejmi\AppData\Local\Temp\ccXhHiit.s 			page 4


  62              	.LVL6:
  63 001a 2878     		ldrb	r0, [r5]	@ zero_extendqisi2
  64 001c FFF7FEFF 		bl	I2C_1_MasterWriteByte
  65              	.LVL7:
 106:main.c        ****     {
  66              		.loc 1 106 0
  67 0020 2246     		mov	r2, r4
  68              		.loc 1 109 0
  69 0022 3546     		mov	r5, r6
  70              	.LVL8:
  71              	.L2:
 106:main.c        ****     {
  72              		.loc 1 106 0
  73 0024 531C     		adds	r3, r2, #1
  74 0026 DCB2     		uxtb	r4, r3
  75              	.LVL9:
  76 0028 BA42     		cmp	r2, r7
  77 002a F5D3     		bcc	.L3
 110:main.c        ****     }
 111:main.c        ****     
 112:main.c        ****     /*Send stop condition*/
 113:main.c        ****     I2C_1_MasterSendStop();
  78              		.loc 1 113 0
  79 002c FFF7FEFF 		bl	I2C_1_MasterSendStop
  80              	.LVL10:
  81 0030 F8BD     		pop	{r3, r4, r5, r6, r7, pc}
  82              		.cfi_endproc
  83              	.LFE65:
  84              		.size	I2CWriteBytes, .-I2CWriteBytes
  85 0032 00BF     		.section	.text.I2CWriteByte,"ax",%progbits
  86              		.align	2
  87              		.global	I2CWriteByte
  88              		.thumb
  89              		.thumb_func
  90              		.type	I2CWriteByte, %function
  91              	I2CWriteByte:
  92              	.LFB66:
 114:main.c        **** }
 115:main.c        **** 
 116:main.c        **** void I2CWriteByte(uint8_t device_add, uint8_t reg_add, uint8_t data) {
  93              		.loc 1 116 0
  94              		.cfi_startproc
  95              		@ args = 0, pretend = 0, frame = 8
  96              		@ frame_needed = 0, uses_anonymous_args = 0
  97              	.LVL11:
  98 0000 00B5     		push	{lr}
  99              		.cfi_def_cfa_offset 4
 100              		.cfi_offset 14, -4
 101 0002 83B0     		sub	sp, sp, #12
 102              		.cfi_def_cfa_offset 16
 103 0004 02AB     		add	r3, sp, #8
 104 0006 03F8012D 		strb	r2, [r3, #-1]!
 117:main.c        ****     /*Just call I2CWriteBytes function*/
 118:main.c        **** 	I2CWriteBytes(device_add, reg_add, 1, &data);
 105              		.loc 1 118 0
 106 000a 0122     		movs	r2, #1
 107              	.LVL12:
ARM GAS  C:\Users\hejmi\AppData\Local\Temp\ccXhHiit.s 			page 5


 108 000c FFF7FEFF 		bl	I2CWriteBytes
 109              	.LVL13:
 119:main.c        **** }
 110              		.loc 1 119 0
 111 0010 03B0     		add	sp, sp, #12
 112              		.cfi_def_cfa_offset 4
 113              		@ sp needed
 114 0012 5DF804FB 		ldr	pc, [sp], #4
 115              		.cfi_endproc
 116              	.LFE66:
 117              		.size	I2CWriteByte, .-I2CWriteByte
 118 0016 00BF     		.section	.text.I2CReadBytes,"ax",%progbits
 119              		.align	2
 120              		.global	I2CReadBytes
 121              		.thumb
 122              		.thumb_func
 123              		.type	I2CReadBytes, %function
 124              	I2CReadBytes:
 125              	.LFB67:
 120:main.c        **** 
 121:main.c        **** void I2CReadBytes(uint8_t device_add, uint8_t reg_add, uint8_t nobytes, uint8_t *data)
 122:main.c        **** {
 126              		.loc 1 122 0
 127              		.cfi_startproc
 128              		@ args = 0, pretend = 0, frame = 0
 129              		@ frame_needed = 0, uses_anonymous_args = 0
 130              	.LVL14:
 131 0000 F8B5     		push	{r3, r4, r5, r6, r7, lr}
 132              		.cfi_def_cfa_offset 24
 133              		.cfi_offset 3, -24
 134              		.cfi_offset 4, -20
 135              		.cfi_offset 5, -16
 136              		.cfi_offset 6, -12
 137              		.cfi_offset 7, -8
 138              		.cfi_offset 14, -4
 139 0002 0446     		mov	r4, r0
 140 0004 0E46     		mov	r6, r1
 141 0006 1746     		mov	r7, r2
 142 0008 1D46     		mov	r5, r3
 143              	.LVL15:
 123:main.c        ****     uint8_t i=0;    //Index for loop
 124:main.c        ****     
 125:main.c        ****     /*Send start condition*/
 126:main.c        ****     I2C_1_MasterSendStart(device_add, I2C_1_WRITE_XFER_MODE);
 144              		.loc 1 126 0
 145 000a 0021     		movs	r1, #0
 146              	.LVL16:
 147 000c FFF7FEFF 		bl	I2C_1_MasterSendStart
 148              	.LVL17:
 127:main.c        ****     
 128:main.c        ****     /*Specify register address to read from*/
 129:main.c        ****     I2C_1_MasterWriteByte(reg_add);
 149              		.loc 1 129 0
 150 0010 3046     		mov	r0, r6
 151 0012 FFF7FEFF 		bl	I2C_1_MasterWriteByte
 152              	.LVL18:
 130:main.c        ****     
ARM GAS  C:\Users\hejmi\AppData\Local\Temp\ccXhHiit.s 			page 6


 131:main.c        ****     /*Go into read-mode*/
 132:main.c        ****     I2C_1_MasterSendRestart(device_add, I2C_1_READ_XFER_MODE);
 153              		.loc 1 132 0
 154 0016 0121     		movs	r1, #1
 155 0018 2046     		mov	r0, r4
 156 001a FFF7FEFF 		bl	I2C_1_MasterSendRestart
 157              	.LVL19:
 123:main.c        ****     
 158              		.loc 1 123 0
 159 001e 0022     		movs	r2, #0
 133:main.c        ****     
 134:main.c        ****     /*Start reading nobytes bytes*/
 135:main.c        ****     while (i++ < (nobytes-1)) {
 160              		.loc 1 135 0
 161 0020 06E0     		b	.L8
 162              	.LVL20:
 163              	.L9:
 136:main.c        ****         *data++ = I2C_1_MasterReadByte(I2C_1_ACK_DATA); // ACK to signal keep reading
 164              		.loc 1 136 0
 165 0022 6E1C     		adds	r6, r5, #1
 166              	.LVL21:
 167 0024 0120     		movs	r0, #1
 168 0026 FFF7FEFF 		bl	I2C_1_MasterReadByte
 169              	.LVL22:
 170 002a 2870     		strb	r0, [r5]
 135:main.c        ****         *data++ = I2C_1_MasterReadByte(I2C_1_ACK_DATA); // ACK to signal keep reading
 171              		.loc 1 135 0
 172 002c 2246     		mov	r2, r4
 173              		.loc 1 136 0
 174 002e 3546     		mov	r5, r6
 175              	.LVL23:
 176              	.L8:
 135:main.c        ****         *data++ = I2C_1_MasterReadByte(I2C_1_ACK_DATA); // ACK to signal keep reading
 177              		.loc 1 135 0
 178 0030 531C     		adds	r3, r2, #1
 179 0032 DCB2     		uxtb	r4, r3
 180              	.LVL24:
 181 0034 7B1E     		subs	r3, r7, #1
 182 0036 9A42     		cmp	r2, r3
 183 0038 F3DB     		blt	.L9
 137:main.c        ****     }
 138:main.c        ****     *data = I2C_1_MasterReadByte(I2C_1_NAK_DATA); // NAK to signal stop reading
 184              		.loc 1 138 0
 185 003a 0020     		movs	r0, #0
 186 003c FFF7FEFF 		bl	I2C_1_MasterReadByte
 187              	.LVL25:
 188 0040 2870     		strb	r0, [r5]
 139:main.c        ****     
 140:main.c        ****     /*Send stop condition*/
 141:main.c        ****     I2C_1_MasterSendStop();    
 189              		.loc 1 141 0
 190 0042 FFF7FEFF 		bl	I2C_1_MasterSendStop
 191              	.LVL26:
 192 0046 F8BD     		pop	{r3, r4, r5, r6, r7, pc}
 193              		.cfi_endproc
 194              	.LFE67:
 195              		.size	I2CReadBytes, .-I2CReadBytes
ARM GAS  C:\Users\hejmi\AppData\Local\Temp\ccXhHiit.s 			page 7


 196              		.global	__aeabi_i2f
 197              		.global	__aeabi_fdiv
 198              		.section	.text.readGyroData,"ax",%progbits
 199              		.align	2
 200              		.global	readGyroData
 201              		.thumb
 202              		.thumb_func
 203              		.type	readGyroData, %function
 204              	readGyroData:
 205              	.LFB68:
 142:main.c        **** }
 143:main.c        **** 
 144:main.c        **** void readGyroData(gyro_data* gp)
 145:main.c        **** {
 206              		.loc 1 145 0
 207              		.cfi_startproc
 208              		@ args = 0, pretend = 0, frame = 8
 209              		@ frame_needed = 0, uses_anonymous_args = 0
 210              	.LVL27:
 211 0000 70B5     		push	{r4, r5, r6, lr}
 212              		.cfi_def_cfa_offset 16
 213              		.cfi_offset 4, -16
 214              		.cfi_offset 5, -12
 215              		.cfi_offset 6, -8
 216              		.cfi_offset 14, -4
 217 0002 82B0     		sub	sp, sp, #8
 218              		.cfi_def_cfa_offset 24
 219 0004 0446     		mov	r4, r0
 146:main.c        ****     //Buffer for sensor data
 147:main.c        ****     uint8_t rx_buffer[6];
 148:main.c        **** 
 149:main.c        ****     /*Read data into buffer*/
 150:main.c        ****     I2CReadBytes(MPU6050_ADD,START_GYRO_DATA, 6, rx_buffer);
 220              		.loc 1 150 0
 221 0006 6B46     		mov	r3, sp
 222 0008 0622     		movs	r2, #6
 223 000a 4321     		movs	r1, #67
 224 000c 6820     		movs	r0, #104
 225              	.LVL28:
 226 000e FFF7FEFF 		bl	I2CReadBytes
 227              	.LVL29:
 151:main.c        ****     
 152:main.c        ****     //Extract raw data
 153:main.c        ****     gp->x = rx_buffer[0] << 8 | rx_buffer[1];
 228              		.loc 1 153 0
 229 0012 9DF80000 		ldrb	r0, [sp]	@ zero_extendqisi2
 230 0016 9DF80130 		ldrb	r3, [sp, #1]	@ zero_extendqisi2
 231 001a 43EA0020 		orr	r0, r3, r0, lsl #8
 232 001e 00B2     		sxth	r0, r0
 233 0020 2080     		strh	r0, [r4]	@ movhi
 154:main.c        ****     gp->y = rx_buffer[2] << 8 | rx_buffer[3];
 234              		.loc 1 154 0
 235 0022 9DF80260 		ldrb	r6, [sp, #2]	@ zero_extendqisi2
 236 0026 9DF80330 		ldrb	r3, [sp, #3]	@ zero_extendqisi2
 237 002a 43EA0626 		orr	r6, r3, r6, lsl #8
 238 002e 36B2     		sxth	r6, r6
 239 0030 6680     		strh	r6, [r4, #2]	@ movhi
ARM GAS  C:\Users\hejmi\AppData\Local\Temp\ccXhHiit.s 			page 8


 155:main.c        ****     gp->z = rx_buffer[4] << 8 | rx_buffer[5];
 240              		.loc 1 155 0
 241 0032 9DF80450 		ldrb	r5, [sp, #4]	@ zero_extendqisi2
 242 0036 9DF80530 		ldrb	r3, [sp, #5]	@ zero_extendqisi2
 243 003a 43EA0525 		orr	r5, r3, r5, lsl #8
 244 003e 2DB2     		sxth	r5, r5
 245 0040 A580     		strh	r5, [r4, #4]	@ movhi
 156:main.c        ****     
 157:main.c        ****     /*Convert into radians per second*/
 158:main.c        ****     gp->x_rad = gp->x / 939.650784f;
 246              		.loc 1 158 0
 247 0042 FFF7FEFF 		bl	__aeabi_i2f
 248              	.LVL30:
 249 0046 0A49     		ldr	r1, .L13
 250 0048 FFF7FEFF 		bl	__aeabi_fdiv
 251              	.LVL31:
 252 004c A060     		str	r0, [r4, #8]	@ float
 159:main.c        ****     gp->y_rad = gp->y / 939.650784f;
 253              		.loc 1 159 0
 254 004e 3046     		mov	r0, r6
 255 0050 FFF7FEFF 		bl	__aeabi_i2f
 256              	.LVL32:
 257 0054 0649     		ldr	r1, .L13
 258 0056 FFF7FEFF 		bl	__aeabi_fdiv
 259              	.LVL33:
 260 005a E060     		str	r0, [r4, #12]	@ float
 160:main.c        ****     gp->z_rad = gp->z / 939.650784f;
 261              		.loc 1 160 0
 262 005c 2846     		mov	r0, r5
 263 005e FFF7FEFF 		bl	__aeabi_i2f
 264              	.LVL34:
 265 0062 0349     		ldr	r1, .L13
 266 0064 FFF7FEFF 		bl	__aeabi_fdiv
 267              	.LVL35:
 268 0068 2061     		str	r0, [r4, #16]	@ float
 161:main.c        **** 
 162:main.c        **** }
 269              		.loc 1 162 0
 270 006a 02B0     		add	sp, sp, #8
 271              		.cfi_def_cfa_offset 16
 272              		@ sp needed
 273 006c 70BD     		pop	{r4, r5, r6, pc}
 274              	.LVL36:
 275              	.L14:
 276 006e 00BF     		.align	2
 277              	.L13:
 278 0070 A6E96A44 		.word	1147857318
 279              		.cfi_endproc
 280              	.LFE68:
 281              		.size	readGyroData, .-readGyroData
 282              		.global	__aeabi_f2d
 283              		.section	.text.main,"ax",%progbits
 284              		.align	2
 285              		.global	main
 286              		.thumb
 287              		.thumb_func
 288              		.type	main, %function
ARM GAS  C:\Users\hejmi\AppData\Local\Temp\ccXhHiit.s 			page 9


 289              	main:
 290              	.LFB64:
  49:main.c        ****     CyGlobalIntEnable; /* Enable global interrupts. */
 291              		.loc 1 49 0
 292              		.cfi_startproc
 293              		@ args = 0, pretend = 0, frame = 280
 294              		@ frame_needed = 0, uses_anonymous_args = 0
 295 0000 F0B5     		push	{r4, r5, r6, r7, lr}
 296              		.cfi_def_cfa_offset 20
 297              		.cfi_offset 4, -20
 298              		.cfi_offset 5, -16
 299              		.cfi_offset 6, -12
 300              		.cfi_offset 7, -8
 301              		.cfi_offset 14, -4
 302 0002 CBB0     		sub	sp, sp, #300
 303              		.cfi_def_cfa_offset 320
  50:main.c        ****     UART_1_Start();
 304              		.loc 1 50 0
 305              		.syntax unified
 306              	@ 50 "main.c" 1
 307 0004 62B6     		CPSIE   i
 308              	@ 0 "" 2
  51:main.c        ****     I2C_1_Start();
 309              		.loc 1 51 0
 310              		.thumb
 311              		.syntax unified
 312 0006 FFF7FEFF 		bl	UART_1_Start
 313              	.LVL37:
  52:main.c        ****     char buf[255];
 314              		.loc 1 52 0
 315 000a FFF7FEFF 		bl	I2C_1_Start
 316              	.LVL38:
  54:main.c        ****     
 317              		.loc 1 54 0
 318 000e 2B48     		ldr	r0, .L18
 319 0010 FFF7FEFF 		bl	UART_1_PutString
 320              	.LVL39:
  57:main.c        ****     I2CWriteByte(MPU6050_ADD, PWR_MGMT_1, 0x00);
 321              		.loc 1 57 0
 322 0014 2A48     		ldr	r0, .L18+4
 323 0016 FFF7FEFF 		bl	UART_1_PutString
 324              	.LVL40:
  58:main.c        ****     I2CWriteByte(MPU6050_ADD,SMPRT_DIV,109);
 325              		.loc 1 58 0
 326 001a 0022     		movs	r2, #0
 327 001c 6B21     		movs	r1, #107
 328 001e 6820     		movs	r0, #104
 329 0020 FFF7FEFF 		bl	I2CWriteByte
 330              	.LVL41:
  59:main.c        ****     I2CWriteByte(MPU6050_ADD,GYRO_CONFIG,0x18); // FULLSCALE
 331              		.loc 1 59 0
 332 0024 6D22     		movs	r2, #109
 333 0026 1921     		movs	r1, #25
 334 0028 6820     		movs	r0, #104
 335 002a FFF7FEFF 		bl	I2CWriteByte
 336              	.LVL42:
  60:main.c        ****     I2CWriteByte(MPU6050_ADD,USER_CTRL,0x20);
ARM GAS  C:\Users\hejmi\AppData\Local\Temp\ccXhHiit.s 			page 10


 337              		.loc 1 60 0
 338 002e 1822     		movs	r2, #24
 339 0030 1B21     		movs	r1, #27
 340 0032 6820     		movs	r0, #104
 341 0034 FFF7FEFF 		bl	I2CWriteByte
 342              	.LVL43:
  61:main.c        ****     I2CWriteByte(MPU6050_ADD,INT_PIN_CFG,0x37);
 343              		.loc 1 61 0
 344 0038 2022     		movs	r2, #32
 345 003a 6A21     		movs	r1, #106
 346 003c 6820     		movs	r0, #104
 347 003e FFF7FEFF 		bl	I2CWriteByte
 348              	.LVL44:
  62:main.c        ****     I2CWriteByte(MPU6050_ADD,CONFIG,6);         //6 very slow
 349              		.loc 1 62 0
 350 0042 3722     		movs	r2, #55
 351 0044 1146     		mov	r1, r2
 352 0046 6820     		movs	r0, #104
 353 0048 FFF7FEFF 		bl	I2CWriteByte
 354              	.LVL45:
  63:main.c        ****     
 355              		.loc 1 63 0
 356 004c 0622     		movs	r2, #6
 357 004e 1A21     		movs	r1, #26
 358 0050 6820     		movs	r0, #104
 359 0052 FFF7FEFF 		bl	I2CWriteByte
 360              	.LVL46:
 361              	.L16:
  71:main.c        ****         
 362              		.loc 1 71 0 discriminator 1
 363 0056 05A8     		add	r0, sp, #20
 364 0058 FFF7FEFF 		bl	readGyroData
 365              	.LVL47:
  74:main.c        ****         sprintf(buf,"------ GYRO-DATA ------\r\nX: %d\r\nY: %d\r\nZ: %d\r\n",
 366              		.loc 1 74 0 discriminator 1
 367 005c 1948     		ldr	r0, .L18+8
 368 005e FFF7FEFF 		bl	UART_1_PutString
 369              	.LVL48:
  76:main.c        ****             gdata.y,
 370              		.loc 1 76 0 discriminator 1
 371 0062 BDF91420 		ldrsh	r2, [sp, #20]
  77:main.c        ****             gdata.z
 372              		.loc 1 77 0 discriminator 1
 373 0066 BDF91630 		ldrsh	r3, [sp, #22]
  78:main.c        ****         );
 374              		.loc 1 78 0 discriminator 1
 375 006a BDF91810 		ldrsh	r1, [sp, #24]
  75:main.c        ****             gdata.x,
 376              		.loc 1 75 0 discriminator 1
 377 006e 0091     		str	r1, [sp]
 378 0070 1549     		ldr	r1, .L18+12
 379 0072 0AA8     		add	r0, sp, #40
 380 0074 FFF7FEFF 		bl	sprintf
 381              	.LVL49:
  80:main.c        ****         
 382              		.loc 1 80 0 discriminator 1
 383 0078 0AA8     		add	r0, sp, #40
ARM GAS  C:\Users\hejmi\AppData\Local\Temp\ccXhHiit.s 			page 11


 384 007a FFF7FEFF 		bl	UART_1_PutString
 385              	.LVL50:
  85:main.c        ****             gdata.z_rad
 386              		.loc 1 85 0 discriminator 1
 387 007e 089E     		ldr	r6, [sp, #32]	@ float
  86:main.c        ****         );
 388              		.loc 1 86 0 discriminator 1
 389 0080 099F     		ldr	r7, [sp, #36]	@ float
  83:main.c        ****             gdata.x_rad,
 390              		.loc 1 83 0 discriminator 1
 391 0082 0798     		ldr	r0, [sp, #28]	@ float
 392 0084 FFF7FEFF 		bl	__aeabi_f2d
 393              	.LVL51:
 394 0088 0446     		mov	r4, r0
 395 008a 0D46     		mov	r5, r1
 396 008c 3846     		mov	r0, r7
 397 008e FFF7FEFF 		bl	__aeabi_f2d
 398              	.LVL52:
 399 0092 CDE90201 		strd	r0, [sp, #8]
 400 0096 3046     		mov	r0, r6
 401 0098 FFF7FEFF 		bl	__aeabi_f2d
 402              	.LVL53:
 403 009c CDE90001 		strd	r0, [sp]
 404 00a0 2246     		mov	r2, r4
 405 00a2 2B46     		mov	r3, r5
 406 00a4 0949     		ldr	r1, .L18+16
 407 00a6 0AA8     		add	r0, sp, #40
 408 00a8 FFF7FEFF 		bl	sprintf
 409              	.LVL54:
  88:main.c        ****         
 410              		.loc 1 88 0 discriminator 1
 411 00ac 0AA8     		add	r0, sp, #40
 412 00ae FFF7FEFF 		bl	UART_1_PutString
 413              	.LVL55:
  91:main.c        ****     }
 414              		.loc 1 91 0 discriminator 1
 415 00b2 4FF4FA70 		mov	r0, #500
 416 00b6 FFF7FEFF 		bl	CyDelay
 417              	.LVL56:
 418 00ba CCE7     		b	.L16
 419              	.L19:
 420              		.align	2
 421              	.L18:
 422 00bc 00000000 		.word	.LC0
 423 00c0 24000000 		.word	.LC1
 424 00c4 3C000000 		.word	.LC2
 425 00c8 44000000 		.word	.LC3
 426 00cc 74000000 		.word	.LC4
 427              		.cfi_endproc
 428              	.LFE64:
 429              		.size	main, .-main
 430              		.section	.text.handleErrors,"ax",%progbits
 431              		.align	2
 432              		.global	handleErrors
 433              		.thumb
 434              		.thumb_func
 435              		.type	handleErrors, %function
ARM GAS  C:\Users\hejmi\AppData\Local\Temp\ccXhHiit.s 			page 12


 436              	handleErrors:
 437              	.LFB69:
 163:main.c        **** 
 164:main.c        **** void handleErrors(uint8 error)
 165:main.c        **** {
 438              		.loc 1 165 0
 439              		.cfi_startproc
 440              		@ args = 0, pretend = 0, frame = 0
 441              		@ frame_needed = 0, uses_anonymous_args = 0
 442              	.LVL57:
 443 0000 08B5     		push	{r3, lr}
 444              		.cfi_def_cfa_offset 8
 445              		.cfi_offset 3, -8
 446              		.cfi_offset 14, -4
 166:main.c        ****     switch(error){
 447              		.loc 1 166 0
 448 0002 0428     		cmp	r0, #4
 449 0004 17D8     		bhi	.L20
 450 0006 DFE800F0 		tbb	[pc, r0]
 451              	.L23:
 452 000a 03       		.byte	(.L22-.L23)/2
 453 000b 07       		.byte	(.L24-.L23)/2
 454 000c 0B       		.byte	(.L25-.L23)/2
 455 000d 0F       		.byte	(.L26-.L23)/2
 456 000e 13       		.byte	(.L27-.L23)/2
 457 000f 00       		.p2align 1
 458              	.L22:
 167:main.c        ****         case I2C_1_MSTR_NO_ERROR:
 168:main.c        ****             UART_1_PutString("MSTR NO ERROR\r\n");
 459              		.loc 1 168 0
 460 0010 0948     		ldr	r0, .L29
 461              	.LVL58:
 462 0012 FFF7FEFF 		bl	UART_1_PutString
 463              	.LVL59:
 169:main.c        ****             break;
 464              		.loc 1 169 0
 465 0016 08BD     		pop	{r3, pc}
 466              	.LVL60:
 467              	.L24:
 170:main.c        ****         case I2C_1_MSTR_BUS_BUSY:
 171:main.c        ****             UART_1_PutString("MSTR BUS BUSY\r\n");
 468              		.loc 1 171 0
 469 0018 0848     		ldr	r0, .L29+4
 470              	.LVL61:
 471 001a FFF7FEFF 		bl	UART_1_PutString
 472              	.LVL62:
 172:main.c        ****             break;
 473              		.loc 1 172 0
 474 001e 08BD     		pop	{r3, pc}
 475              	.LVL63:
 476              	.L25:
 173:main.c        ****         case I2C_1_MSTR_NOT_READY:
 174:main.c        ****             UART_1_PutString("MSTR NOT READY\r\n");
 477              		.loc 1 174 0
 478 0020 0748     		ldr	r0, .L29+8
 479              	.LVL64:
 480 0022 FFF7FEFF 		bl	UART_1_PutString
ARM GAS  C:\Users\hejmi\AppData\Local\Temp\ccXhHiit.s 			page 13


 481              	.LVL65:
 175:main.c        ****             break;
 482              		.loc 1 175 0
 483 0026 08BD     		pop	{r3, pc}
 484              	.LVL66:
 485              	.L26:
 176:main.c        ****         case I2C_1_MSTR_ERR_LB_NAK:
 177:main.c        ****             UART_1_PutString("MSTR ERR LB NAK\r\n");
 486              		.loc 1 177 0
 487 0028 0648     		ldr	r0, .L29+12
 488              	.LVL67:
 489 002a FFF7FEFF 		bl	UART_1_PutString
 490              	.LVL68:
 178:main.c        ****             break;
 491              		.loc 1 178 0
 492 002e 08BD     		pop	{r3, pc}
 493              	.LVL69:
 494              	.L27:
 179:main.c        ****         case I2C_1_MSTR_ERR_ARB_LOST:
 180:main.c        ****             UART_1_PutString("MSTR ERR ARB LOST\r\n");
 495              		.loc 1 180 0
 496 0030 0548     		ldr	r0, .L29+16
 497              	.LVL70:
 498 0032 FFF7FEFF 		bl	UART_1_PutString
 499              	.LVL71:
 500              	.L20:
 501 0036 08BD     		pop	{r3, pc}
 502              	.L30:
 503              		.align	2
 504              	.L29:
 505 0038 AC000000 		.word	.LC5
 506 003c BC000000 		.word	.LC6
 507 0040 CC000000 		.word	.LC7
 508 0044 E0000000 		.word	.LC8
 509 0048 F4000000 		.word	.LC9
 510              		.cfi_endproc
 511              	.LFE69:
 512              		.size	handleErrors, .-handleErrors
 513              		.section	.rodata.str1.4,"aMS",%progbits,1
 514              		.align	2
 515              	.LC0:
 516 0000 446F6E65 		.ascii	"Done intializing UART and I2C!\015\012\000"
 516      20696E74 
 516      69616C69 
 516      7A696E67 
 516      20554152 
 517 0021 000000   		.space	3
 518              	.LC1:
 519 0024 496E7469 		.ascii	"Intializing MPU6050..\015\012\000"
 519      616C697A 
 519      696E6720 
 519      4D505536 
 519      3035302E 
 520              	.LC2:
 521 003c 1B5B324A 		.ascii	"\033[2J\000"
 521      00
 522 0041 000000   		.space	3
ARM GAS  C:\Users\hejmi\AppData\Local\Temp\ccXhHiit.s 			page 14


 523              	.LC3:
 524 0044 2D2D2D2D 		.ascii	"------ GYRO-DATA ------\015\012X: %d\015\012Y: %d\015"
 524      2D2D2047 
 524      59524F2D 
 524      44415441 
 524      202D2D2D 
 525 006a 0A5A3A20 		.ascii	"\012Z: %d\015\012\000"
 525      25640D0A 
 525      00
 526 0073 00       		.space	1
 527              	.LC4:
 528 0074 2D2D2D2D 		.ascii	"------ GYRO-DATA (Rad/s) ------\015\012X: %f\015\012"
 528      2D2D2047 
 528      59524F2D 
 528      44415441 
 528      20285261 
 529 009c 593A2025 		.ascii	"Y: %f\015\012Z: %f\015\012\000"
 529      660D0A5A 
 529      3A202566 
 529      0D0A00
 530 00ab 00       		.space	1
 531              	.LC5:
 532 00ac 4D535452 		.ascii	"MSTR NO ERROR\015\012\000"
 532      204E4F20 
 532      4552524F 
 532      520D0A00 
 533              	.LC6:
 534 00bc 4D535452 		.ascii	"MSTR BUS BUSY\015\012\000"
 534      20425553 
 534      20425553 
 534      590D0A00 
 535              	.LC7:
 536 00cc 4D535452 		.ascii	"MSTR NOT READY\015\012\000"
 536      204E4F54 
 536      20524541 
 536      44590D0A 
 536      00
 537 00dd 000000   		.space	3
 538              	.LC8:
 539 00e0 4D535452 		.ascii	"MSTR ERR LB NAK\015\012\000"
 539      20455252 
 539      204C4220 
 539      4E414B0D 
 539      0A00
 540 00f2 0000     		.space	2
 541              	.LC9:
 542 00f4 4D535452 		.ascii	"MSTR ERR ARB LOST\015\012\000"
 542      20455252 
 542      20415242 
 542      204C4F53 
 542      540D0A00 
 543              		.text
 544              	.Letext0:
 545              		.file 2 "c:\\program files (x86)\\cypress\\psoc creator\\4.2\\psoc creator\\import\\gnu\\arm\\5.4.
 546              		.file 3 "c:\\program files (x86)\\cypress\\psoc creator\\4.2\\psoc creator\\import\\gnu\\arm\\5.4.
 547              		.file 4 "Generated_Source\\PSoC5/cytypes.h"
 548              		.file 5 "Generated_Source\\PSoC5/I2C_1.h"
ARM GAS  C:\Users\hejmi\AppData\Local\Temp\ccXhHiit.s 			page 15


 549              		.file 6 "Generated_Source\\PSoC5/UART_1.h"
 550              		.file 7 "c:\\program files (x86)\\cypress\\psoc creator\\4.2\\psoc creator\\import\\gnu\\arm\\5.4.
 551              		.file 8 "Generated_Source\\PSoC5/CyLib.h"
 552              		.file 9 "Generated_Source\\PSoC5/core_cm3.h"