ARM GAS  C:\Users\jespe\AppData\Local\Temp\ccpqel91.s 			page 1


   1              		.syntax unified
   2              		.cpu cortex-m3
   3              		.fpu softvfp
   4              		.eabi_attribute 20, 1
   5              		.eabi_attribute 21, 1
   6              		.eabi_attribute 23, 3
   7              		.eabi_attribute 24, 1
   8              		.eabi_attribute 25, 1
   9              		.eabi_attribute 26, 1
  10              		.eabi_attribute 30, 1
  11              		.eabi_attribute 34, 1
  12              		.eabi_attribute 18, 4
  13              		.thumb
  14              		.syntax unified
  15              		.file	"LED.c"
  16              		.text
  17              	.Ltext0:
  18              		.cfi_sections	.debug_frame
  19              		.section	.text._ZN3LEDC2Ev,"ax",%progbits
  20              		.align	2
  21              		.global	_ZN3LEDC2Ev
  22              		.thumb
  23              		.thumb_func
  24              		.type	_ZN3LEDC2Ev, %function
  25              	_ZN3LEDC2Ev:
  26              	.LFB64:
  27              		.file 1 "LED.c"
   1:LED.c         **** /* ========================================
   2:LED.c         ****  *
   3:LED.c         ****  * Copyright YOUR COMPANY, THE YEAR
   4:LED.c         ****  * All Rights Reserved
   5:LED.c         ****  * UNPUBLISHED, LICENSED SOFTWARE.
   6:LED.c         ****  *
   7:LED.c         ****  * CONFIDENTIAL AND PROPRIETARY INFORMATION
   8:LED.c         ****  * WHICH IS THE PROPERTY OF your company.
   9:LED.c         ****  *
  10:LED.c         ****  * ========================================
  11:LED.c         **** */
  12:LED.c         **** 
  13:LED.c         **** /* [] END OF FILE */
  14:LED.c         **** 
  15:LED.c         **** #include "LED.h"
  16:LED.c         **** 
  17:LED.c         **** LED::LED()
  28              		.loc 1 17 0
  29              		.cfi_startproc
  30              		@ args = 0, pretend = 0, frame = 0
  31              		@ frame_needed = 0, uses_anonymous_args = 0
  32              	.LVL0:
  33 0000 10B5     		push	{r4, lr}
  34              		.cfi_def_cfa_offset 8
  35              		.cfi_offset 4, -8
  36              		.cfi_offset 14, -4
  37 0002 0446     		mov	r4, r0
  38              	.LBB2:
  18:LED.c         **** {
  19:LED.c         ****     LED_PWM_Start();
ARM GAS  C:\Users\jespe\AppData\Local\Temp\ccpqel91.s 			page 2


  39              		.loc 1 19 0
  40 0004 FFF7FEFF 		bl	LED_PWM_Start
  41              	.LVL1:
  42              	.LBE2:
  20:LED.c         **** }
  43              		.loc 1 20 0
  44 0008 2046     		mov	r0, r4
  45 000a 10BD     		pop	{r4, pc}
  46              		.cfi_endproc
  47              	.LFE64:
  48              		.size	_ZN3LEDC2Ev, .-_ZN3LEDC2Ev
  49              		.global	_ZN3LEDC1Ev
  50              		.thumb_set _ZN3LEDC1Ev,_ZN3LEDC2Ev
  51              		.section	.text._ZN3LEDD2Ev,"ax",%progbits
  52              		.align	2
  53              		.global	_ZN3LEDD2Ev
  54              		.thumb
  55              		.thumb_func
  56              		.type	_ZN3LEDD2Ev, %function
  57              	_ZN3LEDD2Ev:
  58              	.LFB67:
  21:LED.c         **** 
  22:LED.c         **** LED::~LED()
  59              		.loc 1 22 0
  60              		.cfi_startproc
  61              		@ args = 0, pretend = 0, frame = 0
  62              		@ frame_needed = 0, uses_anonymous_args = 0
  63              		@ link register save eliminated.
  64              	.LVL2:
  23:LED.c         **** {
  24:LED.c         **** }
  65              		.loc 1 24 0
  66 0000 7047     		bx	lr
  67              		.cfi_endproc
  68              	.LFE67:
  69              		.size	_ZN3LEDD2Ev, .-_ZN3LEDD2Ev
  70              		.global	_ZN3LEDD1Ev
  71              		.thumb_set _ZN3LEDD1Ev,_ZN3LEDD2Ev
  72 0002 00BF     		.section	.text._ZN3LED9turnOnLedEc,"ax",%progbits
  73              		.align	2
  74              		.global	_ZN3LED9turnOnLedEc
  75              		.thumb
  76              		.thumb_func
  77              		.type	_ZN3LED9turnOnLedEc, %function
  78              	_ZN3LED9turnOnLedEc:
  79              	.LFB69:
  25:LED.c         **** 
  26:LED.c         **** void LED::turnOnLed(char Color)
  27:LED.c         **** {
  80              		.loc 1 27 0
  81              		.cfi_startproc
  82              		@ args = 0, pretend = 0, frame = 0
  83              		@ frame_needed = 0, uses_anonymous_args = 0
  84              	.LVL3:
  85 0000 08B5     		push	{r3, lr}
  86              		.cfi_def_cfa_offset 8
  87              		.cfi_offset 3, -8
ARM GAS  C:\Users\jespe\AppData\Local\Temp\ccpqel91.s 			page 3


  88              		.cfi_offset 14, -4
  28:LED.c         ****     if (Color == 'g' || Color == 'G')
  89              		.loc 1 28 0
  90 0002 6729     		cmp	r1, #103
  91 0004 01D0     		beq	.L5
  92              		.loc 1 28 0 is_stmt 0 discriminator 1
  93 0006 4729     		cmp	r1, #71
  94 0008 03D1     		bne	.L6
  95              	.L5:
  29:LED.c         ****     {
  30:LED.c         ****         LED_PWM_WriteCompare2(100);
  96              		.loc 1 30 0 is_stmt 1
  97 000a 6420     		movs	r0, #100
  98              	.LVL4:
  99 000c FFF7FEFF 		bl	LED_PWM_WriteCompare2
 100              	.LVL5:
 101 0010 08BD     		pop	{r3, pc}
 102              	.LVL6:
 103              	.L6:
  31:LED.c         ****     }
  32:LED.c         ****     else if(Color == 'r' || Color == 'R')
 104              		.loc 1 32 0
 105 0012 7229     		cmp	r1, #114
 106 0014 01D0     		beq	.L8
 107              		.loc 1 32 0 is_stmt 0 discriminator 1
 108 0016 5229     		cmp	r1, #82
 109 0018 02D1     		bne	.L4
 110              	.L8:
  33:LED.c         ****     {
  34:LED.c         ****         LED_PWM_WriteCompare1(100);
 111              		.loc 1 34 0 is_stmt 1
 112 001a 6420     		movs	r0, #100
 113              	.LVL7:
 114 001c FFF7FEFF 		bl	LED_PWM_WriteCompare1
 115              	.LVL8:
 116              	.L4:
 117 0020 08BD     		pop	{r3, pc}
 118              		.cfi_endproc
 119              	.LFE69:
 120              		.size	_ZN3LED9turnOnLedEc, .-_ZN3LED9turnOnLedEc
 121 0022 00BF     		.section	.text._ZN3LED10turnOffLedEc,"ax",%progbits
 122              		.align	2
 123              		.global	_ZN3LED10turnOffLedEc
 124              		.thumb
 125              		.thumb_func
 126              		.type	_ZN3LED10turnOffLedEc, %function
 127              	_ZN3LED10turnOffLedEc:
 128              	.LFB70:
  35:LED.c         ****     }
  36:LED.c         **** }
  37:LED.c         **** 
  38:LED.c         **** void LED::turnOffLed(char Color)
  39:LED.c         **** {
 129              		.loc 1 39 0
 130              		.cfi_startproc
 131              		@ args = 0, pretend = 0, frame = 0
 132              		@ frame_needed = 0, uses_anonymous_args = 0
ARM GAS  C:\Users\jespe\AppData\Local\Temp\ccpqel91.s 			page 4


 133              	.LVL9:
 134 0000 08B5     		push	{r3, lr}
 135              		.cfi_def_cfa_offset 8
 136              		.cfi_offset 3, -8
 137              		.cfi_offset 14, -4
  40:LED.c         ****     if (Color == 'g' || Color == 'G')
 138              		.loc 1 40 0
 139 0002 6729     		cmp	r1, #103
 140 0004 01D0     		beq	.L11
 141              		.loc 1 40 0 is_stmt 0 discriminator 1
 142 0006 4729     		cmp	r1, #71
 143 0008 03D1     		bne	.L12
 144              	.L11:
  41:LED.c         ****     {
  42:LED.c         ****         LED_PWM_WriteCompare2(0);
 145              		.loc 1 42 0 is_stmt 1
 146 000a 0020     		movs	r0, #0
 147              	.LVL10:
 148 000c FFF7FEFF 		bl	LED_PWM_WriteCompare2
 149              	.LVL11:
 150 0010 08BD     		pop	{r3, pc}
 151              	.LVL12:
 152              	.L12:
  43:LED.c         ****     }
  44:LED.c         ****     else if(Color == 'r' || Color == 'R')
 153              		.loc 1 44 0
 154 0012 7229     		cmp	r1, #114
 155 0014 01D0     		beq	.L14
 156              		.loc 1 44 0 is_stmt 0 discriminator 1
 157 0016 5229     		cmp	r1, #82
 158 0018 02D1     		bne	.L10
 159              	.L14:
  45:LED.c         ****     {
  46:LED.c         ****         LED_PWM_WriteCompare1(0);
 160              		.loc 1 46 0 is_stmt 1
 161 001a 0020     		movs	r0, #0
 162              	.LVL13:
 163 001c FFF7FEFF 		bl	LED_PWM_WriteCompare1
 164              	.LVL14:
 165              	.L10:
 166 0020 08BD     		pop	{r3, pc}
 167              		.cfi_endproc
 168              	.LFE70:
 169              		.size	_ZN3LED10turnOffLedEc, .-_ZN3LED10turnOffLedEc
 170 0022 00BF     		.section	.text._ZN3LED8blinkLedEc,"ax",%progbits
 171              		.align	2
 172              		.global	_ZN3LED8blinkLedEc
 173              		.thumb
 174              		.thumb_func
 175              		.type	_ZN3LED8blinkLedEc, %function
 176              	_ZN3LED8blinkLedEc:
 177              	.LFB71:
  47:LED.c         ****     }
  48:LED.c         **** }
  49:LED.c         **** 
  50:LED.c         **** void LED::blinkLed(char Color)
  51:LED.c         **** {
ARM GAS  C:\Users\jespe\AppData\Local\Temp\ccpqel91.s 			page 5


 178              		.loc 1 51 0
 179              		.cfi_startproc
 180              		@ args = 0, pretend = 0, frame = 0
 181              		@ frame_needed = 0, uses_anonymous_args = 0
 182              	.LVL15:
 183 0000 08B5     		push	{r3, lr}
 184              		.cfi_def_cfa_offset 8
 185              		.cfi_offset 3, -8
 186              		.cfi_offset 14, -4
  52:LED.c         ****     if (Color == 'g' || Color == 'G')
 187              		.loc 1 52 0
 188 0002 6729     		cmp	r1, #103
 189 0004 01D0     		beq	.L17
 190              		.loc 1 52 0 is_stmt 0 discriminator 1
 191 0006 4729     		cmp	r1, #71
 192 0008 03D1     		bne	.L18
 193              	.L17:
  53:LED.c         ****     {
  54:LED.c         ****         LED_PWM_WriteCompare2(50);
 194              		.loc 1 54 0 is_stmt 1
 195 000a 3220     		movs	r0, #50
 196              	.LVL16:
 197 000c FFF7FEFF 		bl	LED_PWM_WriteCompare2
 198              	.LVL17:
 199 0010 08BD     		pop	{r3, pc}
 200              	.LVL18:
 201              	.L18:
  55:LED.c         ****     }
  56:LED.c         ****     else if(Color == 'r' || Color == 'R')
 202              		.loc 1 56 0
 203 0012 7229     		cmp	r1, #114
 204 0014 01D0     		beq	.L20
 205              		.loc 1 56 0 is_stmt 0 discriminator 1
 206 0016 5229     		cmp	r1, #82
 207 0018 02D1     		bne	.L16
 208              	.L20:
  57:LED.c         ****     {
  58:LED.c         ****         LED_PWM_WriteCompare1(50);        
 209              		.loc 1 58 0 is_stmt 1
 210 001a 3220     		movs	r0, #50
 211              	.LVL19:
 212 001c FFF7FEFF 		bl	LED_PWM_WriteCompare1
 213              	.LVL20:
 214              	.L16:
 215 0020 08BD     		pop	{r3, pc}
 216              		.cfi_endproc
 217              	.LFE71:
 218              		.size	_ZN3LED8blinkLedEc, .-_ZN3LED8blinkLedEc
 219 0022 00BF     		.text
 220              	.Letext0:
 221              		.file 2 "c:\\program files (x86)\\cypress\\psoc creator\\4.2\\psoc creator\\import\\gnu\\arm\\5.4.
 222              		.file 3 "c:\\program files (x86)\\cypress\\psoc creator\\4.2\\psoc creator\\import\\gnu\\arm\\5.4.
 223              		.file 4 "LED.h"
 224              		.file 5 "Generated_Source\\PSoC5/LED_PWM.h"
 225              		.file 6 "Generated_Source\\PSoC5/core_cm3.h"