ARM GAS  C:\Users\jespe\AppData\Local\Temp\ccdoCN5f.s 			page 1


   1              		.syntax unified
   2              		.cpu cortex-m3
   3              		.fpu softvfp
   4              		.eabi_attribute 20, 1
   5              		.eabi_attribute 21, 1
   6              		.eabi_attribute 23, 3
   7              		.eabi_attribute 24, 1
   8              		.eabi_attribute 25, 1
   9              		.eabi_attribute 26, 1
  10              		.eabi_attribute 30, 1
  11              		.eabi_attribute 34, 1
  12              		.eabi_attribute 18, 4
  13              		.thumb
  14              		.syntax unified
  15              		.file	"main.c"
  16              		.text
  17              	.Ltext0:
  18              		.cfi_sections	.debug_frame
  19              		.section	.text._Z19PowerSwitch_Handlerv,"ax",%progbits
  20              		.align	2
  21              		.global	_Z19PowerSwitch_Handlerv
  22              		.thumb
  23              		.thumb_func
  24              		.type	_Z19PowerSwitch_Handlerv, %function
  25              	_Z19PowerSwitch_Handlerv:
  26              	.LFB71:
  27              		.file 1 "main.c"
   1:main.c        **** /* ========================================
   2:main.c        ****  *
   3:main.c        ****  * Copyright YOUR COMPANY, THE YEAR
   4:main.c        ****  * All Rights Reserved
   5:main.c        ****  * UNPUBLISHED, LICENSED SOFTWARE.
   6:main.c        ****  *
   7:main.c        ****  * CONFIDENTIAL AND PROPRIETARY INFORMATION
   8:main.c        ****  * WHICH IS THE PROPERTY OF your company.
   9:main.c        ****  *
  10:main.c        ****  * ========================================
  11:main.c        **** */
  12:main.c        **** #ifdef __cplusplus
  13:main.c        **** extern "C"
  14:main.c        **** {
  15:main.c        **** #endif
  16:main.c        **** #include "project.h"
  17:main.c        **** #ifdef __cplusplus
  18:main.c        **** }
  19:main.c        **** #endif
  20:main.c        **** #include "MotorController.h"
  21:main.c        **** #include "RpiSPI.h"
  22:main.c        **** #include "PIDcontroller.h"
  23:main.c        **** #include "LED.h"
  24:main.c        **** #include "Switches.h"
  25:main.c        **** #include "ToF.h"
  26:main.c        **** #include "Gyro.h"
  27:main.c        **** 
  28:main.c        **** CY_ISR_PROTO(PowerSwitch_Handler);
  29:main.c        **** CY_ISR_PROTO(FollowSwitch_Handler);
  30:main.c        **** CY_ISR_PROTO(Control_timer_isr);
ARM GAS  C:\Users\jespe\AppData\Local\Temp\ccdoCN5f.s 			page 2


  31:main.c        **** CY_ISR_PROTO(isr_handler);
  32:main.c        **** 
  33:main.c        **** enum State {Off = 0, Init = 1, Sleep = 2, Control = 3, Follow = 4, Fallen = 5};
  34:main.c        **** uint8_t Mode = Off; 
  35:main.c        **** uint8_t byteR;
  36:main.c        **** 
  37:main.c        **** ToF obj;
  38:main.c        **** Switches Switchcontroller;
  39:main.c        **** MotorController Motor;
  40:main.c        **** 
  41:main.c        **** int main(void)
  42:main.c        **** {
  43:main.c        ****     CyGlobalIntEnable; /* Enable global interrupts. */
  44:main.c        ****            
  45:main.c        ****     I2C_1_Start();
  46:main.c        ****     UART_1_Start();
  47:main.c        ****     SPIS_Start();
  48:main.c        ****     SPIS_1_Start();
  49:main.c        ****     isr_1_StartEx(isr_handler);
  50:main.c        ****     Power_isr_StartEx(PowerSwitch_Handler);
  51:main.c        ****     Follow_isr_StartEx(FollowSwitch_Handler);
  52:main.c        ****     Motor_timer_isr_StartEx(Control_timer_isr);
  53:main.c        ****        
  54:main.c        ****     Gyro GyroController;
  55:main.c        ****     RpiSPI SPIcontroller(&GyroController, &Motor);
  56:main.c        ****     LED Ledcontrol;
  57:main.c        ****     PIDcontroller PIDcontrol(142.9, -136.2, -0.693, 50, &Motor );
  58:main.c        ****                        
  59:main.c        ****     for(;;)
  60:main.c        ****     {
  61:main.c        ****         if(Mode == Off && Switchcontroller.getSwitchStatus('p') == true)
  62:main.c        ****         {
  63:main.c        ****             Mode = Init;
  64:main.c        ****             Ledcontrol.blinkLed('r');
  65:main.c        ****             CyDelay(1000);
  66:main.c        ****             Mode = Sleep;
  67:main.c        ****         }
  68:main.c        ****         else if (Mode == Sleep && Switchcontroller.getSwitchStatus('p') == false)
  69:main.c        ****         {
  70:main.c        ****             Mode = Off;
  71:main.c        ****         }
  72:main.c        ****         if (Mode == Sleep && SPIcontroller.ReadData() == 'o')
  73:main.c        ****         {
  74:main.c        ****             Mode = Control;
  75:main.c        ****             Timer_1_Start();
  76:main.c        ****         }
  77:main.c        ****         else if (Mode == Control && SPIcontroller.ReadData() == 'c')
  78:main.c        ****         {
  79:main.c        ****             Mode = Sleep;
  80:main.c        ****             Timer_1_Stop();
  81:main.c        ****         }
  82:main.c        ****         if (Mode == Sleep && Switchcontroller.getSwitchStatus('f') == true)
  83:main.c        ****         {
  84:main.c        ****             Mode = Follow;
  85:main.c        ****         }
  86:main.c        ****         else if (Mode == Follow && Switchcontroller.getSwitchStatus('f') == false)
  87:main.c        ****         {
ARM GAS  C:\Users\jespe\AppData\Local\Temp\ccdoCN5f.s 			page 3


  88:main.c        ****             Mode = Sleep;
  89:main.c        ****         }
  90:main.c        ****         
  91:main.c        ****         switch(Mode)
  92:main.c        ****         {
  93:main.c        ****             case Off :
  94:main.c        ****             {
  95:main.c        ****                 Ledcontrol.turnOffLed('g');
  96:main.c        ****                 Ledcontrol.turnOffLed('r');
  97:main.c        ****                 SPIcontroller.ReadData();
  98:main.c        ****             }
  99:main.c        ****             break;
 100:main.c        ****             case Init :
 101:main.c        ****             {
 102:main.c        ****                 Ledcontrol.blinkLed('r');
 103:main.c        ****                 CyDelay(1000);
 104:main.c        ****                 Mode = Sleep;
 105:main.c        ****             }
 106:main.c        ****             break;
 107:main.c        ****             case Sleep :
 108:main.c        ****             {
 109:main.c        ****                 Ledcontrol.turnOffLed('r');
 110:main.c        ****                 Ledcontrol.turnOnLed('g');
 111:main.c        ****                 Motor.GoForward(0);
 112:main.c        ****             }
 113:main.c        ****             break;
 114:main.c        ****             case Control :
 115:main.c        ****             {
 116:main.c        ****                 Ledcontrol.turnOffLed('r');
 117:main.c        ****                 Ledcontrol.blinkLed('g');
 118:main.c        ****             }
 119:main.c        ****             break;
 120:main.c        ****             case Follow :
 121:main.c        ****             {
 122:main.c        ****                 Ledcontrol.turnOffLed('r');
 123:main.c        ****                 Ledcontrol.blinkLed('g');
 124:main.c        ****                 
 125:main.c        ****                 SPIcontroller.ReadData();
 126:main.c        ****                            
 127:main.c        ****                 PIDcontrol.calculateError(obj.getMidSensor());
 128:main.c        ****                 PIDcontrol.calculateControl();
 129:main.c        ****             }
 130:main.c        ****             break;
 131:main.c        ****             default :
 132:main.c        ****             {
 133:main.c        ****                 
 134:main.c        ****             }
 135:main.c        ****             break;
 136:main.c        ****         }
 137:main.c        ****     }
 138:main.c        **** }
 139:main.c        **** 
 140:main.c        **** CY_ISR(PowerSwitch_Handler)
 141:main.c        **** {
  28              		.loc 1 141 0
  29              		.cfi_startproc
  30              		@ args = 0, pretend = 0, frame = 0
ARM GAS  C:\Users\jespe\AppData\Local\Temp\ccdoCN5f.s 			page 4


  31              		@ frame_needed = 0, uses_anonymous_args = 0
  32 0000 08B5     		push	{r3, lr}
  33              		.cfi_def_cfa_offset 8
  34              		.cfi_offset 3, -8
  35              		.cfi_offset 14, -4
 142:main.c        ****     Switchcontroller.setSwitchStatus('P');
  36              		.loc 1 142 0
  37 0002 5021     		movs	r1, #80
  38 0004 0148     		ldr	r0, .L3
  39 0006 FFF7FEFF 		bl	_ZN8Switches15setSwitchStatusEc
  40              	.LVL0:
  41 000a 08BD     		pop	{r3, pc}
  42              	.L4:
  43              		.align	2
  44              	.L3:
  45 000c 00000000 		.word	.LANCHOR0
  46              		.cfi_endproc
  47              	.LFE71:
  48              		.size	_Z19PowerSwitch_Handlerv, .-_Z19PowerSwitch_Handlerv
  49              		.section	.text._Z20FollowSwitch_Handlerv,"ax",%progbits
  50              		.align	2
  51              		.global	_Z20FollowSwitch_Handlerv
  52              		.thumb
  53              		.thumb_func
  54              		.type	_Z20FollowSwitch_Handlerv, %function
  55              	_Z20FollowSwitch_Handlerv:
  56              	.LFB72:
 143:main.c        **** }
 144:main.c        **** 
 145:main.c        **** CY_ISR(FollowSwitch_Handler)
 146:main.c        **** {
  57              		.loc 1 146 0
  58              		.cfi_startproc
  59              		@ args = 0, pretend = 0, frame = 0
  60              		@ frame_needed = 0, uses_anonymous_args = 0
  61 0000 08B5     		push	{r3, lr}
  62              		.cfi_def_cfa_offset 8
  63              		.cfi_offset 3, -8
  64              		.cfi_offset 14, -4
 147:main.c        ****     Switchcontroller.setSwitchStatus('F');
  65              		.loc 1 147 0
  66 0002 4621     		movs	r1, #70
  67 0004 0148     		ldr	r0, .L7
  68 0006 FFF7FEFF 		bl	_ZN8Switches15setSwitchStatusEc
  69              	.LVL1:
  70 000a 08BD     		pop	{r3, pc}
  71              	.L8:
  72              		.align	2
  73              	.L7:
  74 000c 00000000 		.word	.LANCHOR0
  75              		.cfi_endproc
  76              	.LFE72:
  77              		.size	_Z20FollowSwitch_Handlerv, .-_Z20FollowSwitch_Handlerv
  78              		.section	.text._Z17Control_timer_isrv,"ax",%progbits
  79              		.align	2
  80              		.global	_Z17Control_timer_isrv
  81              		.thumb
ARM GAS  C:\Users\jespe\AppData\Local\Temp\ccdoCN5f.s 			page 5


  82              		.thumb_func
  83              		.type	_Z17Control_timer_isrv, %function
  84              	_Z17Control_timer_isrv:
  85              	.LFB73:
 148:main.c        **** }
 149:main.c        **** 
 150:main.c        **** CY_ISR(Control_timer_isr)
 151:main.c        **** {
  86              		.loc 1 151 0
  87              		.cfi_startproc
  88              		@ args = 0, pretend = 0, frame = 0
  89              		@ frame_needed = 0, uses_anonymous_args = 0
  90 0000 38B5     		push	{r3, r4, r5, lr}
  91              		.cfi_def_cfa_offset 16
  92              		.cfi_offset 3, -16
  93              		.cfi_offset 4, -12
  94              		.cfi_offset 5, -8
  95              		.cfi_offset 14, -4
 152:main.c        ****     if (Motor.getOldPower() == Motor.getPower())
  96              		.loc 1 152 0
  97 0002 194C     		ldr	r4, .L13
  98 0004 2046     		mov	r0, r4
  99 0006 FFF7FEFF 		bl	_ZNK15MotorController11getOldPowerEv
 100              	.LVL2:
 101 000a 0546     		mov	r5, r0
 102 000c 2046     		mov	r0, r4
 103 000e FFF7FEFF 		bl	_ZNK15MotorController8getPowerEv
 104              	.LVL3:
 105 0012 8542     		cmp	r5, r0
 106 0014 26D1     		bne	.L9
 153:main.c        ****     {
 154:main.c        ****         Motor.setPower(Motor.getPower()-10); 
 107              		.loc 1 154 0
 108 0016 2046     		mov	r0, r4
 109 0018 FFF7FEFF 		bl	_ZNK15MotorController8getPowerEv
 110              	.LVL4:
 111 001c A0F10A01 		sub	r1, r0, #10
 112 0020 2046     		mov	r0, r4
 113 0022 FFF7FEFF 		bl	_ZN15MotorController8setPowerEi
 114              	.LVL5:
 155:main.c        ****         Motor.setOldPower();
 115              		.loc 1 155 0
 116 0026 2046     		mov	r0, r4
 117 0028 FFF7FEFF 		bl	_ZN15MotorController11setOldPowerEv
 118              	.LVL6:
 156:main.c        ****         if (Motor.getPower() > 0)
 119              		.loc 1 156 0
 120 002c 2046     		mov	r0, r4
 121 002e FFF7FEFF 		bl	_ZNK15MotorController8getPowerEv
 122              	.LVL7:
 123 0032 0028     		cmp	r0, #0
 124 0034 10DD     		ble	.L11
 157:main.c        ****         {
 158:main.c        ****             PWM_1_WriteCompare1(500+4*Motor.getPower());
 125              		.loc 1 158 0
 126 0036 2046     		mov	r0, r4
 127 0038 FFF7FEFF 		bl	_ZNK15MotorController8getPowerEv
ARM GAS  C:\Users\jespe\AppData\Local\Temp\ccdoCN5f.s 			page 6


 128              	.LVL8:
 129 003c 7D30     		adds	r0, r0, #125
 130 003e 8000     		lsls	r0, r0, #2
 131 0040 80B2     		uxth	r0, r0
 132 0042 FFF7FEFF 		bl	PWM_1_WriteCompare1
 133              	.LVL9:
 159:main.c        ****             PWM_1_WriteCompare2(500+4*Motor.getPower());
 134              		.loc 1 159 0
 135 0046 2046     		mov	r0, r4
 136 0048 FFF7FEFF 		bl	_ZNK15MotorController8getPowerEv
 137              	.LVL10:
 138 004c 7D30     		adds	r0, r0, #125
 139 004e 8000     		lsls	r0, r0, #2
 140 0050 80B2     		uxth	r0, r0
 141 0052 FFF7FEFF 		bl	PWM_1_WriteCompare2
 142              	.LVL11:
 143 0056 38BD     		pop	{r3, r4, r5, pc}
 144              	.L11:
 160:main.c        ****         }
 161:main.c        ****         else  
 162:main.c        ****         {
 163:main.c        ****             PWM_1_WriteCompare1(0);
 145              		.loc 1 163 0
 146 0058 0020     		movs	r0, #0
 147 005a FFF7FEFF 		bl	PWM_1_WriteCompare1
 148              	.LVL12:
 164:main.c        ****             PWM_1_WriteCompare2(0);
 149              		.loc 1 164 0
 150 005e 0020     		movs	r0, #0
 151 0060 FFF7FEFF 		bl	PWM_1_WriteCompare2
 152              	.LVL13:
 153              	.L9:
 154 0064 38BD     		pop	{r3, r4, r5, pc}
 155              	.L14:
 156 0066 00BF     		.align	2
 157              	.L13:
 158 0068 04000000 		.word	.LANCHOR0+4
 159              		.cfi_endproc
 160              	.LFE73:
 161              		.size	_Z17Control_timer_isrv, .-_Z17Control_timer_isrv
 162              		.section	.text._Z11isr_handlerv,"ax",%progbits
 163              		.align	2
 164              		.global	_Z11isr_handlerv
 165              		.thumb
 166              		.thumb_func
 167              		.type	_Z11isr_handlerv, %function
 168              	_Z11isr_handlerv:
 169              	.LFB74:
 165:main.c        ****         }
 166:main.c        ****     }
 167:main.c        **** }
 168:main.c        **** 
 169:main.c        **** CY_ISR_PROTO(isr_handler)
 170:main.c        **** {
 170              		.loc 1 170 0
 171              		.cfi_startproc
 172              		@ args = 0, pretend = 0, frame = 0
ARM GAS  C:\Users\jespe\AppData\Local\Temp\ccdoCN5f.s 			page 7


 173              		@ frame_needed = 0, uses_anonymous_args = 0
 174 0000 08B5     		push	{r3, lr}
 175              		.cfi_def_cfa_offset 8
 176              		.cfi_offset 3, -8
 177              		.cfi_offset 14, -4
 171:main.c        ****    byteR = SPIS_1_ReadRxData();                                                             // Gemm
 178              		.loc 1 171 0
 179 0002 FFF7FEFF 		bl	SPIS_1_ReadRxData
 180              	.LVL14:
 181 0006 0146     		mov	r1, r0
 182 0008 0248     		ldr	r0, .L17
 183 000a 0176     		strb	r1, [r0, #24]
 172:main.c        ****    obj.handleByte(byteR);
 184              		.loc 1 172 0
 185 000c 1C30     		adds	r0, r0, #28
 186 000e FFF7FEFF 		bl	_ZN3ToF10handleByteEh
 187              	.LVL15:
 188 0012 08BD     		pop	{r3, pc}
 189              	.L18:
 190              		.align	2
 191              	.L17:
 192 0014 00000000 		.word	.LANCHOR0
 193              		.cfi_endproc
 194              	.LFE74:
 195              		.size	_Z11isr_handlerv, .-_Z11isr_handlerv
 196              		.section	.text._Z41__static_initialization_and_destruction_0ii,"ax",%progbits
 197              		.align	2
 198              		.thumb
 199              		.thumb_func
 200              		.type	_Z41__static_initialization_and_destruction_0ii, %function
 201              	_Z41__static_initialization_and_destruction_0ii:
 202              	.LFB75:
 173:main.c        **** }
 203              		.loc 1 173 0
 204              		.cfi_startproc
 205              		@ args = 0, pretend = 0, frame = 0
 206              		@ frame_needed = 0, uses_anonymous_args = 0
 207              	.LVL16:
 208 0000 0128     		cmp	r0, #1
 209 0002 1CD1     		bne	.L22
 210              		.loc 1 173 0 is_stmt 0 discriminator 1
 211 0004 38B5     		push	{r3, r4, r5, lr}
 212              		.cfi_def_cfa_offset 16
 213              		.cfi_offset 3, -16
 214              		.cfi_offset 4, -12
 215              		.cfi_offset 5, -8
 216              		.cfi_offset 14, -4
 217              		.loc 1 173 0 is_stmt 1 discriminator 1
 218 0006 4FF6FF73 		movw	r3, #65535
 219 000a 9942     		cmp	r1, r3
 220 000c 16D1     		bne	.L19
  37:main.c        **** Switches Switchcontroller;
 221              		.loc 1 37 0
 222 000e 0C4C     		ldr	r4, .L23
 223 0010 04F11C00 		add	r0, r4, #28
 224              	.LVL17:
 225 0014 FFF7FEFF 		bl	_ZN3ToFC1Ev
ARM GAS  C:\Users\jespe\AppData\Local\Temp\ccdoCN5f.s 			page 8


 226              	.LVL18:
  38:main.c        **** MotorController Motor;
 227              		.loc 1 38 0
 228 0018 2046     		mov	r0, r4
 229 001a FFF7FEFF 		bl	_ZN8SwitchesC1Ev
 230              	.LVL19:
 231 001e 094D     		ldr	r5, .L23+4
 232 0020 2A46     		mov	r2, r5
 233 0022 0949     		ldr	r1, .L23+8
 234 0024 2046     		mov	r0, r4
 235 0026 FFF7FEFF 		bl	__aeabi_atexit
 236              	.LVL20:
  39:main.c        **** 
 237              		.loc 1 39 0
 238 002a 0434     		adds	r4, r4, #4
 239 002c 2046     		mov	r0, r4
 240 002e FFF7FEFF 		bl	_ZN15MotorControllerC1Ev
 241              	.LVL21:
 242 0032 2A46     		mov	r2, r5
 243 0034 0549     		ldr	r1, .L23+12
 244 0036 2046     		mov	r0, r4
 245 0038 FFF7FEFF 		bl	__aeabi_atexit
 246              	.LVL22:
 247              	.L19:
 248 003c 38BD     		pop	{r3, r4, r5, pc}
 249              	.LVL23:
 250              	.L22:
 251              		.cfi_def_cfa_offset 0
 252              		.cfi_restore 3
 253              		.cfi_restore 4
 254              		.cfi_restore 5
 255              		.cfi_restore 14
 256 003e 7047     		bx	lr
 257              	.L24:
 258              		.align	2
 259              	.L23:
 260 0040 00000000 		.word	.LANCHOR0
 261 0044 00000000 		.word	__dso_handle
 262 0048 00000000 		.word	_ZN8SwitchesD1Ev
 263 004c 00000000 		.word	_ZN15MotorControllerD1Ev
 264              		.cfi_endproc
 265              	.LFE75:
 266              		.size	_Z41__static_initialization_and_destruction_0ii, .-_Z41__static_initialization_and_destructi
 267              		.global	__aeabi_ui2f
 268              		.section	.text.main,"ax",%progbits
 269              		.align	2
 270              		.global	main
 271              		.thumb
 272              		.thumb_func
 273              		.type	main, %function
 274              	main:
 275              	.LFB70:
  42:main.c        ****     CyGlobalIntEnable; /* Enable global interrupts. */
 276              		.loc 1 42 0
 277              		.cfi_startproc
 278              		@ args = 0, pretend = 0, frame = 104
 279              		@ frame_needed = 0, uses_anonymous_args = 0
ARM GAS  C:\Users\jespe\AppData\Local\Temp\ccdoCN5f.s 			page 9


 280 0000 10B5     		push	{r4, lr}
 281              		.cfi_def_cfa_offset 8
 282              		.cfi_offset 4, -8
 283              		.cfi_offset 14, -4
 284 0002 9CB0     		sub	sp, sp, #112
 285              		.cfi_def_cfa_offset 120
  43:main.c        ****            
 286              		.loc 1 43 0
 287              		.syntax unified
 288              	@ 43 "main.c" 1
 289 0004 62B6     		CPSIE   i
 290              	@ 0 "" 2
  45:main.c        ****     UART_1_Start();
 291              		.loc 1 45 0
 292              		.thumb
 293              		.syntax unified
 294 0006 FFF7FEFF 		bl	I2C_1_Start
 295              	.LVL24:
  46:main.c        ****     SPIS_Start();
 296              		.loc 1 46 0
 297 000a FFF7FEFF 		bl	UART_1_Start
 298              	.LVL25:
  47:main.c        ****     SPIS_1_Start();
 299              		.loc 1 47 0
 300 000e FFF7FEFF 		bl	SPIS_Start
 301              	.LVL26:
  48:main.c        ****     isr_1_StartEx(isr_handler);
 302              		.loc 1 48 0
 303 0012 FFF7FEFF 		bl	SPIS_1_Start
 304              	.LVL27:
  49:main.c        ****     Power_isr_StartEx(PowerSwitch_Handler);
 305              		.loc 1 49 0
 306 0016 7448     		ldr	r0, .L52
 307 0018 FFF7FEFF 		bl	isr_1_StartEx
 308              	.LVL28:
  50:main.c        ****     Follow_isr_StartEx(FollowSwitch_Handler);
 309              		.loc 1 50 0
 310 001c 7348     		ldr	r0, .L52+4
 311 001e FFF7FEFF 		bl	Power_isr_StartEx
 312              	.LVL29:
  51:main.c        ****     Motor_timer_isr_StartEx(Control_timer_isr);
 313              		.loc 1 51 0
 314 0022 7348     		ldr	r0, .L52+8
 315 0024 FFF7FEFF 		bl	Follow_isr_StartEx
 316              	.LVL30:
  52:main.c        ****        
 317              		.loc 1 52 0
 318 0028 7248     		ldr	r0, .L52+12
 319 002a FFF7FEFF 		bl	Motor_timer_isr_StartEx
 320              	.LVL31:
  54:main.c        ****     RpiSPI SPIcontroller(&GyroController, &Motor);
 321              		.loc 1 54 0
 322 002e 17A8     		add	r0, sp, #92
 323 0030 FFF7FEFF 		bl	_ZN4GyroC1Ev
 324              	.LVL32:
  55:main.c        ****     LED Ledcontrol;
 325              		.loc 1 55 0
ARM GAS  C:\Users\jespe\AppData\Local\Temp\ccdoCN5f.s 			page 10


 326 0034 704C     		ldr	r4, .L52+16
 327 0036 2246     		mov	r2, r4
 328 0038 17A9     		add	r1, sp, #92
 329 003a 13A8     		add	r0, sp, #76
 330 003c FFF7FEFF 		bl	_ZN6RpiSPIC1EP4GyroP15MotorController
 331              	.LVL33:
  56:main.c        ****     PIDcontroller PIDcontrol(142.9, -136.2, -0.693, 50, &Motor );
 332              		.loc 1 56 0
 333 0040 12A8     		add	r0, sp, #72
 334 0042 FFF7FEFF 		bl	_ZN3LEDC1Ev
 335              	.LVL34:
  57:main.c        ****                        
 336              		.loc 1 57 0
 337 0046 0194     		str	r4, [sp, #4]
 338 0048 6C4B     		ldr	r3, .L52+20
 339 004a 0093     		str	r3, [sp]	@ float
 340 004c 6C4B     		ldr	r3, .L52+24
 341 004e 6D4A     		ldr	r2, .L52+28
 342 0050 6D49     		ldr	r1, .L52+32
 343 0052 03A8     		add	r0, sp, #12
 344 0054 FFF7FEFF 		bl	_ZN13PIDcontrollerC1EffffP15MotorController
 345              	.LVL35:
 346              	.L27:
  61:main.c        ****         {
 347              		.loc 1 61 0
 348 0058 6C4B     		ldr	r3, .L52+36
 349 005a 93F85C30 		ldrb	r3, [r3, #92]	@ zero_extendqisi2
 350 005e 2BB9     		cbnz	r3, .L47
  61:main.c        ****         {
 351              		.loc 1 61 0 is_stmt 0 discriminator 1
 352 0060 7021     		movs	r1, #112
 353 0062 6A48     		ldr	r0, .L52+36
 354 0064 FFF7FEFF 		bl	_ZNK8Switches15getSwitchStatusEc
 355              	.LVL36:
 356 0068 0446     		mov	r4, r0
 357 006a 00E0     		b	.L28
 358              	.L47:
  61:main.c        ****         {
 359              		.loc 1 61 0
 360 006c 0024     		movs	r4, #0
 361              	.L28:
  61:main.c        ****         {
 362              		.loc 1 61 0 discriminator 6
 363 006e 7CB1     		cbz	r4, .L29
  63:main.c        ****             Ledcontrol.blinkLed('r');
 364              		.loc 1 63 0 is_stmt 1
 365 0070 664C     		ldr	r4, .L52+36
 366 0072 0123     		movs	r3, #1
 367 0074 84F85C30 		strb	r3, [r4, #92]
  64:main.c        ****             CyDelay(1000);
 368              		.loc 1 64 0
 369 0078 7221     		movs	r1, #114
 370 007a 12A8     		add	r0, sp, #72
 371 007c FFF7FEFF 		bl	_ZN3LED8blinkLedEc
 372              	.LVL37:
  65:main.c        ****             Mode = Sleep;
 373              		.loc 1 65 0
ARM GAS  C:\Users\jespe\AppData\Local\Temp\ccdoCN5f.s 			page 11


 374 0080 4FF47A70 		mov	r0, #1000
 375 0084 FFF7FEFF 		bl	CyDelay
 376              	.LVL38:
  66:main.c        ****         }
 377              		.loc 1 66 0
 378 0088 0223     		movs	r3, #2
 379 008a 84F85C30 		strb	r3, [r4, #92]
 380 008e 0FE0     		b	.L30
 381              	.L29:
  68:main.c        ****         {
 382              		.loc 1 68 0
 383 0090 5E4B     		ldr	r3, .L52+36
 384 0092 93F85C30 		ldrb	r3, [r3, #92]	@ zero_extendqisi2
 385 0096 022B     		cmp	r3, #2
 386 0098 05D1     		bne	.L31
  68:main.c        ****         {
 387              		.loc 1 68 0 is_stmt 0 discriminator 1
 388 009a 7021     		movs	r1, #112
 389 009c 5B48     		ldr	r0, .L52+36
 390 009e FFF7FEFF 		bl	_ZNK8Switches15getSwitchStatusEc
 391              	.LVL39:
 392 00a2 00B9     		cbnz	r0, .L31
  68:main.c        ****         {
 393              		.loc 1 68 0
 394 00a4 0124     		movs	r4, #1
 395              	.L31:
  68:main.c        ****         {
 396              		.loc 1 68 0 discriminator 6
 397 00a6 1CB1     		cbz	r4, .L30
  70:main.c        ****         }
 398              		.loc 1 70 0 is_stmt 1
 399 00a8 0022     		movs	r2, #0
 400 00aa 584B     		ldr	r3, .L52+36
 401 00ac 83F85C20 		strb	r2, [r3, #92]
 402              	.L30:
  72:main.c        ****         {
 403              		.loc 1 72 0
 404 00b0 564B     		ldr	r3, .L52+36
 405 00b2 93F85C30 		ldrb	r3, [r3, #92]	@ zero_extendqisi2
 406 00b6 022B     		cmp	r3, #2
 407 00b8 06D1     		bne	.L48
  72:main.c        ****         {
 408              		.loc 1 72 0 is_stmt 0 discriminator 1
 409 00ba 13A8     		add	r0, sp, #76
 410 00bc FFF7FEFF 		bl	_ZN6RpiSPI8ReadDataEv
 411              	.LVL40:
 412 00c0 6F28     		cmp	r0, #111
 413 00c2 03D1     		bne	.L49
  72:main.c        ****         {
 414              		.loc 1 72 0
 415 00c4 0124     		movs	r4, #1
 416 00c6 02E0     		b	.L32
 417              	.L48:
 418 00c8 0024     		movs	r4, #0
 419 00ca 00E0     		b	.L32
 420              	.L49:
 421 00cc 0024     		movs	r4, #0
ARM GAS  C:\Users\jespe\AppData\Local\Temp\ccdoCN5f.s 			page 12


 422              	.L32:
  72:main.c        ****         {
 423              		.loc 1 72 0 discriminator 6
 424 00ce 34B1     		cbz	r4, .L33
  74:main.c        ****             Timer_1_Start();
 425              		.loc 1 74 0 is_stmt 1
 426 00d0 0322     		movs	r2, #3
 427 00d2 4E4B     		ldr	r3, .L52+36
 428 00d4 83F85C20 		strb	r2, [r3, #92]
  75:main.c        ****         }
 429              		.loc 1 75 0
 430 00d8 FFF7FEFF 		bl	Timer_1_Start
 431              	.LVL41:
 432 00dc 11E0     		b	.L34
 433              	.L33:
  77:main.c        ****         {
 434              		.loc 1 77 0
 435 00de 4B4B     		ldr	r3, .L52+36
 436 00e0 93F85C30 		ldrb	r3, [r3, #92]	@ zero_extendqisi2
 437 00e4 032B     		cmp	r3, #3
 438 00e6 05D1     		bne	.L35
  77:main.c        ****         {
 439              		.loc 1 77 0 is_stmt 0 discriminator 1
 440 00e8 13A8     		add	r0, sp, #76
 441 00ea FFF7FEFF 		bl	_ZN6RpiSPI8ReadDataEv
 442              	.LVL42:
 443 00ee 6328     		cmp	r0, #99
 444 00f0 00D1     		bne	.L35
  77:main.c        ****         {
 445              		.loc 1 77 0
 446 00f2 0124     		movs	r4, #1
 447              	.L35:
  77:main.c        ****         {
 448              		.loc 1 77 0 discriminator 6
 449 00f4 2CB1     		cbz	r4, .L34
  79:main.c        ****             Timer_1_Stop();
 450              		.loc 1 79 0 is_stmt 1
 451 00f6 0222     		movs	r2, #2
 452 00f8 444B     		ldr	r3, .L52+36
 453 00fa 83F85C20 		strb	r2, [r3, #92]
  80:main.c        ****         }
 454              		.loc 1 80 0
 455 00fe FFF7FEFF 		bl	Timer_1_Stop
 456              	.LVL43:
 457              	.L34:
  82:main.c        ****         {
 458              		.loc 1 82 0
 459 0102 424B     		ldr	r3, .L52+36
 460 0104 93F85C30 		ldrb	r3, [r3, #92]	@ zero_extendqisi2
 461 0108 022B     		cmp	r3, #2
 462 010a 05D1     		bne	.L50
  82:main.c        ****         {
 463              		.loc 1 82 0 is_stmt 0 discriminator 1
 464 010c 6621     		movs	r1, #102
 465 010e 3F48     		ldr	r0, .L52+36
 466 0110 FFF7FEFF 		bl	_ZNK8Switches15getSwitchStatusEc
 467              	.LVL44:
ARM GAS  C:\Users\jespe\AppData\Local\Temp\ccdoCN5f.s 			page 13


 468 0114 0446     		mov	r4, r0
 469 0116 00E0     		b	.L36
 470              	.L50:
  82:main.c        ****         {
 471              		.loc 1 82 0
 472 0118 0024     		movs	r4, #0
 473              	.L36:
  82:main.c        ****         {
 474              		.loc 1 82 0 discriminator 6
 475 011a 24B1     		cbz	r4, .L37
  84:main.c        ****         }
 476              		.loc 1 84 0 is_stmt 1
 477 011c 0422     		movs	r2, #4
 478 011e 3B4B     		ldr	r3, .L52+36
 479 0120 83F85C20 		strb	r2, [r3, #92]
 480 0124 0FE0     		b	.L38
 481              	.L37:
  86:main.c        ****         {
 482              		.loc 1 86 0
 483 0126 394B     		ldr	r3, .L52+36
 484 0128 93F85C30 		ldrb	r3, [r3, #92]	@ zero_extendqisi2
 485 012c 042B     		cmp	r3, #4
 486 012e 05D1     		bne	.L39
  86:main.c        ****         {
 487              		.loc 1 86 0 is_stmt 0 discriminator 1
 488 0130 6621     		movs	r1, #102
 489 0132 3648     		ldr	r0, .L52+36
 490 0134 FFF7FEFF 		bl	_ZNK8Switches15getSwitchStatusEc
 491              	.LVL45:
 492 0138 00B9     		cbnz	r0, .L39
  86:main.c        ****         {
 493              		.loc 1 86 0
 494 013a 0124     		movs	r4, #1
 495              	.L39:
  86:main.c        ****         {
 496              		.loc 1 86 0 discriminator 6
 497 013c 1CB1     		cbz	r4, .L38
  88:main.c        ****         }
 498              		.loc 1 88 0 is_stmt 1
 499 013e 0222     		movs	r2, #2
 500 0140 324B     		ldr	r3, .L52+36
 501 0142 83F85C20 		strb	r2, [r3, #92]
 502              	.L38:
  91:main.c        ****         {
 503              		.loc 1 91 0
 504 0146 314B     		ldr	r3, .L52+36
 505 0148 93F85C30 		ldrb	r3, [r3, #92]	@ zero_extendqisi2
 506 014c 042B     		cmp	r3, #4
 507 014e 83D8     		bhi	.L27
 508 0150 DFE803F0 		tbb	[pc, r3]
 509              	.L41:
 510 0154 03       		.byte	(.L40-.L41)/2
 511 0155 0F       		.byte	(.L42-.L41)/2
 512 0156 1C       		.byte	(.L43-.L41)/2
 513 0157 29       		.byte	(.L44-.L41)/2
 514 0158 32       		.byte	(.L45-.L41)/2
 515 0159 00       		.p2align 1
ARM GAS  C:\Users\jespe\AppData\Local\Temp\ccdoCN5f.s 			page 14


 516              	.L40:
  95:main.c        ****                 Ledcontrol.turnOffLed('r');
 517              		.loc 1 95 0
 518 015a 6721     		movs	r1, #103
 519 015c 12A8     		add	r0, sp, #72
 520 015e FFF7FEFF 		bl	_ZN3LED10turnOffLedEc
 521              	.LVL46:
  96:main.c        ****                 SPIcontroller.ReadData();
 522              		.loc 1 96 0
 523 0162 7221     		movs	r1, #114
 524 0164 12A8     		add	r0, sp, #72
 525 0166 FFF7FEFF 		bl	_ZN3LED10turnOffLedEc
 526              	.LVL47:
  97:main.c        ****             }
 527              		.loc 1 97 0
 528 016a 13A8     		add	r0, sp, #76
 529 016c FFF7FEFF 		bl	_ZN6RpiSPI8ReadDataEv
 530              	.LVL48:
  99:main.c        ****             case Init :
 531              		.loc 1 99 0
 532 0170 72E7     		b	.L27
 533              	.L42:
 102:main.c        ****                 CyDelay(1000);
 534              		.loc 1 102 0
 535 0172 7221     		movs	r1, #114
 536 0174 12A8     		add	r0, sp, #72
 537 0176 FFF7FEFF 		bl	_ZN3LED8blinkLedEc
 538              	.LVL49:
 103:main.c        ****                 Mode = Sleep;
 539              		.loc 1 103 0
 540 017a 4FF47A70 		mov	r0, #1000
 541 017e FFF7FEFF 		bl	CyDelay
 542              	.LVL50:
 104:main.c        ****             }
 543              		.loc 1 104 0
 544 0182 0222     		movs	r2, #2
 545 0184 214B     		ldr	r3, .L52+36
 546 0186 83F85C20 		strb	r2, [r3, #92]
 106:main.c        ****             case Sleep :
 547              		.loc 1 106 0
 548 018a 65E7     		b	.L27
 549              	.L43:
 109:main.c        ****                 Ledcontrol.turnOnLed('g');
 550              		.loc 1 109 0
 551 018c 7221     		movs	r1, #114
 552 018e 12A8     		add	r0, sp, #72
 553 0190 FFF7FEFF 		bl	_ZN3LED10turnOffLedEc
 554              	.LVL51:
 110:main.c        ****                 Motor.GoForward(0);
 555              		.loc 1 110 0
 556 0194 6721     		movs	r1, #103
 557 0196 12A8     		add	r0, sp, #72
 558 0198 FFF7FEFF 		bl	_ZN3LED9turnOnLedEc
 559              	.LVL52:
 111:main.c        ****             }
 560              		.loc 1 111 0
 561 019c 0021     		movs	r1, #0
ARM GAS  C:\Users\jespe\AppData\Local\Temp\ccdoCN5f.s 			page 15


 562 019e 1648     		ldr	r0, .L52+16
 563 01a0 FFF7FEFF 		bl	_ZN15MotorController9GoForwardEi
 564              	.LVL53:
 113:main.c        ****             case Control :
 565              		.loc 1 113 0
 566 01a4 58E7     		b	.L27
 567              	.L44:
 116:main.c        ****                 Ledcontrol.blinkLed('g');
 568              		.loc 1 116 0
 569 01a6 7221     		movs	r1, #114
 570 01a8 12A8     		add	r0, sp, #72
 571 01aa FFF7FEFF 		bl	_ZN3LED10turnOffLedEc
 572              	.LVL54:
 117:main.c        ****             }
 573              		.loc 1 117 0
 574 01ae 6721     		movs	r1, #103
 575 01b0 12A8     		add	r0, sp, #72
 576 01b2 FFF7FEFF 		bl	_ZN3LED8blinkLedEc
 577              	.LVL55:
 119:main.c        ****             case Follow :
 578              		.loc 1 119 0
 579 01b6 4FE7     		b	.L27
 580              	.L45:
 122:main.c        ****                 Ledcontrol.blinkLed('g');
 581              		.loc 1 122 0
 582 01b8 7221     		movs	r1, #114
 583 01ba 12A8     		add	r0, sp, #72
 584 01bc FFF7FEFF 		bl	_ZN3LED10turnOffLedEc
 585              	.LVL56:
 123:main.c        ****                 
 586              		.loc 1 123 0
 587 01c0 6721     		movs	r1, #103
 588 01c2 12A8     		add	r0, sp, #72
 589 01c4 FFF7FEFF 		bl	_ZN3LED8blinkLedEc
 590              	.LVL57:
 125:main.c        ****                            
 591              		.loc 1 125 0
 592 01c8 13A8     		add	r0, sp, #76
 593 01ca FFF7FEFF 		bl	_ZN6RpiSPI8ReadDataEv
 594              	.LVL58:
 127:main.c        ****                 PIDcontrol.calculateControl();
 595              		.loc 1 127 0
 596 01ce 1048     		ldr	r0, .L52+40
 597 01d0 FFF7FEFF 		bl	_ZNK3ToF12getMidSensorEv
 598              	.LVL59:
 599 01d4 FFF7FEFF 		bl	__aeabi_ui2f
 600              	.LVL60:
 601 01d8 0146     		mov	r1, r0
 602 01da 03A8     		add	r0, sp, #12
 603 01dc FFF7FEFF 		bl	_ZN13PIDcontroller14calculateErrorEf
 604              	.LVL61:
 128:main.c        ****             }
 605              		.loc 1 128 0
 606 01e0 03A8     		add	r0, sp, #12
 607 01e2 FFF7FEFF 		bl	_ZN13PIDcontroller16calculateControlEv
 608              	.LVL62:
 130:main.c        ****             default :
ARM GAS  C:\Users\jespe\AppData\Local\Temp\ccdoCN5f.s 			page 16


 609              		.loc 1 130 0
 610 01e6 37E7     		b	.L27
 611              	.L53:
 612              		.align	2
 613              	.L52:
 614 01e8 00000000 		.word	_Z11isr_handlerv
 615 01ec 00000000 		.word	_Z19PowerSwitch_Handlerv
 616 01f0 00000000 		.word	_Z20FollowSwitch_Handlerv
 617 01f4 00000000 		.word	_Z17Control_timer_isrv
 618 01f8 04000000 		.word	.LANCHOR0+4
 619 01fc 00004842 		.word	1112014848
 620 0200 736831BF 		.word	-1087281037
 621 0204 333308C3 		.word	-1022872781
 622 0208 66E60E43 		.word	1125049958
 623 020c 00000000 		.word	.LANCHOR0
 624 0210 1C000000 		.word	.LANCHOR0+28
 625              		.cfi_endproc
 626              	.LFE70:
 627              		.size	main, .-main
 628              		.section	.text._GLOBAL__sub_I_Mode,"ax",%progbits
 629              		.align	2
 630              		.thumb
 631              		.thumb_func
 632              		.type	_GLOBAL__sub_I_Mode, %function
 633              	_GLOBAL__sub_I_Mode:
 634              	.LFB76:
 635              		.loc 1 173 0
 636              		.cfi_startproc
 637              		@ args = 0, pretend = 0, frame = 0
 638              		@ frame_needed = 0, uses_anonymous_args = 0
 639 0000 08B5     		push	{r3, lr}
 640              		.cfi_def_cfa_offset 8
 641              		.cfi_offset 3, -8
 642              		.cfi_offset 14, -4
 643              		.loc 1 173 0
 644 0002 4FF6FF71 		movw	r1, #65535
 645 0006 0120     		movs	r0, #1
 646 0008 FFF7FEFF 		bl	_Z41__static_initialization_and_destruction_0ii
 647              	.LVL63:
 648 000c 08BD     		pop	{r3, pc}
 649              		.cfi_endproc
 650              	.LFE76:
 651              		.size	_GLOBAL__sub_I_Mode, .-_GLOBAL__sub_I_Mode
 652 000e 00BF     		.section	.init_array,"aw",%init_array
 653              		.align	2
 654 0000 00000000 		.word	_GLOBAL__sub_I_Mode(target1)
 655              		.global	Motor
 656              		.global	Switchcontroller
 657              		.global	obj
 658              		.global	byteR
 659              		.global	Mode
 660              		.bss
 661              		.align	2
 662              		.set	.LANCHOR0,. + 0
 663              		.type	Switchcontroller, %object
 664              		.size	Switchcontroller, 2
 665              	Switchcontroller:
ARM GAS  C:\Users\jespe\AppData\Local\Temp\ccdoCN5f.s 			page 17


 666 0000 0000     		.space	2
 667 0002 0000     		.space	2
 668              		.type	Motor, %object
 669              		.size	Motor, 20
 670              	Motor:
 671 0004 00000000 		.space	20
 671      00000000 
 671      00000000 
 671      00000000 
 671      00000000 
 672              		.type	byteR, %object
 673              		.size	byteR, 1
 674              	byteR:
 675 0018 00       		.space	1
 676 0019 000000   		.space	3
 677              		.type	obj, %object
 678              		.size	obj, 64
 679              	obj:
 680 001c 00000000 		.space	64
 680      00000000 
 680      00000000 
 680      00000000 
 680      00000000 
 681              		.type	Mode, %object
 682              		.size	Mode, 1
 683              	Mode:
 684 005c 00       		.space	1
 685              		.text
 686              	.Letext0:
 687              		.file 2 "c:\\program files (x86)\\cypress\\psoc creator\\4.2\\psoc creator\\import\\gnu\\arm\\5.4.
 688              		.file 3 "c:\\program files (x86)\\cypress\\psoc creator\\4.2\\psoc creator\\import\\gnu\\arm\\5.4.
 689              		.file 4 "MotorController.h"
 690              		.file 5 "i2c.h"
 691              		.file 6 "GyroDefs.h"
 692              		.file 7 "Gyro.h"
 693              		.file 8 "RpiSPI.h"
 694              		.file 9 "PIDcontroller.h"
 695              		.file 10 "LED.h"
 696              		.file 11 "Switches.h"
 697              		.file 12 "ToF.h"
 698              		.file 13 "Generated_Source\\PSoC5/core_cm3.h"
 699              		.file 14 "Generated_Source\\PSoC5/PWM_1.h"
 700              		.file 15 "Generated_Source\\PSoC5/SPIS_1.h"
 701              		.file 16 "Generated_Source\\PSoC5/I2C_1.h"
 702              		.file 17 "Generated_Source\\PSoC5/UART_1.h"
 703              		.file 18 "Generated_Source\\PSoC5/SPIS.h"
 704              		.file 19 "Generated_Source\\PSoC5/isr_1.h"
 705              		.file 20 "Generated_Source\\PSoC5/Power_isr.h"
 706              		.file 21 "Generated_Source\\PSoC5/Follow_isr.h"
 707              		.file 22 "Generated_Source\\PSoC5/Motor_timer_isr.h"
 708              		.file 23 "Generated_Source\\PSoC5/CyLib.h"
 709              		.file 24 "Generated_Source\\PSoC5/Timer_1.h"