ARM GAS  C:\Users\jespe\AppData\Local\Temp\ccPAvJFX.s 			page 1


   1              		.syntax unified
   2              		.cpu cortex-m3
   3              		.fpu softvfp
   4              		.eabi_attribute 20, 1
   5              		.eabi_attribute 21, 1
   6              		.eabi_attribute 23, 3
   7              		.eabi_attribute 24, 1
   8              		.eabi_attribute 25, 1
   9              		.eabi_attribute 26, 1
  10              		.eabi_attribute 30, 1
  11              		.eabi_attribute 34, 1
  12              		.eabi_attribute 18, 4
  13              		.thumb
  14              		.syntax unified
  15              		.file	"MotorController.c"
  16              		.text
  17              	.Ltext0:
  18              		.cfi_sections	.debug_frame
  19              		.section	.text._ZN15MotorControllerC2Ev,"ax",%progbits
  20              		.align	2
  21              		.global	_ZN15MotorControllerC2Ev
  22              		.thumb
  23              		.thumb_func
  24              		.type	_ZN15MotorControllerC2Ev, %function
  25              	_ZN15MotorControllerC2Ev:
  26              	.LFB64:
  27              		.file 1 "MotorController.c"
   1:MotorController.c **** /* ========================================
   2:MotorController.c ****  *
   3:MotorController.c ****  * Copyright YOUR COMPANY, THE YEAR
   4:MotorController.c ****  * All Rights Reserved
   5:MotorController.c ****  * UNPUBLISHED, LICENSED SOFTWARE.
   6:MotorController.c ****  *
   7:MotorController.c ****  * CONFIDENTIAL AND PROPRIETARY INFORMATION
   8:MotorController.c ****  * WHICH IS THE PROPERTY OF your company.
   9:MotorController.c ****  *
  10:MotorController.c ****  * ========================================
  11:MotorController.c **** */
  12:MotorController.c **** 
  13:MotorController.c **** /* [] END OF FILE */
  14:MotorController.c **** 
  15:MotorController.c **** #include "MotorController.h"
  16:MotorController.c **** 
  17:MotorController.c **** MotorController::MotorController()
  28              		.loc 1 17 0
  29              		.cfi_startproc
  30              		@ args = 0, pretend = 0, frame = 0
  31              		@ frame_needed = 0, uses_anonymous_args = 0
  32              	.LVL0:
  33 0000 10B5     		push	{r4, lr}
  34              		.cfi_def_cfa_offset 8
  35              		.cfi_offset 4, -8
  36              		.cfi_offset 14, -4
  37 0002 0446     		mov	r4, r0
  38              	.LBB2:
  39              		.loc 1 17 0
  40 0004 0023     		movs	r3, #0
ARM GAS  C:\Users\jespe\AppData\Local\Temp\ccPAvJFX.s 			page 2


  41 0006 0360     		str	r3, [r0]
  42 0008 4360     		str	r3, [r0, #4]
  43 000a 0122     		movs	r2, #1
  44 000c 0272     		strb	r2, [r0, #8]
  45 000e C360     		str	r3, [r0, #12]
  46 0010 0361     		str	r3, [r0, #16]
  18:MotorController.c **** {
  19:MotorController.c ****     PWM_1_Start();
  47              		.loc 1 19 0
  48 0012 FFF7FEFF 		bl	PWM_1_Start
  49              	.LVL1:
  50              	.LBE2:
  20:MotorController.c **** }
  51              		.loc 1 20 0
  52 0016 2046     		mov	r0, r4
  53 0018 10BD     		pop	{r4, pc}
  54              		.cfi_endproc
  55              	.LFE64:
  56              		.size	_ZN15MotorControllerC2Ev, .-_ZN15MotorControllerC2Ev
  57              		.global	_ZN15MotorControllerC1Ev
  58              		.thumb_set _ZN15MotorControllerC1Ev,_ZN15MotorControllerC2Ev
  59 001a 00BF     		.section	.text._ZN15MotorControllerD2Ev,"ax",%progbits
  60              		.align	2
  61              		.global	_ZN15MotorControllerD2Ev
  62              		.thumb
  63              		.thumb_func
  64              		.type	_ZN15MotorControllerD2Ev, %function
  65              	_ZN15MotorControllerD2Ev:
  66              	.LFB67:
  21:MotorController.c **** 
  22:MotorController.c **** MotorController::~MotorController()
  67              		.loc 1 22 0
  68              		.cfi_startproc
  69              		@ args = 0, pretend = 0, frame = 0
  70              		@ frame_needed = 0, uses_anonymous_args = 0
  71              		@ link register save eliminated.
  72              	.LVL2:
  23:MotorController.c **** {
  24:MotorController.c **** }
  73              		.loc 1 24 0
  74 0000 7047     		bx	lr
  75              		.cfi_endproc
  76              	.LFE67:
  77              		.size	_ZN15MotorControllerD2Ev, .-_ZN15MotorControllerD2Ev
  78              		.global	_ZN15MotorControllerD1Ev
  79              		.thumb_set _ZN15MotorControllerD1Ev,_ZN15MotorControllerD2Ev
  80 0002 00BF     		.section	.text._ZNK15MotorController8getPowerEv,"ax",%progbits
  81              		.align	2
  82              		.global	_ZNK15MotorController8getPowerEv
  83              		.thumb
  84              		.thumb_func
  85              		.type	_ZNK15MotorController8getPowerEv, %function
  86              	_ZNK15MotorController8getPowerEv:
  87              	.LFB75:
  25:MotorController.c **** 
  26:MotorController.c **** void MotorController::GoForward(int pwm)
  27:MotorController.c **** {
ARM GAS  C:\Users\jespe\AppData\Local\Temp\ccPAvJFX.s 			page 3


  28:MotorController.c ****     if (pwm == 0)
  29:MotorController.c ****     {
  30:MotorController.c ****         setLeftPWM(0);
  31:MotorController.c ****         setRightPWM(0);
  32:MotorController.c ****     }
  33:MotorController.c ****     else
  34:MotorController.c ****     {
  35:MotorController.c ****         setLeftPWM(500+(4*pwm));
  36:MotorController.c ****         setRightPWM(500+(4*pwm));
  37:MotorController.c ****     }
  38:MotorController.c ****     setDir(FORWARD);
  39:MotorController.c **** }
  40:MotorController.c ****     
  41:MotorController.c **** void MotorController::GoBackward(int pwm)
  42:MotorController.c **** {
  43:MotorController.c ****      if (pwm == 0)
  44:MotorController.c ****     {
  45:MotorController.c ****         setLeftPWM(0);
  46:MotorController.c ****         setRightPWM(0);
  47:MotorController.c ****     }
  48:MotorController.c ****     else
  49:MotorController.c ****     {
  50:MotorController.c ****         setLeftPWM(500+(4*pwm));
  51:MotorController.c ****         setRightPWM(500+(4*pwm));
  52:MotorController.c ****     }
  53:MotorController.c ****     setDir(BARCKWARD);
  54:MotorController.c **** }
  55:MotorController.c **** 
  56:MotorController.c **** void MotorController::TurnRight(int pwm)
  57:MotorController.c **** {
  58:MotorController.c ****     int CMP = 500+(4*pwm);
  59:MotorController.c ****     if ((Rightpwm_ - CMP) < 0)
  60:MotorController.c ****     {
  61:MotorController.c ****         setRightPWM(CMP+(CMP-Rightpwm_));
  62:MotorController.c ****         setLeftPWM(0);
  63:MotorController.c ****     }
  64:MotorController.c ****     else 
  65:MotorController.c ****     {
  66:MotorController.c ****         setRightPWM(Rightpwm_-CMP);
  67:MotorController.c ****     }
  68:MotorController.c ****     setDir(FORWARD);
  69:MotorController.c **** }
  70:MotorController.c **** 
  71:MotorController.c **** void MotorController::TurnLeft(int pwm)
  72:MotorController.c **** {
  73:MotorController.c ****     int CMP = 500+(4*pwm);
  74:MotorController.c ****     if ((Leftpwm_ - CMP) < 0)
  75:MotorController.c ****     {
  76:MotorController.c ****         setLeftPWM(CMP+(CMP-Leftpwm_));
  77:MotorController.c ****         setRightPWM(0);
  78:MotorController.c ****     }
  79:MotorController.c ****     else 
  80:MotorController.c ****     {
  81:MotorController.c ****         setLeftPWM(Rightpwm_-CMP);
  82:MotorController.c ****     }
  83:MotorController.c ****     setDir(FORWARD);
  84:MotorController.c **** }
ARM GAS  C:\Users\jespe\AppData\Local\Temp\ccPAvJFX.s 			page 4


  85:MotorController.c **** 
  86:MotorController.c **** void MotorController::Stop(void)
  87:MotorController.c **** {
  88:MotorController.c ****     setLeftPWM(0);
  89:MotorController.c ****     setRightPWM(0);
  90:MotorController.c **** }
  91:MotorController.c **** 
  92:MotorController.c **** void MotorController::Control(char dir)
  93:MotorController.c **** {
  94:MotorController.c ****     if (power_ < 25)
  95:MotorController.c ****     {
  96:MotorController.c ****         setPower(25); 
  97:MotorController.c ****     }
  98:MotorController.c ****     else
  99:MotorController.c ****     {
 100:MotorController.c ****         setPower(getPower() + 10);
 101:MotorController.c ****     }
 102:MotorController.c ****     setOldPower();
 103:MotorController.c ****     if (dir == 'f')
 104:MotorController.c ****     {
 105:MotorController.c ****         GoForward(power_);
 106:MotorController.c ****     }
 107:MotorController.c ****     else if (dir == 'b')
 108:MotorController.c ****     {
 109:MotorController.c ****         GoBackward(power_);
 110:MotorController.c ****     }
 111:MotorController.c ****     else if (dir == 'r')
 112:MotorController.c ****     {
 113:MotorController.c ****         TurnRight(power_);
 114:MotorController.c ****     }
 115:MotorController.c ****     else if (dir == 'l')
 116:MotorController.c ****     {
 117:MotorController.c ****         TurnLeft(power_);
 118:MotorController.c ****     }
 119:MotorController.c **** }
 120:MotorController.c **** 
 121:MotorController.c **** int MotorController::getPower(void) const
 122:MotorController.c **** {
  88              		.loc 1 122 0
  89              		.cfi_startproc
  90              		@ args = 0, pretend = 0, frame = 0
  91              		@ frame_needed = 0, uses_anonymous_args = 0
  92              		@ link register save eliminated.
  93              	.LVL3:
 123:MotorController.c ****     return power_;
 124:MotorController.c **** }
  94              		.loc 1 124 0
  95 0000 C068     		ldr	r0, [r0, #12]
  96              	.LVL4:
  97 0002 7047     		bx	lr
  98              		.cfi_endproc
  99              	.LFE75:
 100              		.size	_ZNK15MotorController8getPowerEv, .-_ZNK15MotorController8getPowerEv
 101              		.section	.text._ZN15MotorController8setPowerEi,"ax",%progbits
 102              		.align	2
 103              		.global	_ZN15MotorController8setPowerEi
 104              		.thumb
ARM GAS  C:\Users\jespe\AppData\Local\Temp\ccPAvJFX.s 			page 5


 105              		.thumb_func
 106              		.type	_ZN15MotorController8setPowerEi, %function
 107              	_ZN15MotorController8setPowerEi:
 108              	.LFB76:
 125:MotorController.c **** 
 126:MotorController.c **** void MotorController::setPower(int power)
 127:MotorController.c **** {
 109              		.loc 1 127 0
 110              		.cfi_startproc
 111              		@ args = 0, pretend = 0, frame = 0
 112              		@ frame_needed = 0, uses_anonymous_args = 0
 113              		@ link register save eliminated.
 114              	.LVL5:
 128:MotorController.c ****     if (power > 100)
 115              		.loc 1 128 0
 116 0000 6429     		cmp	r1, #100
 117 0002 02DD     		ble	.L6
 129:MotorController.c ****     {
 130:MotorController.c ****         power_ = 100; 
 118              		.loc 1 130 0
 119 0004 6423     		movs	r3, #100
 120 0006 C360     		str	r3, [r0, #12]
 121 0008 7047     		bx	lr
 122              	.L6:
 131:MotorController.c ****     }
 132:MotorController.c ****     else if (power <= 0)
 123              		.loc 1 132 0
 124 000a 0029     		cmp	r1, #0
 125 000c 02DC     		bgt	.L8
 133:MotorController.c ****     {
 134:MotorController.c ****         power_ = 0;
 126              		.loc 1 134 0
 127 000e 0023     		movs	r3, #0
 128 0010 C360     		str	r3, [r0, #12]
 129 0012 7047     		bx	lr
 130              	.L8:
 135:MotorController.c ****     }
 136:MotorController.c ****     else
 137:MotorController.c ****     {
 138:MotorController.c ****         power_ = power;
 131              		.loc 1 138 0
 132 0014 C160     		str	r1, [r0, #12]
 133 0016 7047     		bx	lr
 134              		.cfi_endproc
 135              	.LFE76:
 136              		.size	_ZN15MotorController8setPowerEi, .-_ZN15MotorController8setPowerEi
 137              		.section	.text._ZNK15MotorController11getOldPowerEv,"ax",%progbits
 138              		.align	2
 139              		.global	_ZNK15MotorController11getOldPowerEv
 140              		.thumb
 141              		.thumb_func
 142              		.type	_ZNK15MotorController11getOldPowerEv, %function
 143              	_ZNK15MotorController11getOldPowerEv:
 144              	.LFB77:
 139:MotorController.c ****     }
 140:MotorController.c **** }
 141:MotorController.c **** 
ARM GAS  C:\Users\jespe\AppData\Local\Temp\ccPAvJFX.s 			page 6


 142:MotorController.c **** int MotorController::getOldPower(void) const
 143:MotorController.c **** {
 145              		.loc 1 143 0
 146              		.cfi_startproc
 147              		@ args = 0, pretend = 0, frame = 0
 148              		@ frame_needed = 0, uses_anonymous_args = 0
 149              		@ link register save eliminated.
 150              	.LVL6:
 144:MotorController.c ****     return oldpower_;
 145:MotorController.c **** }
 151              		.loc 1 145 0
 152 0000 0069     		ldr	r0, [r0, #16]
 153              	.LVL7:
 154 0002 7047     		bx	lr
 155              		.cfi_endproc
 156              	.LFE77:
 157              		.size	_ZNK15MotorController11getOldPowerEv, .-_ZNK15MotorController11getOldPowerEv
 158              		.section	.text._ZN15MotorController11setOldPowerEv,"ax",%progbits
 159              		.align	2
 160              		.global	_ZN15MotorController11setOldPowerEv
 161              		.thumb
 162              		.thumb_func
 163              		.type	_ZN15MotorController11setOldPowerEv, %function
 164              	_ZN15MotorController11setOldPowerEv:
 165              	.LFB78:
 146:MotorController.c **** 
 147:MotorController.c **** void MotorController::setOldPower(void)
 148:MotorController.c **** {
 166              		.loc 1 148 0
 167              		.cfi_startproc
 168              		@ args = 0, pretend = 0, frame = 0
 169              		@ frame_needed = 0, uses_anonymous_args = 0
 170              		@ link register save eliminated.
 171              	.LVL8:
 149:MotorController.c ****     oldpower_ = power_;
 172              		.loc 1 149 0
 173 0000 C368     		ldr	r3, [r0, #12]
 174 0002 0361     		str	r3, [r0, #16]
 175 0004 7047     		bx	lr
 176              		.cfi_endproc
 177              	.LFE78:
 178              		.size	_ZN15MotorController11setOldPowerEv, .-_ZN15MotorController11setOldPowerEv
 179 0006 00BF     		.section	.text._ZN15MotorController10setLeftPWMEi,"ax",%progbits
 180              		.align	2
 181              		.global	_ZN15MotorController10setLeftPWMEi
 182              		.thumb
 183              		.thumb_func
 184              		.type	_ZN15MotorController10setLeftPWMEi, %function
 185              	_ZN15MotorController10setLeftPWMEi:
 186              	.LFB79:
 150:MotorController.c **** }
 151:MotorController.c ****       
 152:MotorController.c **** void MotorController::setLeftPWM(int pwm)
 153:MotorController.c **** {
 187              		.loc 1 153 0
 188              		.cfi_startproc
 189              		@ args = 0, pretend = 0, frame = 0
ARM GAS  C:\Users\jespe\AppData\Local\Temp\ccPAvJFX.s 			page 7


 190              		@ frame_needed = 0, uses_anonymous_args = 0
 191              	.LVL9:
 192 0000 08B5     		push	{r3, lr}
 193              		.cfi_def_cfa_offset 8
 194              		.cfi_offset 3, -8
 195              		.cfi_offset 14, -4
 154:MotorController.c ****     Leftpwm_ = pwm;
 196              		.loc 1 154 0
 197 0002 0160     		str	r1, [r0]
 155:MotorController.c ****     PWM_1_WriteCompare1(pwm);
 198              		.loc 1 155 0
 199 0004 88B2     		uxth	r0, r1
 200              	.LVL10:
 201 0006 FFF7FEFF 		bl	PWM_1_WriteCompare1
 202              	.LVL11:
 203 000a 08BD     		pop	{r3, pc}
 204              		.cfi_endproc
 205              	.LFE79:
 206              		.size	_ZN15MotorController10setLeftPWMEi, .-_ZN15MotorController10setLeftPWMEi
 207              		.section	.text._ZNK15MotorController10getLeftPWMEv,"ax",%progbits
 208              		.align	2
 209              		.global	_ZNK15MotorController10getLeftPWMEv
 210              		.thumb
 211              		.thumb_func
 212              		.type	_ZNK15MotorController10getLeftPWMEv, %function
 213              	_ZNK15MotorController10getLeftPWMEv:
 214              	.LFB80:
 156:MotorController.c **** }
 157:MotorController.c ****       
 158:MotorController.c **** int MotorController::getLeftPWM(void) const
 159:MotorController.c **** {
 215              		.loc 1 159 0
 216              		.cfi_startproc
 217              		@ args = 0, pretend = 0, frame = 0
 218              		@ frame_needed = 0, uses_anonymous_args = 0
 219              		@ link register save eliminated.
 220              	.LVL12:
 160:MotorController.c ****     return Leftpwm_;
 161:MotorController.c **** }
 221              		.loc 1 161 0
 222 0000 0068     		ldr	r0, [r0]
 223              	.LVL13:
 224 0002 7047     		bx	lr
 225              		.cfi_endproc
 226              	.LFE80:
 227              		.size	_ZNK15MotorController10getLeftPWMEv, .-_ZNK15MotorController10getLeftPWMEv
 228              		.section	.text._ZN15MotorController11setRightPWMEi,"ax",%progbits
 229              		.align	2
 230              		.global	_ZN15MotorController11setRightPWMEi
 231              		.thumb
 232              		.thumb_func
 233              		.type	_ZN15MotorController11setRightPWMEi, %function
 234              	_ZN15MotorController11setRightPWMEi:
 235              	.LFB81:
 162:MotorController.c ****     
 163:MotorController.c **** void MotorController::setRightPWM(int pwm)
 164:MotorController.c **** {
ARM GAS  C:\Users\jespe\AppData\Local\Temp\ccPAvJFX.s 			page 8


 236              		.loc 1 164 0
 237              		.cfi_startproc
 238              		@ args = 0, pretend = 0, frame = 0
 239              		@ frame_needed = 0, uses_anonymous_args = 0
 240              	.LVL14:
 241 0000 08B5     		push	{r3, lr}
 242              		.cfi_def_cfa_offset 8
 243              		.cfi_offset 3, -8
 244              		.cfi_offset 14, -4
 165:MotorController.c ****     Rightpwm_ = pwm;
 245              		.loc 1 165 0
 246 0002 4160     		str	r1, [r0, #4]
 166:MotorController.c ****     PWM_1_WriteCompare2(pwm);
 247              		.loc 1 166 0
 248 0004 88B2     		uxth	r0, r1
 249              	.LVL15:
 250 0006 FFF7FEFF 		bl	PWM_1_WriteCompare2
 251              	.LVL16:
 252 000a 08BD     		pop	{r3, pc}
 253              		.cfi_endproc
 254              	.LFE81:
 255              		.size	_ZN15MotorController11setRightPWMEi, .-_ZN15MotorController11setRightPWMEi
 256              		.section	.text._ZN15MotorController4StopEv,"ax",%progbits
 257              		.align	2
 258              		.global	_ZN15MotorController4StopEv
 259              		.thumb
 260              		.thumb_func
 261              		.type	_ZN15MotorController4StopEv, %function
 262              	_ZN15MotorController4StopEv:
 263              	.LFB73:
  87:MotorController.c ****     setLeftPWM(0);
 264              		.loc 1 87 0
 265              		.cfi_startproc
 266              		@ args = 0, pretend = 0, frame = 0
 267              		@ frame_needed = 0, uses_anonymous_args = 0
 268              	.LVL17:
 269 0000 10B5     		push	{r4, lr}
 270              		.cfi_def_cfa_offset 8
 271              		.cfi_offset 4, -8
 272              		.cfi_offset 14, -4
 273 0002 0446     		mov	r4, r0
  88:MotorController.c ****     setRightPWM(0);
 274              		.loc 1 88 0
 275 0004 0021     		movs	r1, #0
 276 0006 FFF7FEFF 		bl	_ZN15MotorController10setLeftPWMEi
 277              	.LVL18:
  89:MotorController.c **** }
 278              		.loc 1 89 0
 279 000a 0021     		movs	r1, #0
 280 000c 2046     		mov	r0, r4
 281 000e FFF7FEFF 		bl	_ZN15MotorController11setRightPWMEi
 282              	.LVL19:
 283 0012 10BD     		pop	{r4, pc}
 284              		.cfi_endproc
 285              	.LFE73:
 286              		.size	_ZN15MotorController4StopEv, .-_ZN15MotorController4StopEv
 287              		.section	.text._ZNK15MotorController11getRightPWMEv,"ax",%progbits
ARM GAS  C:\Users\jespe\AppData\Local\Temp\ccPAvJFX.s 			page 9


 288              		.align	2
 289              		.global	_ZNK15MotorController11getRightPWMEv
 290              		.thumb
 291              		.thumb_func
 292              		.type	_ZNK15MotorController11getRightPWMEv, %function
 293              	_ZNK15MotorController11getRightPWMEv:
 294              	.LFB82:
 167:MotorController.c **** }
 168:MotorController.c ****       
 169:MotorController.c **** int MotorController::getRightPWM(void) const
 170:MotorController.c **** {
 295              		.loc 1 170 0
 296              		.cfi_startproc
 297              		@ args = 0, pretend = 0, frame = 0
 298              		@ frame_needed = 0, uses_anonymous_args = 0
 299              		@ link register save eliminated.
 300              	.LVL20:
 171:MotorController.c ****     return Rightpwm_;
 172:MotorController.c **** }
 301              		.loc 1 172 0
 302 0000 4068     		ldr	r0, [r0, #4]
 303              	.LVL21:
 304 0002 7047     		bx	lr
 305              		.cfi_endproc
 306              	.LFE82:
 307              		.size	_ZNK15MotorController11getRightPWMEv, .-_ZNK15MotorController11getRightPWMEv
 308              		.section	.text._ZN15MotorController6setDirEb,"ax",%progbits
 309              		.align	2
 310              		.global	_ZN15MotorController6setDirEb
 311              		.thumb
 312              		.thumb_func
 313              		.type	_ZN15MotorController6setDirEb, %function
 314              	_ZN15MotorController6setDirEb:
 315              	.LFB83:
 173:MotorController.c ****       
 174:MotorController.c **** void MotorController::setDir(bool dir)
 175:MotorController.c **** {
 316              		.loc 1 175 0
 317              		.cfi_startproc
 318              		@ args = 0, pretend = 0, frame = 0
 319              		@ frame_needed = 0, uses_anonymous_args = 0
 320              	.LVL22:
 321 0000 10B5     		push	{r4, lr}
 322              		.cfi_def_cfa_offset 8
 323              		.cfi_offset 4, -8
 324              		.cfi_offset 14, -4
 325 0002 0C46     		mov	r4, r1
 176:MotorController.c ****     direction_ = dir;
 326              		.loc 1 176 0
 327 0004 0172     		strb	r1, [r0, #8]
 177:MotorController.c ****     Forward_ORANGE_Write(dir);
 328              		.loc 1 177 0
 329 0006 0846     		mov	r0, r1
 330              	.LVL23:
 331 0008 FFF7FEFF 		bl	Forward_ORANGE_Write
 332              	.LVL24:
 178:MotorController.c ****     Backward_GUL_Write(!dir);
ARM GAS  C:\Users\jespe\AppData\Local\Temp\ccPAvJFX.s 			page 10


 333              		.loc 1 178 0
 334 000c 84F00100 		eor	r0, r4, #1
 335 0010 FFF7FEFF 		bl	Backward_GUL_Write
 336              	.LVL25:
 337 0014 10BD     		pop	{r4, pc}
 338              		.cfi_endproc
 339              	.LFE83:
 340              		.size	_ZN15MotorController6setDirEb, .-_ZN15MotorController6setDirEb
 341 0016 00BF     		.section	.text._ZN15MotorController9GoForwardEi,"ax",%progbits
 342              		.align	2
 343              		.global	_ZN15MotorController9GoForwardEi
 344              		.thumb
 345              		.thumb_func
 346              		.type	_ZN15MotorController9GoForwardEi, %function
 347              	_ZN15MotorController9GoForwardEi:
 348              	.LFB69:
  27:MotorController.c ****     if (pwm == 0)
 349              		.loc 1 27 0
 350              		.cfi_startproc
 351              		@ args = 0, pretend = 0, frame = 0
 352              		@ frame_needed = 0, uses_anonymous_args = 0
 353              	.LVL26:
 354 0000 38B5     		push	{r3, r4, r5, lr}
 355              		.cfi_def_cfa_offset 16
 356              		.cfi_offset 3, -16
 357              		.cfi_offset 4, -12
 358              		.cfi_offset 5, -8
 359              		.cfi_offset 14, -4
 360 0002 0546     		mov	r5, r0
  28:MotorController.c ****     {
 361              		.loc 1 28 0
 362 0004 31B9     		cbnz	r1, .L22
  30:MotorController.c ****         setRightPWM(0);
 363              		.loc 1 30 0
 364 0006 FFF7FEFF 		bl	_ZN15MotorController10setLeftPWMEi
 365              	.LVL27:
  31:MotorController.c ****     }
 366              		.loc 1 31 0
 367 000a 0021     		movs	r1, #0
 368 000c 2846     		mov	r0, r5
 369 000e FFF7FEFF 		bl	_ZN15MotorController11setRightPWMEi
 370              	.LVL28:
 371 0012 09E0     		b	.L23
 372              	.LVL29:
 373              	.L22:
 374 0014 0C46     		mov	r4, r1
  35:MotorController.c ****         setRightPWM(500+(4*pwm));
 375              		.loc 1 35 0
 376 0016 7D34     		adds	r4, r4, #125
 377 0018 A400     		lsls	r4, r4, #2
 378 001a 2146     		mov	r1, r4
 379              	.LVL30:
 380 001c FFF7FEFF 		bl	_ZN15MotorController10setLeftPWMEi
 381              	.LVL31:
  36:MotorController.c ****     }
 382              		.loc 1 36 0
 383 0020 2146     		mov	r1, r4
ARM GAS  C:\Users\jespe\AppData\Local\Temp\ccPAvJFX.s 			page 11


 384 0022 2846     		mov	r0, r5
 385 0024 FFF7FEFF 		bl	_ZN15MotorController11setRightPWMEi
 386              	.LVL32:
 387              	.L23:
  38:MotorController.c **** }
 388              		.loc 1 38 0
 389 0028 0121     		movs	r1, #1
 390 002a 2846     		mov	r0, r5
 391 002c FFF7FEFF 		bl	_ZN15MotorController6setDirEb
 392              	.LVL33:
 393 0030 38BD     		pop	{r3, r4, r5, pc}
 394              		.cfi_endproc
 395              	.LFE69:
 396              		.size	_ZN15MotorController9GoForwardEi, .-_ZN15MotorController9GoForwardEi
 397 0032 00BF     		.section	.text._ZN15MotorController10GoBackwardEi,"ax",%progbits
 398              		.align	2
 399              		.global	_ZN15MotorController10GoBackwardEi
 400              		.thumb
 401              		.thumb_func
 402              		.type	_ZN15MotorController10GoBackwardEi, %function
 403              	_ZN15MotorController10GoBackwardEi:
 404              	.LFB70:
  42:MotorController.c ****      if (pwm == 0)
 405              		.loc 1 42 0
 406              		.cfi_startproc
 407              		@ args = 0, pretend = 0, frame = 0
 408              		@ frame_needed = 0, uses_anonymous_args = 0
 409              	.LVL34:
 410 0000 38B5     		push	{r3, r4, r5, lr}
 411              		.cfi_def_cfa_offset 16
 412              		.cfi_offset 3, -16
 413              		.cfi_offset 4, -12
 414              		.cfi_offset 5, -8
 415              		.cfi_offset 14, -4
 416 0002 0546     		mov	r5, r0
  43:MotorController.c ****     {
 417              		.loc 1 43 0
 418 0004 31B9     		cbnz	r1, .L26
  45:MotorController.c ****         setRightPWM(0);
 419              		.loc 1 45 0
 420 0006 FFF7FEFF 		bl	_ZN15MotorController10setLeftPWMEi
 421              	.LVL35:
  46:MotorController.c ****     }
 422              		.loc 1 46 0
 423 000a 0021     		movs	r1, #0
 424 000c 2846     		mov	r0, r5
 425 000e FFF7FEFF 		bl	_ZN15MotorController11setRightPWMEi
 426              	.LVL36:
 427 0012 09E0     		b	.L27
 428              	.LVL37:
 429              	.L26:
 430 0014 0C46     		mov	r4, r1
  50:MotorController.c ****         setRightPWM(500+(4*pwm));
 431              		.loc 1 50 0
 432 0016 7D34     		adds	r4, r4, #125
 433 0018 A400     		lsls	r4, r4, #2
 434 001a 2146     		mov	r1, r4
ARM GAS  C:\Users\jespe\AppData\Local\Temp\ccPAvJFX.s 			page 12


 435              	.LVL38:
 436 001c FFF7FEFF 		bl	_ZN15MotorController10setLeftPWMEi
 437              	.LVL39:
  51:MotorController.c ****     }
 438              		.loc 1 51 0
 439 0020 2146     		mov	r1, r4
 440 0022 2846     		mov	r0, r5
 441 0024 FFF7FEFF 		bl	_ZN15MotorController11setRightPWMEi
 442              	.LVL40:
 443              	.L27:
  53:MotorController.c **** }
 444              		.loc 1 53 0
 445 0028 0021     		movs	r1, #0
 446 002a 2846     		mov	r0, r5
 447 002c FFF7FEFF 		bl	_ZN15MotorController6setDirEb
 448              	.LVL41:
 449 0030 38BD     		pop	{r3, r4, r5, pc}
 450              		.cfi_endproc
 451              	.LFE70:
 452              		.size	_ZN15MotorController10GoBackwardEi, .-_ZN15MotorController10GoBackwardEi
 453 0032 00BF     		.section	.text._ZN15MotorController9TurnRightEi,"ax",%progbits
 454              		.align	2
 455              		.global	_ZN15MotorController9TurnRightEi
 456              		.thumb
 457              		.thumb_func
 458              		.type	_ZN15MotorController9TurnRightEi, %function
 459              	_ZN15MotorController9TurnRightEi:
 460              	.LFB71:
  57:MotorController.c ****     int CMP = 500+(4*pwm);
 461              		.loc 1 57 0
 462              		.cfi_startproc
 463              		@ args = 0, pretend = 0, frame = 0
 464              		@ frame_needed = 0, uses_anonymous_args = 0
 465              	.LVL42:
 466 0000 10B5     		push	{r4, lr}
 467              		.cfi_def_cfa_offset 8
 468              		.cfi_offset 4, -8
 469              		.cfi_offset 14, -4
 470 0002 0446     		mov	r4, r0
  58:MotorController.c ****     if ((Rightpwm_ - CMP) < 0)
 471              		.loc 1 58 0
 472 0004 7D31     		adds	r1, r1, #125
 473              	.LVL43:
 474 0006 8B00     		lsls	r3, r1, #2
 475              	.LVL44:
  59:MotorController.c ****     {
 476              		.loc 1 59 0
 477 0008 4268     		ldr	r2, [r0, #4]
 478 000a D11A     		subs	r1, r2, r3
 479              	.LVL45:
 480 000c 08D5     		bpl	.L30
  61:MotorController.c ****         setLeftPWM(0);
 481              		.loc 1 61 0
 482 000e C2EB4301 		rsb	r1, r2, r3, lsl #1
 483 0012 FFF7FEFF 		bl	_ZN15MotorController11setRightPWMEi
 484              	.LVL46:
  62:MotorController.c ****     }
ARM GAS  C:\Users\jespe\AppData\Local\Temp\ccPAvJFX.s 			page 13


 485              		.loc 1 62 0
 486 0016 0021     		movs	r1, #0
 487 0018 2046     		mov	r0, r4
 488 001a FFF7FEFF 		bl	_ZN15MotorController10setLeftPWMEi
 489              	.LVL47:
 490 001e 01E0     		b	.L31
 491              	.LVL48:
 492              	.L30:
  66:MotorController.c ****     }
 493              		.loc 1 66 0
 494 0020 FFF7FEFF 		bl	_ZN15MotorController11setRightPWMEi
 495              	.LVL49:
 496              	.L31:
  68:MotorController.c **** }
 497              		.loc 1 68 0
 498 0024 0121     		movs	r1, #1
 499 0026 2046     		mov	r0, r4
 500 0028 FFF7FEFF 		bl	_ZN15MotorController6setDirEb
 501              	.LVL50:
 502 002c 10BD     		pop	{r4, pc}
 503              		.cfi_endproc
 504              	.LFE71:
 505              		.size	_ZN15MotorController9TurnRightEi, .-_ZN15MotorController9TurnRightEi
 506 002e 00BF     		.section	.text._ZN15MotorController8TurnLeftEi,"ax",%progbits
 507              		.align	2
 508              		.global	_ZN15MotorController8TurnLeftEi
 509              		.thumb
 510              		.thumb_func
 511              		.type	_ZN15MotorController8TurnLeftEi, %function
 512              	_ZN15MotorController8TurnLeftEi:
 513              	.LFB72:
  72:MotorController.c ****     int CMP = 500+(4*pwm);
 514              		.loc 1 72 0
 515              		.cfi_startproc
 516              		@ args = 0, pretend = 0, frame = 0
 517              		@ frame_needed = 0, uses_anonymous_args = 0
 518              	.LVL51:
 519 0000 10B5     		push	{r4, lr}
 520              		.cfi_def_cfa_offset 8
 521              		.cfi_offset 4, -8
 522              		.cfi_offset 14, -4
 523 0002 0446     		mov	r4, r0
  73:MotorController.c ****     if ((Leftpwm_ - CMP) < 0)
 524              		.loc 1 73 0
 525 0004 7D31     		adds	r1, r1, #125
 526              	.LVL52:
 527 0006 8900     		lsls	r1, r1, #2
 528              	.LVL53:
  74:MotorController.c ****     {
 529              		.loc 1 74 0
 530 0008 0368     		ldr	r3, [r0]
 531 000a 5A1A     		subs	r2, r3, r1
 532 000c 002A     		cmp	r2, #0
 533 000e 08DA     		bge	.L34
  76:MotorController.c ****         setRightPWM(0);
 534              		.loc 1 76 0
 535 0010 C3EB4101 		rsb	r1, r3, r1, lsl #1
ARM GAS  C:\Users\jespe\AppData\Local\Temp\ccPAvJFX.s 			page 14


 536              	.LVL54:
 537 0014 FFF7FEFF 		bl	_ZN15MotorController10setLeftPWMEi
 538              	.LVL55:
  77:MotorController.c ****     }
 539              		.loc 1 77 0
 540 0018 0021     		movs	r1, #0
 541 001a 2046     		mov	r0, r4
 542 001c FFF7FEFF 		bl	_ZN15MotorController11setRightPWMEi
 543              	.LVL56:
 544 0020 03E0     		b	.L35
 545              	.LVL57:
 546              	.L34:
  81:MotorController.c ****     }
 547              		.loc 1 81 0
 548 0022 4368     		ldr	r3, [r0, #4]
 549 0024 591A     		subs	r1, r3, r1
 550              	.LVL58:
 551 0026 FFF7FEFF 		bl	_ZN15MotorController10setLeftPWMEi
 552              	.LVL59:
 553              	.L35:
  83:MotorController.c **** }
 554              		.loc 1 83 0
 555 002a 0121     		movs	r1, #1
 556 002c 2046     		mov	r0, r4
 557 002e FFF7FEFF 		bl	_ZN15MotorController6setDirEb
 558              	.LVL60:
 559 0032 10BD     		pop	{r4, pc}
 560              		.cfi_endproc
 561              	.LFE72:
 562              		.size	_ZN15MotorController8TurnLeftEi, .-_ZN15MotorController8TurnLeftEi
 563              		.section	.text._ZN15MotorController7ControlEc,"ax",%progbits
 564              		.align	2
 565              		.global	_ZN15MotorController7ControlEc
 566              		.thumb
 567              		.thumb_func
 568              		.type	_ZN15MotorController7ControlEc, %function
 569              	_ZN15MotorController7ControlEc:
 570              	.LFB74:
  93:MotorController.c ****     if (power_ < 25)
 571              		.loc 1 93 0
 572              		.cfi_startproc
 573              		@ args = 0, pretend = 0, frame = 0
 574              		@ frame_needed = 0, uses_anonymous_args = 0
 575              	.LVL61:
 576 0000 38B5     		push	{r3, r4, r5, lr}
 577              		.cfi_def_cfa_offset 16
 578              		.cfi_offset 3, -16
 579              		.cfi_offset 4, -12
 580              		.cfi_offset 5, -8
 581              		.cfi_offset 14, -4
 582 0002 0446     		mov	r4, r0
 583 0004 0D46     		mov	r5, r1
  94:MotorController.c ****     {
 584              		.loc 1 94 0
 585 0006 C368     		ldr	r3, [r0, #12]
 586 0008 182B     		cmp	r3, #24
 587 000a 03DC     		bgt	.L38
ARM GAS  C:\Users\jespe\AppData\Local\Temp\ccPAvJFX.s 			page 15


  96:MotorController.c ****     }
 588              		.loc 1 96 0
 589 000c 1921     		movs	r1, #25
 590              	.LVL62:
 591 000e FFF7FEFF 		bl	_ZN15MotorController8setPowerEi
 592              	.LVL63:
 593 0012 06E0     		b	.L39
 594              	.LVL64:
 595              	.L38:
 100:MotorController.c ****     }
 596              		.loc 1 100 0
 597 0014 FFF7FEFF 		bl	_ZNK15MotorController8getPowerEv
 598              	.LVL65:
 599 0018 00F10A01 		add	r1, r0, #10
 600 001c 2046     		mov	r0, r4
 601 001e FFF7FEFF 		bl	_ZN15MotorController8setPowerEi
 602              	.LVL66:
 603              	.L39:
 102:MotorController.c ****     if (dir == 'f')
 604              		.loc 1 102 0
 605 0022 2046     		mov	r0, r4
 606 0024 FFF7FEFF 		bl	_ZN15MotorController11setOldPowerEv
 607              	.LVL67:
 103:MotorController.c ****     {
 608              		.loc 1 103 0
 609 0028 662D     		cmp	r5, #102
 610 002a 04D1     		bne	.L40
 105:MotorController.c ****     }
 611              		.loc 1 105 0
 612 002c E168     		ldr	r1, [r4, #12]
 613 002e 2046     		mov	r0, r4
 614 0030 FFF7FEFF 		bl	_ZN15MotorController9GoForwardEi
 615              	.LVL68:
 616 0034 38BD     		pop	{r3, r4, r5, pc}
 617              	.LVL69:
 618              	.L40:
 107:MotorController.c ****     {
 619              		.loc 1 107 0
 620 0036 622D     		cmp	r5, #98
 621 0038 04D1     		bne	.L42
 109:MotorController.c ****     }
 622              		.loc 1 109 0
 623 003a E168     		ldr	r1, [r4, #12]
 624 003c 2046     		mov	r0, r4
 625 003e FFF7FEFF 		bl	_ZN15MotorController10GoBackwardEi
 626              	.LVL70:
 627 0042 38BD     		pop	{r3, r4, r5, pc}
 628              	.LVL71:
 629              	.L42:
 111:MotorController.c ****     {
 630              		.loc 1 111 0
 631 0044 722D     		cmp	r5, #114
 632 0046 04D1     		bne	.L43
 113:MotorController.c ****     }
 633              		.loc 1 113 0
 634 0048 E168     		ldr	r1, [r4, #12]
 635 004a 2046     		mov	r0, r4
ARM GAS  C:\Users\jespe\AppData\Local\Temp\ccPAvJFX.s 			page 16


 636 004c FFF7FEFF 		bl	_ZN15MotorController9TurnRightEi
 637              	.LVL72:
 638 0050 38BD     		pop	{r3, r4, r5, pc}
 639              	.LVL73:
 640              	.L43:
 115:MotorController.c ****     {
 641              		.loc 1 115 0
 642 0052 6C2D     		cmp	r5, #108
 643 0054 03D1     		bne	.L37
 117:MotorController.c ****     }
 644              		.loc 1 117 0
 645 0056 E168     		ldr	r1, [r4, #12]
 646 0058 2046     		mov	r0, r4
 647 005a FFF7FEFF 		bl	_ZN15MotorController8TurnLeftEi
 648              	.LVL74:
 649              	.L37:
 650 005e 38BD     		pop	{r3, r4, r5, pc}
 651              		.cfi_endproc
 652              	.LFE74:
 653              		.size	_ZN15MotorController7ControlEc, .-_ZN15MotorController7ControlEc
 654              		.section	.text._ZNK15MotorController6getDirEv,"ax",%progbits
 655              		.align	2
 656              		.global	_ZNK15MotorController6getDirEv
 657              		.thumb
 658              		.thumb_func
 659              		.type	_ZNK15MotorController6getDirEv, %function
 660              	_ZNK15MotorController6getDirEv:
 661              	.LFB84:
 179:MotorController.c **** }
 180:MotorController.c ****       
 181:MotorController.c **** bool MotorController::getDir(void) const
 182:MotorController.c **** {
 662              		.loc 1 182 0
 663              		.cfi_startproc
 664              		@ args = 0, pretend = 0, frame = 0
 665              		@ frame_needed = 0, uses_anonymous_args = 0
 666              		@ link register save eliminated.
 667              	.LVL75:
 183:MotorController.c ****     return direction_;
 184:MotorController.c **** }...
 668              		.loc 1 184 0
 669 0000 007A     		ldrb	r0, [r0, #8]	@ zero_extendqisi2
 670              	.LVL76:
 671 0002 7047     		bx	lr
 672              		.cfi_endproc
 673              	.LFE84:
 674              		.size	_ZNK15MotorController6getDirEv, .-_ZNK15MotorController6getDirEv
 675              		.text
 676              	.Letext0:
 677              		.file 2 "c:\\program files (x86)\\cypress\\psoc creator\\4.2\\psoc creator\\import\\gnu\\arm\\5.4.
 678              		.file 3 "c:\\program files (x86)\\cypress\\psoc creator\\4.2\\psoc creator\\import\\gnu\\arm\\5.4.
 679              		.file 4 "MotorController.h"
 680              		.file 5 "Generated_Source\\PSoC5/PWM_1.h"
 681              		.file 6 "Generated_Source\\PSoC5/Forward_ORANGE.h"
 682              		.file 7 "Generated_Source\\PSoC5/Backward_GUL.h"
 683              		.file 8 "Generated_Source\\PSoC5/core_cm3.h"