ARM GAS  C:\Users\jespe\AppData\Local\Temp\ccmuZa6J.s 			page 1


   1              		.syntax unified
   2              		.cpu cortex-m3
   3              		.fpu softvfp
   4              		.eabi_attribute 20, 1
   5              		.eabi_attribute 21, 1
   6              		.eabi_attribute 23, 3
   7              		.eabi_attribute 24, 1
   8              		.eabi_attribute 25, 1
   9              		.eabi_attribute 26, 1
  10              		.eabi_attribute 30, 1
  11              		.eabi_attribute 34, 1
  12              		.eabi_attribute 18, 4
  13              		.thumb
  14              		.syntax unified
  15              		.file	"MotorClass.c"
  16              		.text
  17              	.Ltext0:
  18              		.cfi_sections	.debug_frame
  19              		.section	.text._ZN10MotorClassC2Ev,"ax",%progbits
  20              		.align	2
  21              		.global	_ZN10MotorClassC2Ev
  22              		.thumb
  23              		.thumb_func
  24              		.type	_ZN10MotorClassC2Ev, %function
  25              	_ZN10MotorClassC2Ev:
  26              	.LFB64:
  27              		.file 1 "MotorClass.c"
   1:MotorClass.c  **** /* ========================================
   2:MotorClass.c  ****  *
   3:MotorClass.c  ****  * Copyright YOUR COMPANY, THE YEAR
   4:MotorClass.c  ****  * All Rights Reserved
   5:MotorClass.c  ****  * UNPUBLISHED, LICENSED SOFTWARE.
   6:MotorClass.c  ****  *
   7:MotorClass.c  ****  * CONFIDENTIAL AND PROPRIETARY INFORMATION
   8:MotorClass.c  ****  * WHICH IS THE PROPERTY OF your company.
   9:MotorClass.c  ****  *
  10:MotorClass.c  ****  * ========================================
  11:MotorClass.c  **** */
  12:MotorClass.c  **** 
  13:MotorClass.c  **** /* [] END OF FILE */
  14:MotorClass.c  **** 
  15:MotorClass.c  **** #include "MotorClass.h"
  16:MotorClass.c  **** 
  17:MotorClass.c  **** MotorClass::MotorClass()
  28              		.loc 1 17 0
  29              		.cfi_startproc
  30              		@ args = 0, pretend = 0, frame = 0
  31              		@ frame_needed = 0, uses_anonymous_args = 0
  32              		@ link register save eliminated.
  33              	.LVL0:
  34              	.LBB2:
  35              		.loc 1 17 0
  36 0000 0022     		movs	r2, #0
  37 0002 0260     		str	r2, [r0]
  38 0004 4260     		str	r2, [r0, #4]
  39 0006 0122     		movs	r2, #1
  40 0008 0272     		strb	r2, [r0, #8]
ARM GAS  C:\Users\jespe\AppData\Local\Temp\ccmuZa6J.s 			page 2


  41              	.LBE2:
  18:MotorClass.c  **** {
  19:MotorClass.c  ****     
  20:MotorClass.c  **** }
  42              		.loc 1 20 0
  43 000a 7047     		bx	lr
  44              		.cfi_endproc
  45              	.LFE64:
  46              		.size	_ZN10MotorClassC2Ev, .-_ZN10MotorClassC2Ev
  47              		.global	_ZN10MotorClassC1Ev
  48              		.thumb_set _ZN10MotorClassC1Ev,_ZN10MotorClassC2Ev
  49              		.section	.text._ZN10MotorClassD2Ev,"ax",%progbits
  50              		.align	2
  51              		.global	_ZN10MotorClassD2Ev
  52              		.thumb
  53              		.thumb_func
  54              		.type	_ZN10MotorClassD2Ev, %function
  55              	_ZN10MotorClassD2Ev:
  56              	.LFB67:
  21:MotorClass.c  **** 
  22:MotorClass.c  **** MotorClass::~MotorClass()
  57              		.loc 1 22 0
  58              		.cfi_startproc
  59              		@ args = 0, pretend = 0, frame = 0
  60              		@ frame_needed = 0, uses_anonymous_args = 0
  61              		@ link register save eliminated.
  62              	.LVL1:
  23:MotorClass.c  **** {
  24:MotorClass.c  **** }
  63              		.loc 1 24 0
  64 0000 7047     		bx	lr
  65              		.cfi_endproc
  66              	.LFE67:
  67              		.size	_ZN10MotorClassD2Ev, .-_ZN10MotorClassD2Ev
  68              		.global	_ZN10MotorClassD1Ev
  69              		.thumb_set _ZN10MotorClassD1Ev,_ZN10MotorClassD2Ev
  70 0002 00BF     		.section	.text._ZN10MotorClass10setLeftPWMEi,"ax",%progbits
  71              		.align	2
  72              		.global	_ZN10MotorClass10setLeftPWMEi
  73              		.thumb
  74              		.thumb_func
  75              		.type	_ZN10MotorClass10setLeftPWMEi, %function
  76              	_ZN10MotorClass10setLeftPWMEi:
  77              	.LFB72:
  25:MotorClass.c  **** 
  26:MotorClass.c  **** void MotorClass::GoForward(int pwm)
  27:MotorClass.c  **** {
  28:MotorClass.c  ****     setLeftPWM(pwm);
  29:MotorClass.c  ****     setRightPWM(pwm);
  30:MotorClass.c  ****     setDir(FORWARD);
  31:MotorClass.c  **** }
  32:MotorClass.c  ****     
  33:MotorClass.c  **** void MotorClass::GoBackward(int pwm)
  34:MotorClass.c  **** {
  35:MotorClass.c  ****     setLeftPWM(pwm);
  36:MotorClass.c  ****     setRightPWM(pwm);
  37:MotorClass.c  ****     setDir(BARCKWARD);
ARM GAS  C:\Users\jespe\AppData\Local\Temp\ccmuZa6J.s 			page 3


  38:MotorClass.c  **** }
  39:MotorClass.c  ****       
  40:MotorClass.c  **** void MotorClass::Turn(signed int pwm)
  41:MotorClass.c  **** {
  42:MotorClass.c  ****     if (pwm > 0)
  43:MotorClass.c  ****     {
  44:MotorClass.c  ****         if (Rightpwm_ > (100-pwm))
  45:MotorClass.c  ****         {
  46:MotorClass.c  ****             setLeftPWM(100-pwm);
  47:MotorClass.c  ****         }
  48:MotorClass.c  ****         setRightPWM(pwm+Rightpwm_);
  49:MotorClass.c  ****         setDir(FORWARD);
  50:MotorClass.c  ****     }
  51:MotorClass.c  ****     else if (pwm < 0)
  52:MotorClass.c  ****     {
  53:MotorClass.c  ****         if (Leftpwm_ > (100-pwm))
  54:MotorClass.c  ****         {
  55:MotorClass.c  ****             setRightPWM(100-pwm);
  56:MotorClass.c  ****         }
  57:MotorClass.c  ****         setLeftPWM(pwm+Leftpwm_);
  58:MotorClass.c  ****         setDir(FORWARD); 
  59:MotorClass.c  ****     }
  60:MotorClass.c  **** }
  61:MotorClass.c  ****       
  62:MotorClass.c  **** void MotorClass::setLeftPWM(int pwm)
  63:MotorClass.c  **** {
  78              		.loc 1 63 0
  79              		.cfi_startproc
  80              		@ args = 0, pretend = 0, frame = 0
  81              		@ frame_needed = 0, uses_anonymous_args = 0
  82              	.LVL2:
  83 0000 08B5     		push	{r3, lr}
  84              		.cfi_def_cfa_offset 8
  85              		.cfi_offset 3, -8
  86              		.cfi_offset 14, -4
  64:MotorClass.c  ****     Leftpwm_ = pwm;
  87              		.loc 1 64 0
  88 0002 0160     		str	r1, [r0]
  65:MotorClass.c  ****     PWM_1_WriteCompare1(pwm);
  89              		.loc 1 65 0
  90 0004 C8B2     		uxtb	r0, r1
  91              	.LVL3:
  92 0006 FFF7FEFF 		bl	PWM_1_WriteCompare1
  93              	.LVL4:
  94 000a 08BD     		pop	{r3, pc}
  95              		.cfi_endproc
  96              	.LFE72:
  97              		.size	_ZN10MotorClass10setLeftPWMEi, .-_ZN10MotorClass10setLeftPWMEi
  98              		.section	.text._ZNK10MotorClass10getLeftPWMEv,"ax",%progbits
  99              		.align	2
 100              		.global	_ZNK10MotorClass10getLeftPWMEv
 101              		.thumb
 102              		.thumb_func
 103              		.type	_ZNK10MotorClass10getLeftPWMEv, %function
 104              	_ZNK10MotorClass10getLeftPWMEv:
 105              	.LFB73:
  66:MotorClass.c  **** }
ARM GAS  C:\Users\jespe\AppData\Local\Temp\ccmuZa6J.s 			page 4


  67:MotorClass.c  ****       
  68:MotorClass.c  **** int MotorClass::getLeftPWM(void) const
  69:MotorClass.c  **** {
 106              		.loc 1 69 0
 107              		.cfi_startproc
 108              		@ args = 0, pretend = 0, frame = 0
 109              		@ frame_needed = 0, uses_anonymous_args = 0
 110              		@ link register save eliminated.
 111              	.LVL5:
  70:MotorClass.c  ****     return Leftpwm_;
  71:MotorClass.c  **** }
 112              		.loc 1 71 0
 113 0000 0068     		ldr	r0, [r0]
 114              	.LVL6:
 115 0002 7047     		bx	lr
 116              		.cfi_endproc
 117              	.LFE73:
 118              		.size	_ZNK10MotorClass10getLeftPWMEv, .-_ZNK10MotorClass10getLeftPWMEv
 119              		.section	.text._ZN10MotorClass11setRightPWMEi,"ax",%progbits
 120              		.align	2
 121              		.global	_ZN10MotorClass11setRightPWMEi
 122              		.thumb
 123              		.thumb_func
 124              		.type	_ZN10MotorClass11setRightPWMEi, %function
 125              	_ZN10MotorClass11setRightPWMEi:
 126              	.LFB74:
  72:MotorClass.c  ****     
  73:MotorClass.c  **** void MotorClass::setRightPWM(int pwm)
  74:MotorClass.c  **** {
 127              		.loc 1 74 0
 128              		.cfi_startproc
 129              		@ args = 0, pretend = 0, frame = 0
 130              		@ frame_needed = 0, uses_anonymous_args = 0
 131              	.LVL7:
 132 0000 08B5     		push	{r3, lr}
 133              		.cfi_def_cfa_offset 8
 134              		.cfi_offset 3, -8
 135              		.cfi_offset 14, -4
  75:MotorClass.c  ****     Leftpwm_ = pwm;
 136              		.loc 1 75 0
 137 0002 0160     		str	r1, [r0]
  76:MotorClass.c  ****     PWM_1_WriteCompare2(pwm);
 138              		.loc 1 76 0
 139 0004 C8B2     		uxtb	r0, r1
 140              	.LVL8:
 141 0006 FFF7FEFF 		bl	PWM_1_WriteCompare2
 142              	.LVL9:
 143 000a 08BD     		pop	{r3, pc}
 144              		.cfi_endproc
 145              	.LFE74:
 146              		.size	_ZN10MotorClass11setRightPWMEi, .-_ZN10MotorClass11setRightPWMEi
 147              		.section	.text._ZNK10MotorClass11getRightPWMEv,"ax",%progbits
 148              		.align	2
 149              		.global	_ZNK10MotorClass11getRightPWMEv
 150              		.thumb
 151              		.thumb_func
 152              		.type	_ZNK10MotorClass11getRightPWMEv, %function
ARM GAS  C:\Users\jespe\AppData\Local\Temp\ccmuZa6J.s 			page 5


 153              	_ZNK10MotorClass11getRightPWMEv:
 154              	.LFB75:
  77:MotorClass.c  **** }
  78:MotorClass.c  ****       
  79:MotorClass.c  **** int MotorClass::getRightPWM(void) const
  80:MotorClass.c  **** {
 155              		.loc 1 80 0
 156              		.cfi_startproc
 157              		@ args = 0, pretend = 0, frame = 0
 158              		@ frame_needed = 0, uses_anonymous_args = 0
 159              		@ link register save eliminated.
 160              	.LVL10:
  81:MotorClass.c  ****     return Leftpwm_;
  82:MotorClass.c  **** }
 161              		.loc 1 82 0
 162 0000 0068     		ldr	r0, [r0]
 163              	.LVL11:
 164 0002 7047     		bx	lr
 165              		.cfi_endproc
 166              	.LFE75:
 167              		.size	_ZNK10MotorClass11getRightPWMEv, .-_ZNK10MotorClass11getRightPWMEv
 168              		.section	.text._ZN10MotorClass6setDirEb,"ax",%progbits
 169              		.align	2
 170              		.global	_ZN10MotorClass6setDirEb
 171              		.thumb
 172              		.thumb_func
 173              		.type	_ZN10MotorClass6setDirEb, %function
 174              	_ZN10MotorClass6setDirEb:
 175              	.LFB76:
  83:MotorClass.c  ****       
  84:MotorClass.c  **** void MotorClass::setDir(bool dir)
  85:MotorClass.c  **** {
 176              		.loc 1 85 0
 177              		.cfi_startproc
 178              		@ args = 0, pretend = 0, frame = 0
 179              		@ frame_needed = 0, uses_anonymous_args = 0
 180              	.LVL12:
 181 0000 10B5     		push	{r4, lr}
 182              		.cfi_def_cfa_offset 8
 183              		.cfi_offset 4, -8
 184              		.cfi_offset 14, -4
 185 0002 0C46     		mov	r4, r1
  86:MotorClass.c  ****     direction_ = dir;
 186              		.loc 1 86 0
 187 0004 0172     		strb	r1, [r0, #8]
  87:MotorClass.c  ****     Pin_3_Write(dir);
 188              		.loc 1 87 0
 189 0006 0846     		mov	r0, r1
 190              	.LVL13:
 191 0008 FFF7FEFF 		bl	Pin_3_Write
 192              	.LVL14:
  88:MotorClass.c  ****     Pin_4_Write(!dir);
 193              		.loc 1 88 0
 194 000c 84F00100 		eor	r0, r4, #1
 195 0010 FFF7FEFF 		bl	Pin_4_Write
 196              	.LVL15:
 197 0014 10BD     		pop	{r4, pc}
ARM GAS  C:\Users\jespe\AppData\Local\Temp\ccmuZa6J.s 			page 6


 198              		.cfi_endproc
 199              	.LFE76:
 200              		.size	_ZN10MotorClass6setDirEb, .-_ZN10MotorClass6setDirEb
 201 0016 00BF     		.section	.text._ZN10MotorClass9GoForwardEi,"ax",%progbits
 202              		.align	2
 203              		.global	_ZN10MotorClass9GoForwardEi
 204              		.thumb
 205              		.thumb_func
 206              		.type	_ZN10MotorClass9GoForwardEi, %function
 207              	_ZN10MotorClass9GoForwardEi:
 208              	.LFB69:
  27:MotorClass.c  ****     setLeftPWM(pwm);
 209              		.loc 1 27 0
 210              		.cfi_startproc
 211              		@ args = 0, pretend = 0, frame = 0
 212              		@ frame_needed = 0, uses_anonymous_args = 0
 213              	.LVL16:
 214 0000 38B5     		push	{r3, r4, r5, lr}
 215              		.cfi_def_cfa_offset 16
 216              		.cfi_offset 3, -16
 217              		.cfi_offset 4, -12
 218              		.cfi_offset 5, -8
 219              		.cfi_offset 14, -4
 220 0002 0446     		mov	r4, r0
 221 0004 0D46     		mov	r5, r1
  28:MotorClass.c  ****     setRightPWM(pwm);
 222              		.loc 1 28 0
 223 0006 FFF7FEFF 		bl	_ZN10MotorClass10setLeftPWMEi
 224              	.LVL17:
  29:MotorClass.c  ****     setDir(FORWARD);
 225              		.loc 1 29 0
 226 000a 2946     		mov	r1, r5
 227 000c 2046     		mov	r0, r4
 228 000e FFF7FEFF 		bl	_ZN10MotorClass11setRightPWMEi
 229              	.LVL18:
  30:MotorClass.c  **** }
 230              		.loc 1 30 0
 231 0012 0121     		movs	r1, #1
 232 0014 2046     		mov	r0, r4
 233 0016 FFF7FEFF 		bl	_ZN10MotorClass6setDirEb
 234              	.LVL19:
 235 001a 38BD     		pop	{r3, r4, r5, pc}
 236              		.cfi_endproc
 237              	.LFE69:
 238              		.size	_ZN10MotorClass9GoForwardEi, .-_ZN10MotorClass9GoForwardEi
 239              		.section	.text._ZN10MotorClass10GoBackwardEi,"ax",%progbits
 240              		.align	2
 241              		.global	_ZN10MotorClass10GoBackwardEi
 242              		.thumb
 243              		.thumb_func
 244              		.type	_ZN10MotorClass10GoBackwardEi, %function
 245              	_ZN10MotorClass10GoBackwardEi:
 246              	.LFB70:
  34:MotorClass.c  ****     setLeftPWM(pwm);
 247              		.loc 1 34 0
 248              		.cfi_startproc
 249              		@ args = 0, pretend = 0, frame = 0
ARM GAS  C:\Users\jespe\AppData\Local\Temp\ccmuZa6J.s 			page 7


 250              		@ frame_needed = 0, uses_anonymous_args = 0
 251              	.LVL20:
 252 0000 38B5     		push	{r3, r4, r5, lr}
 253              		.cfi_def_cfa_offset 16
 254              		.cfi_offset 3, -16
 255              		.cfi_offset 4, -12
 256              		.cfi_offset 5, -8
 257              		.cfi_offset 14, -4
 258 0002 0446     		mov	r4, r0
 259 0004 0D46     		mov	r5, r1
  35:MotorClass.c  ****     setRightPWM(pwm);
 260              		.loc 1 35 0
 261 0006 FFF7FEFF 		bl	_ZN10MotorClass10setLeftPWMEi
 262              	.LVL21:
  36:MotorClass.c  ****     setDir(BARCKWARD);
 263              		.loc 1 36 0
 264 000a 2946     		mov	r1, r5
 265 000c 2046     		mov	r0, r4
 266 000e FFF7FEFF 		bl	_ZN10MotorClass11setRightPWMEi
 267              	.LVL22:
  37:MotorClass.c  **** }
 268              		.loc 1 37 0
 269 0012 0021     		movs	r1, #0
 270 0014 2046     		mov	r0, r4
 271 0016 FFF7FEFF 		bl	_ZN10MotorClass6setDirEb
 272              	.LVL23:
 273 001a 38BD     		pop	{r3, r4, r5, pc}
 274              		.cfi_endproc
 275              	.LFE70:
 276              		.size	_ZN10MotorClass10GoBackwardEi, .-_ZN10MotorClass10GoBackwardEi
 277              		.section	.text._ZN10MotorClass4TurnEi,"ax",%progbits
 278              		.align	2
 279              		.global	_ZN10MotorClass4TurnEi
 280              		.thumb
 281              		.thumb_func
 282              		.type	_ZN10MotorClass4TurnEi, %function
 283              	_ZN10MotorClass4TurnEi:
 284              	.LFB71:
  41:MotorClass.c  ****     if (pwm > 0)
 285              		.loc 1 41 0
 286              		.cfi_startproc
 287              		@ args = 0, pretend = 0, frame = 0
 288              		@ frame_needed = 0, uses_anonymous_args = 0
 289              	.LVL24:
 290 0000 38B5     		push	{r3, r4, r5, lr}
 291              		.cfi_def_cfa_offset 16
 292              		.cfi_offset 3, -16
 293              		.cfi_offset 4, -12
 294              		.cfi_offset 5, -8
 295              		.cfi_offset 14, -4
 296 0002 0446     		mov	r4, r0
  42:MotorClass.c  ****     {
 297              		.loc 1 42 0
 298 0004 0D1E     		subs	r5, r1, #0
 299 0006 10DD     		ble	.L16
  44:MotorClass.c  ****         {
 300              		.loc 1 44 0
ARM GAS  C:\Users\jespe\AppData\Local\Temp\ccmuZa6J.s 			page 8


 301 0008 4368     		ldr	r3, [r0, #4]
 302 000a C5F16401 		rsb	r1, r5, #100
 303              	.LVL25:
 304 000e 8B42     		cmp	r3, r1
 305 0010 01DD     		ble	.L17
  46:MotorClass.c  ****         }
 306              		.loc 1 46 0
 307 0012 FFF7FEFF 		bl	_ZN10MotorClass10setLeftPWMEi
 308              	.LVL26:
 309              	.L17:
  48:MotorClass.c  ****         setDir(FORWARD);
 310              		.loc 1 48 0
 311 0016 6168     		ldr	r1, [r4, #4]
 312 0018 2944     		add	r1, r1, r5
 313 001a 2046     		mov	r0, r4
 314 001c FFF7FEFF 		bl	_ZN10MotorClass11setRightPWMEi
 315              	.LVL27:
  49:MotorClass.c  ****     }
 316              		.loc 1 49 0
 317 0020 0121     		movs	r1, #1
 318 0022 2046     		mov	r0, r4
 319 0024 FFF7FEFF 		bl	_ZN10MotorClass6setDirEb
 320              	.LVL28:
 321 0028 38BD     		pop	{r3, r4, r5, pc}
 322              	.LVL29:
 323              	.L16:
  51:MotorClass.c  ****     {
 324              		.loc 1 51 0
 325 002a 002D     		cmp	r5, #0
 326 002c 0FDA     		bge	.L15
  53:MotorClass.c  ****         {
 327              		.loc 1 53 0
 328 002e 0368     		ldr	r3, [r0]
 329 0030 C5F16401 		rsb	r1, r5, #100
 330              	.LVL30:
 331 0034 8B42     		cmp	r3, r1
 332 0036 01DD     		ble	.L19
  55:MotorClass.c  ****         }
 333              		.loc 1 55 0
 334 0038 FFF7FEFF 		bl	_ZN10MotorClass11setRightPWMEi
 335              	.LVL31:
 336              	.L19:
  57:MotorClass.c  ****         setDir(FORWARD); 
 337              		.loc 1 57 0
 338 003c 2168     		ldr	r1, [r4]
 339 003e 2944     		add	r1, r1, r5
 340 0040 2046     		mov	r0, r4
 341 0042 FFF7FEFF 		bl	_ZN10MotorClass10setLeftPWMEi
 342              	.LVL32:
  58:MotorClass.c  ****     }
 343              		.loc 1 58 0
 344 0046 0121     		movs	r1, #1
 345 0048 2046     		mov	r0, r4
 346 004a FFF7FEFF 		bl	_ZN10MotorClass6setDirEb
 347              	.LVL33:
 348              	.L15:
 349 004e 38BD     		pop	{r3, r4, r5, pc}
ARM GAS  C:\Users\jespe\AppData\Local\Temp\ccmuZa6J.s 			page 9


 350              		.cfi_endproc
 351              	.LFE71:
 352              		.size	_ZN10MotorClass4TurnEi, .-_ZN10MotorClass4TurnEi
 353              		.section	.text._ZNK10MotorClass6getDirEv,"ax",%progbits
 354              		.align	2
 355              		.global	_ZNK10MotorClass6getDirEv
 356              		.thumb
 357              		.thumb_func
 358              		.type	_ZNK10MotorClass6getDirEv, %function
 359              	_ZNK10MotorClass6getDirEv:
 360              	.LFB77:
  89:MotorClass.c  **** }
  90:MotorClass.c  ****       
  91:MotorClass.c  **** bool MotorClass::getDir(void) const
  92:MotorClass.c  **** {
 361              		.loc 1 92 0
 362              		.cfi_startproc
 363              		@ args = 0, pretend = 0, frame = 0
 364              		@ frame_needed = 0, uses_anonymous_args = 0
 365              		@ link register save eliminated.
 366              	.LVL34:
  93:MotorClass.c  ****     return direction_;
  94:MotorClass.c  **** }...
 367              		.loc 1 94 0
 368 0000 007A     		ldrb	r0, [r0, #8]	@ zero_extendqisi2
 369              	.LVL35:
 370 0002 7047     		bx	lr
 371              		.cfi_endproc
 372              	.LFE77:
 373              		.size	_ZNK10MotorClass6getDirEv, .-_ZNK10MotorClass6getDirEv
 374              		.text
 375              	.Letext0:
 376              		.file 2 "c:\\program files (x86)\\cypress\\psoc creator\\4.2\\psoc creator\\import\\gnu\\arm\\5.4.
 377              		.file 3 "c:\\program files (x86)\\cypress\\psoc creator\\4.2\\psoc creator\\import\\gnu\\arm\\5.4.
 378              		.file 4 "MotorClass.h"
 379              		.file 5 "Generated_Source\\PSoC5/PWM_1.h"
 380              		.file 6 "Generated_Source\\PSoC5/Pin_3.h"
 381              		.file 7 "Generated_Source\\PSoC5/Pin_4.h"
 382              		.file 8 "Generated_Source\\PSoC5/core_cm3.h"