ARM GAS  C:\Users\jespe\AppData\Local\Temp\cc4C88bN.s 			page 1


   1              		.syntax unified
   2              		.cpu cortex-m3
   3              		.fpu softvfp
   4              		.eabi_attribute 20, 1
   5              		.eabi_attribute 21, 1
   6              		.eabi_attribute 23, 3
   7              		.eabi_attribute 24, 1
   8              		.eabi_attribute 25, 1
   9              		.eabi_attribute 26, 1
  10              		.eabi_attribute 30, 1
  11              		.eabi_attribute 34, 1
  12              		.eabi_attribute 18, 4
  13              		.thumb
  14              		.syntax unified
  15              		.file	"PIDcontroller.c"
  16              		.text
  17              	.Ltext0:
  18              		.cfi_sections	.debug_frame
  19              		.section	.text._ZN13PIDcontrollerC2Effff,"ax",%progbits
  20              		.align	2
  21              		.global	_ZN13PIDcontrollerC2Effff
  22              		.thumb
  23              		.thumb_func
  24              		.type	_ZN13PIDcontrollerC2Effff, %function
  25              	_ZN13PIDcontrollerC2Effff:
  26              	.LFB64:
  27              		.file 1 "PIDcontroller.c"
   1:PIDcontroller.c **** /* ========================================
   2:PIDcontroller.c ****  *
   3:PIDcontroller.c ****  * Copyright YOUR COMPANY, THE YEAR
   4:PIDcontroller.c ****  * All Rights Reserved
   5:PIDcontroller.c ****  * UNPUBLISHED, LICENSED SOFTWARE.
   6:PIDcontroller.c ****  *
   7:PIDcontroller.c ****  * CONFIDENTIAL AND PROPRIETARY INFORMATION
   8:PIDcontroller.c ****  * WHICH IS THE PROPERTY OF your company.
   9:PIDcontroller.c ****  *
  10:PIDcontroller.c ****  * ========================================
  11:PIDcontroller.c **** */
  12:PIDcontroller.c **** 
  13:PIDcontroller.c **** /* [] END OF FILE */
  14:PIDcontroller.c **** 
  15:PIDcontroller.c **** #include "PIDcontroller.h"
  16:PIDcontroller.c **** 
  17:PIDcontroller.c **** PIDcontroller::PIDcontroller(float P, float I, float D, float goal)
  28              		.loc 1 17 0
  29              		.cfi_startproc
  30              		@ args = 4, pretend = 0, frame = 0
  31              		@ frame_needed = 0, uses_anonymous_args = 0
  32              		@ link register save eliminated.
  33              	.LVL0:
  34 0000 30B4     		push	{r4, r5}
  35              		.cfi_def_cfa_offset 8
  36              		.cfi_offset 4, -8
  37              		.cfi_offset 5, -4
  38              	.LBB2:
  39              		.loc 1 17 0
  40 0002 0025     		movs	r5, #0
ARM GAS  C:\Users\jespe\AppData\Local\Temp\cc4C88bN.s 			page 2


  41 0004 0561     		str	r5, [r0, #16]	@ float
  42 0006 4561     		str	r5, [r0, #20]	@ float
  43 0008 8561     		str	r5, [r0, #24]	@ float
  44 000a C561     		str	r5, [r0, #28]	@ float
  45 000c 0562     		str	r5, [r0, #32]	@ float
  18:PIDcontroller.c **** {
  19:PIDcontroller.c ****     kp_ = P;
  46              		.loc 1 19 0
  47 000e 0160     		str	r1, [r0]	@ float
  20:PIDcontroller.c ****     ki_ = I;
  48              		.loc 1 20 0
  49 0010 4260     		str	r2, [r0, #4]	@ float
  21:PIDcontroller.c ****     kd_ = D;
  50              		.loc 1 21 0
  51 0012 8360     		str	r3, [r0, #8]	@ float
  22:PIDcontroller.c ****     goal_ = goal;
  52              		.loc 1 22 0
  53 0014 029B     		ldr	r3, [sp, #8]	@ float
  54              	.LVL1:
  55 0016 C360     		str	r3, [r0, #12]	@ float
  56              	.LBE2:
  23:PIDcontroller.c **** }
  57              		.loc 1 23 0
  58 0018 30BC     		pop	{r4, r5}
  59              		.cfi_restore 5
  60              		.cfi_restore 4
  61              		.cfi_def_cfa_offset 0
  62              	.LVL2:
  63 001a 7047     		bx	lr
  64              		.cfi_endproc
  65              	.LFE64:
  66              		.size	_ZN13PIDcontrollerC2Effff, .-_ZN13PIDcontrollerC2Effff
  67              		.global	_ZN13PIDcontrollerC1Effff
  68              		.thumb_set _ZN13PIDcontrollerC1Effff,_ZN13PIDcontrollerC2Effff
  69              		.section	.text._ZN13PIDcontrollerD2Ev,"ax",%progbits
  70              		.align	2
  71              		.global	_ZN13PIDcontrollerD2Ev
  72              		.thumb
  73              		.thumb_func
  74              		.type	_ZN13PIDcontrollerD2Ev, %function
  75              	_ZN13PIDcontrollerD2Ev:
  76              	.LFB67:
  24:PIDcontroller.c **** 
  25:PIDcontroller.c **** PIDcontroller::~PIDcontroller()
  77              		.loc 1 25 0
  78              		.cfi_startproc
  79              		@ args = 0, pretend = 0, frame = 0
  80              		@ frame_needed = 0, uses_anonymous_args = 0
  81              		@ link register save eliminated.
  82              	.LVL3:
  26:PIDcontroller.c **** {
  27:PIDcontroller.c **** }
  83              		.loc 1 27 0
  84 0000 7047     		bx	lr
  85              		.cfi_endproc
  86              	.LFE67:
  87              		.size	_ZN13PIDcontrollerD2Ev, .-_ZN13PIDcontrollerD2Ev
ARM GAS  C:\Users\jespe\AppData\Local\Temp\cc4C88bN.s 			page 3


  88              		.global	_ZN13PIDcontrollerD1Ev
  89              		.thumb_set _ZN13PIDcontrollerD1Ev,_ZN13PIDcontrollerD2Ev
  90 0002 00BF     		.section	.text._ZN13PIDcontroller7setGoalEf,"ax",%progbits
  91              		.align	2
  92              		.global	_ZN13PIDcontroller7setGoalEf
  93              		.thumb
  94              		.thumb_func
  95              		.type	_ZN13PIDcontroller7setGoalEf, %function
  96              	_ZN13PIDcontroller7setGoalEf:
  97              	.LFB69:
  28:PIDcontroller.c **** 
  29:PIDcontroller.c **** void PIDcontroller::setGoal(float goal)
  30:PIDcontroller.c **** {
  98              		.loc 1 30 0
  99              		.cfi_startproc
 100              		@ args = 0, pretend = 0, frame = 0
 101              		@ frame_needed = 0, uses_anonymous_args = 0
 102              		@ link register save eliminated.
 103              	.LVL4:
  31:PIDcontroller.c ****     goal_ = goal;
 104              		.loc 1 31 0
 105 0000 C160     		str	r1, [r0, #12]	@ float
 106 0002 7047     		bx	lr
 107              		.cfi_endproc
 108              	.LFE69:
 109              		.size	_ZN13PIDcontroller7setGoalEf, .-_ZN13PIDcontroller7setGoalEf
 110              		.section	.text._ZNK13PIDcontroller7getGoalEv,"ax",%progbits
 111              		.align	2
 112              		.global	_ZNK13PIDcontroller7getGoalEv
 113              		.thumb
 114              		.thumb_func
 115              		.type	_ZNK13PIDcontroller7getGoalEv, %function
 116              	_ZNK13PIDcontroller7getGoalEv:
 117              	.LFB70:
  32:PIDcontroller.c **** }
  33:PIDcontroller.c **** 
  34:PIDcontroller.c **** float PIDcontroller::getGoal(void) const
  35:PIDcontroller.c **** {
 118              		.loc 1 35 0
 119              		.cfi_startproc
 120              		@ args = 0, pretend = 0, frame = 0
 121              		@ frame_needed = 0, uses_anonymous_args = 0
 122              		@ link register save eliminated.
 123              	.LVL5:
  36:PIDcontroller.c ****     return goal_;
  37:PIDcontroller.c **** }
 124              		.loc 1 37 0
 125 0000 C068     		ldr	r0, [r0, #12]	@ float
 126              	.LVL6:
 127 0002 7047     		bx	lr
 128              		.cfi_endproc
 129              	.LFE70:
 130              		.size	_ZNK13PIDcontroller7getGoalEv, .-_ZNK13PIDcontroller7getGoalEv
 131              		.global	__aeabi_fsub
 132              		.section	.text._ZN13PIDcontroller14calculateErrorEf,"ax",%progbits
 133              		.align	2
 134              		.global	_ZN13PIDcontroller14calculateErrorEf
ARM GAS  C:\Users\jespe\AppData\Local\Temp\cc4C88bN.s 			page 4


 135              		.thumb
 136              		.thumb_func
 137              		.type	_ZN13PIDcontroller14calculateErrorEf, %function
 138              	_ZN13PIDcontroller14calculateErrorEf:
 139              	.LFB71:
  38:PIDcontroller.c **** 
  39:PIDcontroller.c **** void PIDcontroller::calculateError(float Signal)
  40:PIDcontroller.c **** {
 140              		.loc 1 40 0
 141              		.cfi_startproc
 142              		@ args = 0, pretend = 0, frame = 0
 143              		@ frame_needed = 0, uses_anonymous_args = 0
 144              	.LVL7:
 145 0000 10B5     		push	{r4, lr}
 146              		.cfi_def_cfa_offset 8
 147              		.cfi_offset 4, -8
 148              		.cfi_offset 14, -4
 149 0002 0446     		mov	r4, r0
  41:PIDcontroller.c ****     /*Calculate Error (P)*/
  42:PIDcontroller.c **** 	error_ = goal_ - Signal;
 150              		.loc 1 42 0
 151 0004 C068     		ldr	r0, [r0, #12]	@ float
 152              	.LVL8:
 153 0006 FFF7FEFF 		bl	__aeabi_fsub
 154              	.LVL9:
 155 000a 2061     		str	r0, [r4, #16]	@ float
 156 000c 10BD     		pop	{r4, pc}
 157              		.cfi_endproc
 158              	.LFE71:
 159              		.size	_ZN13PIDcontroller14calculateErrorEf, .-_ZN13PIDcontroller14calculateErrorEf
 160              		.global	__aeabi_fadd
 161              		.global	__aeabi_fmul
 162              		.global	__aeabi_fcmpgt
 163              		.global	__aeabi_fcmplt
 164              		.global	__aeabi_fcmpge
 165              		.global	__aeabi_f2iz
 166 000e 00BF     		.section	.text._ZN13PIDcontroller16calculateControlEP15MotorController,"ax",%progbits
 167              		.align	2
 168              		.global	_ZN13PIDcontroller16calculateControlEP15MotorController
 169              		.thumb
 170              		.thumb_func
 171              		.type	_ZN13PIDcontroller16calculateControlEP15MotorController, %function
 172              	_ZN13PIDcontroller16calculateControlEP15MotorController:
 173              	.LFB72:
  43:PIDcontroller.c **** }
  44:PIDcontroller.c **** 
  45:PIDcontroller.c **** float PIDcontroller::calculateControl(MotorController * MotorPtr)
  46:PIDcontroller.c **** {
 174              		.loc 1 46 0
 175              		.cfi_startproc
 176              		@ args = 0, pretend = 0, frame = 0
 177              		@ frame_needed = 0, uses_anonymous_args = 0
 178              	.LVL10:
 179 0000 2DE9F041 		push	{r4, r5, r6, r7, r8, lr}
 180              		.cfi_def_cfa_offset 24
 181              		.cfi_offset 4, -24
 182              		.cfi_offset 5, -20
ARM GAS  C:\Users\jespe\AppData\Local\Temp\cc4C88bN.s 			page 5


 183              		.cfi_offset 6, -16
 184              		.cfi_offset 7, -12
 185              		.cfi_offset 8, -8
 186              		.cfi_offset 14, -4
 187 0004 0446     		mov	r4, r0
 188 0006 8846     		mov	r8, r1
  47:PIDcontroller.c ****     /*Calculate integral (I)*/
  48:PIDcontroller.c **** 	integral_ += error_;
 189              		.loc 1 48 0
 190 0008 0569     		ldr	r5, [r0, #16]	@ float
 191 000a 8169     		ldr	r1, [r0, #24]	@ float
 192              	.LVL11:
 193 000c 2846     		mov	r0, r5
 194              	.LVL12:
 195 000e FFF7FEFF 		bl	__aeabi_fadd
 196              	.LVL13:
 197 0012 0746     		mov	r7, r0
 198 0014 A061     		str	r0, [r4, #24]	@ float
  49:PIDcontroller.c **** 
  50:PIDcontroller.c ****     /*Calculate the derivative (D)*/
  51:PIDcontroller.c **** 	derivative_ = error_ - last_error_;
 199              		.loc 1 51 0
 200 0016 6169     		ldr	r1, [r4, #20]	@ float
 201 0018 2846     		mov	r0, r5
 202 001a FFF7FEFF 		bl	__aeabi_fsub
 203              	.LVL14:
 204 001e 0646     		mov	r6, r0
 205 0020 E061     		str	r0, [r4, #28]	@ float
  52:PIDcontroller.c **** 
  53:PIDcontroller.c **** 	/*Calculate the control variable*/
  54:PIDcontroller.c **** 	control_ = (kp_*error_) + (ki_*integral_) + (kd_*derivative_);
 206              		.loc 1 54 0
 207 0022 2168     		ldr	r1, [r4]	@ float
 208 0024 2846     		mov	r0, r5
 209 0026 FFF7FEFF 		bl	__aeabi_fmul
 210              	.LVL15:
 211 002a 0546     		mov	r5, r0
 212 002c 6168     		ldr	r1, [r4, #4]	@ float
 213 002e 3846     		mov	r0, r7
 214 0030 FFF7FEFF 		bl	__aeabi_fmul
 215              	.LVL16:
 216 0034 0146     		mov	r1, r0
 217 0036 2846     		mov	r0, r5
 218 0038 FFF7FEFF 		bl	__aeabi_fadd
 219              	.LVL17:
 220 003c 0546     		mov	r5, r0
 221 003e A168     		ldr	r1, [r4, #8]	@ float
 222 0040 3046     		mov	r0, r6
 223 0042 FFF7FEFF 		bl	__aeabi_fmul
 224              	.LVL18:
 225 0046 0146     		mov	r1, r0
 226 0048 2846     		mov	r0, r5
 227 004a FFF7FEFF 		bl	__aeabi_fadd
 228              	.LVL19:
 229 004e 0546     		mov	r5, r0
 230 0050 2062     		str	r0, [r4, #32]	@ float
  55:PIDcontroller.c ****     
ARM GAS  C:\Users\jespe\AppData\Local\Temp\cc4C88bN.s 			page 6


  56:PIDcontroller.c ****     /*Limit control*/
  57:PIDcontroller.c **** 	if (control_ > 100) 
 231              		.loc 1 57 0
 232 0052 1349     		ldr	r1, .L22
 233 0054 FFF7FEFF 		bl	__aeabi_fcmpgt
 234              	.LVL20:
 235 0058 10B1     		cbz	r0, .L19
  58:PIDcontroller.c ****     {
  59:PIDcontroller.c ****         control_ = 100;
 236              		.loc 1 59 0
 237 005a 114B     		ldr	r3, .L22
 238 005c 2362     		str	r3, [r4, #32]	@ float
 239 005e 06E0     		b	.L11
 240              	.L19:
  60:PIDcontroller.c **** 	}
  61:PIDcontroller.c ****     else if (control_ < -100) 
 241              		.loc 1 61 0
 242 0060 1049     		ldr	r1, .L22+4
 243 0062 2846     		mov	r0, r5
 244 0064 FFF7FEFF 		bl	__aeabi_fcmplt
 245              	.LVL21:
 246 0068 08B1     		cbz	r0, .L11
  62:PIDcontroller.c ****     {
  63:PIDcontroller.c ****         control_ = -100;
 247              		.loc 1 63 0
 248 006a 0E4B     		ldr	r3, .L22+4
 249 006c 2362     		str	r3, [r4, #32]	@ float
 250              	.L11:
  64:PIDcontroller.c ****     }
  65:PIDcontroller.c ****     
  66:PIDcontroller.c ****     if (control_ >= 0)
 251              		.loc 1 66 0
 252 006e 256A     		ldr	r5, [r4, #32]	@ float
 253 0070 0021     		movs	r1, #0
 254 0072 2846     		mov	r0, r5
 255 0074 FFF7FEFF 		bl	__aeabi_fcmpge
 256              	.LVL22:
 257 0078 38B1     		cbz	r0, .L20
  67:PIDcontroller.c ****     {
  68:PIDcontroller.c ****         MotorPtr->GoForward(control_);
 258              		.loc 1 68 0
 259 007a 2846     		mov	r0, r5
 260 007c FFF7FEFF 		bl	__aeabi_f2iz
 261              	.LVL23:
 262 0080 0146     		mov	r1, r0
 263 0082 4046     		mov	r0, r8
 264 0084 FFF7FEFF 		bl	_ZN15MotorController9GoForwardEi
 265              	.LVL24:
 266 0088 07E0     		b	.L15
 267              	.L20:
  69:PIDcontroller.c ****     }
  70:PIDcontroller.c ****     else
  71:PIDcontroller.c ****     {
  72:PIDcontroller.c ****         MotorPtr->GoBackward(control_*-1);
 268              		.loc 1 72 0
 269 008a 05F10040 		add	r0, r5, #-2147483648
 270 008e FFF7FEFF 		bl	__aeabi_f2iz
ARM GAS  C:\Users\jespe\AppData\Local\Temp\cc4C88bN.s 			page 7


 271              	.LVL25:
 272 0092 0146     		mov	r1, r0
 273 0094 4046     		mov	r0, r8
 274 0096 FFF7FEFF 		bl	_ZN15MotorController10GoBackwardEi
 275              	.LVL26:
 276              	.L15:
  73:PIDcontroller.c ****     }
  74:PIDcontroller.c ****     
  75:PIDcontroller.c ****     return control_;
  76:PIDcontroller.c **** }...
 277              		.loc 1 76 0
 278 009a 206A     		ldr	r0, [r4, #32]	@ float
 279 009c BDE8F081 		pop	{r4, r5, r6, r7, r8, pc}
 280              	.LVL27:
 281              	.L23:
 282              		.align	2
 283              	.L22:
 284 00a0 0000C842 		.word	1120403456
 285 00a4 0000C8C2 		.word	-1027080192
 286              		.cfi_endproc
 287              	.LFE72:
 288              		.size	_ZN13PIDcontroller16calculateControlEP15MotorController, .-_ZN13PIDcontroller16calculateCont
 289              		.text
 290              	.Letext0:
 291              		.file 2 "c:\\program files (x86)\\cypress\\psoc creator\\4.2\\psoc creator\\import\\gnu\\arm\\5.4.
 292              		.file 3 "c:\\program files (x86)\\cypress\\psoc creator\\4.2\\psoc creator\\import\\gnu\\arm\\5.4.
 293              		.file 4 "MotorController.h"
 294              		.file 5 "PIDcontroller.h"
 295              		.file 6 "Generated_Source\\PSoC5/core_cm3.h"