ARM GAS  C:\Users\jespe\AppData\Local\Temp\ccXoMzHH.s 			page 1


   1              		.syntax unified
   2              		.cpu cortex-m3
   3              		.fpu softvfp
   4              		.eabi_attribute 20, 1
   5              		.eabi_attribute 21, 1
   6              		.eabi_attribute 23, 3
   7              		.eabi_attribute 24, 1
   8              		.eabi_attribute 25, 1
   9              		.eabi_attribute 26, 1
  10              		.eabi_attribute 30, 1
  11              		.eabi_attribute 34, 1
  12              		.eabi_attribute 18, 4
  13              		.thumb
  14              		.syntax unified
  15              		.file	"RpiSPI.c"
  16              		.text
  17              	.Ltext0:
  18              		.cfi_sections	.debug_frame
  19              		.section	.text._ZN6RpiSPIC2EP4GyroP15MotorController,"ax",%progbits
  20              		.align	2
  21              		.global	_ZN6RpiSPIC2EP4GyroP15MotorController
  22              		.thumb
  23              		.thumb_func
  24              		.type	_ZN6RpiSPIC2EP4GyroP15MotorController, %function
  25              	_ZN6RpiSPIC2EP4GyroP15MotorController:
  26              	.LFB70:
  27              		.file 1 "RpiSPI.c"
   1:RpiSPI.c      **** /* ========================================
   2:RpiSPI.c      ****  *
   3:RpiSPI.c      ****  * Copyright YOUR COMPANY, THE YEAR
   4:RpiSPI.c      ****  * All Rights Reserved
   5:RpiSPI.c      ****  * UNPUBLISHED, LICENSED SOFTWARE.
   6:RpiSPI.c      ****  *
   7:RpiSPI.c      ****  * CONFIDENTIAL AND PROPRIETARY INFORMATION
   8:RpiSPI.c      ****  * WHICH IS THE PROPERTY OF your company.
   9:RpiSPI.c      ****  *
  10:RpiSPI.c      ****  * ========================================
  11:RpiSPI.c      **** */
  12:RpiSPI.c      **** 
  13:RpiSPI.c      **** /* [] END OF FILE */
  14:RpiSPI.c      **** 
  15:RpiSPI.c      **** #include "RpiSPI.h"
  16:RpiSPI.c      **** 
  17:RpiSPI.c      **** extern uint8_t Mode;
  18:RpiSPI.c      **** enum State {Off = 0, Init = 1, Sleep = 2, Control = 3, Follow = 4, Fallen = 5};
  19:RpiSPI.c      **** 
  20:RpiSPI.c      **** RpiSPI::RpiSPI(Gyro * Gyro, MotorController * Motor)
  28              		.loc 1 20 0
  29              		.cfi_startproc
  30              		@ args = 0, pretend = 0, frame = 0
  31              		@ frame_needed = 0, uses_anonymous_args = 0
  32              	.LVL0:
  33 0000 10B5     		push	{r4, lr}
  34              		.cfi_def_cfa_offset 8
  35              		.cfi_offset 4, -8
  36              		.cfi_offset 14, -4
  37 0002 0446     		mov	r4, r0
ARM GAS  C:\Users\jespe\AppData\Local\Temp\ccXoMzHH.s 			page 2


  38              	.LBB2:
  39              		.loc 1 20 0
  40 0004 0020     		movs	r0, #0
  41              	.LVL1:
  42 0006 2070     		strb	r0, [r4]
  43 0008 E060     		str	r0, [r4, #12]
  21:RpiSPI.c      **** {
  22:RpiSPI.c      ****     MotorPtr_ = Motor;
  44              		.loc 1 22 0
  45 000a 6260     		str	r2, [r4, #4]
  23:RpiSPI.c      ****     GyroPtr_ = Gyro;
  46              		.loc 1 23 0
  47 000c A160     		str	r1, [r4, #8]
  24:RpiSPI.c      ****     SPIS_WriteTxDataZero(GyroState_);
  48              		.loc 1 24 0
  49 000e FFF7FEFF 		bl	SPIS_WriteTxDataZero
  50              	.LVL2:
  51              	.LBE2:
  25:RpiSPI.c      **** }
  52              		.loc 1 25 0
  53 0012 2046     		mov	r0, r4
  54 0014 10BD     		pop	{r4, pc}
  55              		.cfi_endproc
  56              	.LFE70:
  57              		.size	_ZN6RpiSPIC2EP4GyroP15MotorController, .-_ZN6RpiSPIC2EP4GyroP15MotorController
  58              		.global	_ZN6RpiSPIC1EP4GyroP15MotorController
  59              		.thumb_set _ZN6RpiSPIC1EP4GyroP15MotorController,_ZN6RpiSPIC2EP4GyroP15MotorController
  60 0016 00BF     		.section	.text._ZN6RpiSPID2Ev,"ax",%progbits
  61              		.align	2
  62              		.global	_ZN6RpiSPID2Ev
  63              		.thumb
  64              		.thumb_func
  65              		.type	_ZN6RpiSPID2Ev, %function
  66              	_ZN6RpiSPID2Ev:
  67              	.LFB73:
  26:RpiSPI.c      **** 
  27:RpiSPI.c      **** RpiSPI::~RpiSPI()
  68              		.loc 1 27 0
  69              		.cfi_startproc
  70              		@ args = 0, pretend = 0, frame = 0
  71              		@ frame_needed = 0, uses_anonymous_args = 0
  72              		@ link register save eliminated.
  73              	.LVL3:
  28:RpiSPI.c      **** {
  29:RpiSPI.c      ****     
  30:RpiSPI.c      **** }
  74              		.loc 1 30 0
  75 0000 7047     		bx	lr
  76              		.cfi_endproc
  77              	.LFE73:
  78              		.size	_ZN6RpiSPID2Ev, .-_ZN6RpiSPID2Ev
  79              		.global	_ZN6RpiSPID1Ev
  80              		.thumb_set _ZN6RpiSPID1Ev,_ZN6RpiSPID2Ev
  81 0002 00BF     		.section	.text._ZN6RpiSPI12TransmitDataEh,"ax",%progbits
  82              		.align	2
  83              		.global	_ZN6RpiSPI12TransmitDataEh
  84              		.thumb
ARM GAS  C:\Users\jespe\AppData\Local\Temp\ccXoMzHH.s 			page 3


  85              		.thumb_func
  86              		.type	_ZN6RpiSPI12TransmitDataEh, %function
  87              	_ZN6RpiSPI12TransmitDataEh:
  88              	.LFB75:
  31:RpiSPI.c      **** 
  32:RpiSPI.c      **** void RpiSPI::TransmitData(uint8_t Data)
  33:RpiSPI.c      **** {
  89              		.loc 1 33 0
  90              		.cfi_startproc
  91              		@ args = 0, pretend = 0, frame = 0
  92              		@ frame_needed = 0, uses_anonymous_args = 0
  93              	.LVL4:
  94 0000 10B5     		push	{r4, lr}
  95              		.cfi_def_cfa_offset 8
  96              		.cfi_offset 4, -8
  97              		.cfi_offset 14, -4
  98 0002 0C46     		mov	r4, r1
  34:RpiSPI.c      ****     SPIS_ClearTxBuffer();
  99              		.loc 1 34 0
 100 0004 FFF7FEFF 		bl	SPIS_ClearTxBuffer
 101              	.LVL5:
  35:RpiSPI.c      ****     SPIS_WriteTxData(Data);
 102              		.loc 1 35 0
 103 0008 2046     		mov	r0, r4
 104 000a FFF7FEFF 		bl	SPIS_WriteTxData
 105              	.LVL6:
 106 000e 10BD     		pop	{r4, pc}
 107              		.cfi_endproc
 108              	.LFE75:
 109              		.size	_ZN6RpiSPI12TransmitDataEh, .-_ZN6RpiSPI12TransmitDataEh
 110              		.section	.text._ZN6RpiSPI18handleByteReceivedEh,"ax",%progbits
 111              		.align	2
 112              		.global	_ZN6RpiSPI18handleByteReceivedEh
 113              		.thumb
 114              		.thumb_func
 115              		.type	_ZN6RpiSPI18handleByteReceivedEh, %function
 116              	_ZN6RpiSPI18handleByteReceivedEh:
 117              	.LFB77:
  36:RpiSPI.c      **** }
  37:RpiSPI.c      **** 
  38:RpiSPI.c      **** uint8_t RpiSPI::ReadData()
  39:RpiSPI.c      **** {
  40:RpiSPI.c      ****     if(SPIS_GetRxBufferSize() > 0)
  41:RpiSPI.c      ****     {
  42:RpiSPI.c      ****         uint8_t byteReceived = SPIS_ReadRxData();
  43:RpiSPI.c      ****         
  44:RpiSPI.c      ****         GyroState_ = GyroPtr_->hasFallen();
  45:RpiSPI.c      ****         if (GyroState_ == 1)
  46:RpiSPI.c      ****         {
  47:RpiSPI.c      ****             Mode = Fallen;
  48:RpiSPI.c      ****             TransmitData(Fallen);
  49:RpiSPI.c      ****         }
  50:RpiSPI.c      ****         else
  51:RpiSPI.c      ****         {
  52:RpiSPI.c      ****             Mode = Control;
  53:RpiSPI.c      ****             TransmitData(Mode);
  54:RpiSPI.c      ****         }
ARM GAS  C:\Users\jespe\AppData\Local\Temp\ccXoMzHH.s 			page 4


  55:RpiSPI.c      ****         
  56:RpiSPI.c      ****         return handleByteReceived(byteReceived);
  57:RpiSPI.c      ****     }
  58:RpiSPI.c      ****     return 0;
  59:RpiSPI.c      ****     
  60:RpiSPI.c      **** }
  61:RpiSPI.c      **** 
  62:RpiSPI.c      **** uint8_t RpiSPI::handleByteReceived(uint8_t byteReceived)
  63:RpiSPI.c      **** {
 118              		.loc 1 63 0
 119              		.cfi_startproc
 120              		@ args = 0, pretend = 0, frame = 0
 121              		@ frame_needed = 0, uses_anonymous_args = 0
 122              	.LVL7:
 123 0000 08B5     		push	{r3, lr}
 124              		.cfi_def_cfa_offset 8
 125              		.cfi_offset 3, -8
 126              		.cfi_offset 14, -4
  64:RpiSPI.c      ****     switch(byteReceived)
 127              		.loc 1 64 0
 128 0002 A1F16203 		sub	r3, r1, #98
 129 0006 102B     		cmp	r3, #16
 130 0008 35D8     		bhi	.L15
 131 000a DFE803F0 		tbb	[pc, r3]
 132              	.L9:
 133 000e 11       		.byte	(.L8-.L9)/2
 134 000f 2D       		.byte	(.L10-.L9)/2
 135 0010 34       		.byte	(.L15-.L9)/2
 136 0011 34       		.byte	(.L15-.L9)/2
 137 0012 09       		.byte	(.L11-.L9)/2
 138 0013 34       		.byte	(.L15-.L9)/2
 139 0014 34       		.byte	(.L15-.L9)/2
 140 0015 34       		.byte	(.L15-.L9)/2
 141 0016 34       		.byte	(.L15-.L9)/2
 142 0017 34       		.byte	(.L15-.L9)/2
 143 0018 19       		.byte	(.L12-.L9)/2
 144 0019 34       		.byte	(.L15-.L9)/2
 145 001a 34       		.byte	(.L15-.L9)/2
 146 001b 29       		.byte	(.L13-.L9)/2
 147 001c 34       		.byte	(.L15-.L9)/2
 148 001d 34       		.byte	(.L15-.L9)/2
 149 001e 21       		.byte	(.L14-.L9)/2
 150 001f 00       		.p2align 1
 151              	.L11:
  65:RpiSPI.c      ****     {
  66:RpiSPI.c      ****         case 'f' :
  67:RpiSPI.c      ****         {
  68:RpiSPI.c      ****             if (ControlModeActive == true)
 152              		.loc 1 68 0
 153 0020 0378     		ldrb	r3, [r0]	@ zero_extendqisi2
 154 0022 012B     		cmp	r3, #1
 155 0024 29D1     		bne	.L16
  69:RpiSPI.c      ****             {
  70:RpiSPI.c      ****                 MotorPtr_->Control(byteReceived);
 156              		.loc 1 70 0
 157 0026 4068     		ldr	r0, [r0, #4]
 158              	.LVL8:
ARM GAS  C:\Users\jespe\AppData\Local\Temp\ccXoMzHH.s 			page 5


 159 0028 FFF7FEFF 		bl	_ZN15MotorController7ControlEc
 160              	.LVL9:
  71:RpiSPI.c      ****             }
  72:RpiSPI.c      ****             return 0;
 161              		.loc 1 72 0
 162 002c 0020     		movs	r0, #0
 163 002e 08BD     		pop	{r3, pc}
 164              	.LVL10:
 165              	.L8:
  73:RpiSPI.c      ****         }
  74:RpiSPI.c      ****         break;
  75:RpiSPI.c      ****         case 'b' :
  76:RpiSPI.c      ****         {  
  77:RpiSPI.c      ****             if (ControlModeActive == true)
 166              		.loc 1 77 0
 167 0030 0378     		ldrb	r3, [r0]	@ zero_extendqisi2
 168 0032 012B     		cmp	r3, #1
 169 0034 23D1     		bne	.L17
  78:RpiSPI.c      ****             {
  79:RpiSPI.c      ****                 MotorPtr_->Control(byteReceived);
 170              		.loc 1 79 0
 171 0036 4068     		ldr	r0, [r0, #4]
 172              	.LVL11:
 173 0038 FFF7FEFF 		bl	_ZN15MotorController7ControlEc
 174              	.LVL12:
  80:RpiSPI.c      ****             }
  81:RpiSPI.c      ****             return 0;
 175              		.loc 1 81 0
 176 003c 0020     		movs	r0, #0
 177 003e 08BD     		pop	{r3, pc}
 178              	.LVL13:
 179              	.L12:
  82:RpiSPI.c      ****         }
  83:RpiSPI.c      ****         break;
  84:RpiSPI.c      ****         case 'l' :
  85:RpiSPI.c      ****         {
  86:RpiSPI.c      ****             if (ControlModeActive == true)
 180              		.loc 1 86 0
 181 0040 0378     		ldrb	r3, [r0]	@ zero_extendqisi2
 182 0042 012B     		cmp	r3, #1
 183 0044 1DD1     		bne	.L18
  87:RpiSPI.c      ****             {
  88:RpiSPI.c      ****                 MotorPtr_->Control(byteReceived);
 184              		.loc 1 88 0
 185 0046 4068     		ldr	r0, [r0, #4]
 186              	.LVL14:
 187 0048 FFF7FEFF 		bl	_ZN15MotorController7ControlEc
 188              	.LVL15:
  89:RpiSPI.c      ****             }
  90:RpiSPI.c      ****             return 0;
 189              		.loc 1 90 0
 190 004c 0020     		movs	r0, #0
 191 004e 08BD     		pop	{r3, pc}
 192              	.LVL16:
 193              	.L14:
  91:RpiSPI.c      ****         }
  92:RpiSPI.c      ****         break;
ARM GAS  C:\Users\jespe\AppData\Local\Temp\ccXoMzHH.s 			page 6


  93:RpiSPI.c      ****         case 'r' :
  94:RpiSPI.c      ****         {
  95:RpiSPI.c      ****             if (ControlModeActive == true)
 194              		.loc 1 95 0
 195 0050 0378     		ldrb	r3, [r0]	@ zero_extendqisi2
 196 0052 012B     		cmp	r3, #1
 197 0054 17D1     		bne	.L19
  96:RpiSPI.c      ****             {
  97:RpiSPI.c      ****                 MotorPtr_->Control(byteReceived);
 198              		.loc 1 97 0
 199 0056 4068     		ldr	r0, [r0, #4]
 200              	.LVL17:
 201 0058 FFF7FEFF 		bl	_ZN15MotorController7ControlEc
 202              	.LVL18:
  98:RpiSPI.c      ****             }
  99:RpiSPI.c      ****             return 0;
 203              		.loc 1 99 0
 204 005c 0020     		movs	r0, #0
 205 005e 08BD     		pop	{r3, pc}
 206              	.LVL19:
 207              	.L13:
 100:RpiSPI.c      ****         }
 101:RpiSPI.c      ****         break;
 102:RpiSPI.c      ****         case 'o' :
 103:RpiSPI.c      ****         {
 104:RpiSPI.c      ****             ControlModeActive = true;
 208              		.loc 1 104 0
 209 0060 0123     		movs	r3, #1
 210 0062 0370     		strb	r3, [r0]
 105:RpiSPI.c      ****             return 'o';
 211              		.loc 1 105 0
 212 0064 6F20     		movs	r0, #111
 213              	.LVL20:
 214 0066 08BD     		pop	{r3, pc}
 215              	.LVL21:
 216              	.L10:
 106:RpiSPI.c      ****         }
 107:RpiSPI.c      ****         break;
 108:RpiSPI.c      ****          case 'c' :
 109:RpiSPI.c      ****         {
 110:RpiSPI.c      ****             ControlModeActive = false;
 217              		.loc 1 110 0
 218 0068 0023     		movs	r3, #0
 219 006a 0370     		strb	r3, [r0]
 111:RpiSPI.c      ****             MotorPtr_->Stop();
 220              		.loc 1 111 0
 221 006c 4068     		ldr	r0, [r0, #4]
 222              	.LVL22:
 223 006e FFF7FEFF 		bl	_ZN15MotorController4StopEv
 224              	.LVL23:
 112:RpiSPI.c      ****             return 'c';
 225              		.loc 1 112 0
 226 0072 6320     		movs	r0, #99
 227 0074 08BD     		pop	{r3, pc}
 228              	.LVL24:
 229              	.L15:
 113:RpiSPI.c      ****         }
ARM GAS  C:\Users\jespe\AppData\Local\Temp\ccXoMzHH.s 			page 7


 114:RpiSPI.c      ****         break;        
 115:RpiSPI.c      ****         default :
 116:RpiSPI.c      ****         {
 117:RpiSPI.c      ****             return 0;
 230              		.loc 1 117 0
 231 0076 0020     		movs	r0, #0
 232              	.LVL25:
 233 0078 08BD     		pop	{r3, pc}
 234              	.LVL26:
 235              	.L16:
  72:RpiSPI.c      ****         }
 236              		.loc 1 72 0
 237 007a 0020     		movs	r0, #0
 238              	.LVL27:
 239 007c 08BD     		pop	{r3, pc}
 240              	.LVL28:
 241              	.L17:
  81:RpiSPI.c      ****         }
 242              		.loc 1 81 0
 243 007e 0020     		movs	r0, #0
 244              	.LVL29:
 245 0080 08BD     		pop	{r3, pc}
 246              	.LVL30:
 247              	.L18:
  90:RpiSPI.c      ****         }
 248              		.loc 1 90 0
 249 0082 0020     		movs	r0, #0
 250              	.LVL31:
 251 0084 08BD     		pop	{r3, pc}
 252              	.LVL32:
 253              	.L19:
  99:RpiSPI.c      ****         }
 254              		.loc 1 99 0
 255 0086 0020     		movs	r0, #0
 256              	.LVL33:
 118:RpiSPI.c      ****         }
 119:RpiSPI.c      ****         break;
 120:RpiSPI.c      ****     }
 121:RpiSPI.c      **** }
 257              		.loc 1 121 0
 258 0088 08BD     		pop	{r3, pc}
 259              		.cfi_endproc
 260              	.LFE77:
 261              		.size	_ZN6RpiSPI18handleByteReceivedEh, .-_ZN6RpiSPI18handleByteReceivedEh
 262 008a 00BF     		.section	.text._ZN6RpiSPI8ReadDataEv,"ax",%progbits
 263              		.align	2
 264              		.global	_ZN6RpiSPI8ReadDataEv
 265              		.thumb
 266              		.thumb_func
 267              		.type	_ZN6RpiSPI8ReadDataEv, %function
 268              	_ZN6RpiSPI8ReadDataEv:
 269              	.LFB76:
  39:RpiSPI.c      ****     if(SPIS_GetRxBufferSize() > 0)
 270              		.loc 1 39 0
 271              		.cfi_startproc
 272              		@ args = 0, pretend = 0, frame = 0
 273              		@ frame_needed = 0, uses_anonymous_args = 0
ARM GAS  C:\Users\jespe\AppData\Local\Temp\ccXoMzHH.s 			page 8


 274              	.LVL34:
 275 0000 38B5     		push	{r3, r4, r5, lr}
 276              		.cfi_def_cfa_offset 16
 277              		.cfi_offset 3, -16
 278              		.cfi_offset 4, -12
 279              		.cfi_offset 5, -8
 280              		.cfi_offset 14, -4
 281 0002 0446     		mov	r4, r0
 282              	.LBB3:
  40:RpiSPI.c      ****     {
 283              		.loc 1 40 0
 284 0004 FFF7FEFF 		bl	SPIS_GetRxBufferSize
 285              	.LVL35:
 286 0008 0346     		mov	r3, r0
 287 000a D0B1     		cbz	r0, .L22
 288              	.LBB4:
  42:RpiSPI.c      ****         
 289              		.loc 1 42 0
 290 000c FFF7FEFF 		bl	SPIS_ReadRxData
 291              	.LVL36:
 292 0010 0546     		mov	r5, r0
 293              	.LVL37:
  44:RpiSPI.c      ****         if (GyroState_ == 1)
 294              		.loc 1 44 0
 295 0012 A068     		ldr	r0, [r4, #8]
 296 0014 FFF7FEFF 		bl	_ZN4Gyro9hasFallenEv
 297              	.LVL38:
 298 0018 E060     		str	r0, [r4, #12]
  45:RpiSPI.c      ****         {
 299              		.loc 1 45 0
 300 001a 0128     		cmp	r0, #1
 301 001c 06D1     		bne	.L23
  47:RpiSPI.c      ****             TransmitData(Fallen);
 302              		.loc 1 47 0
 303 001e 0521     		movs	r1, #5
 304 0020 094B     		ldr	r3, .L26
 305 0022 1970     		strb	r1, [r3]
  48:RpiSPI.c      ****         }
 306              		.loc 1 48 0
 307 0024 2046     		mov	r0, r4
 308 0026 FFF7FEFF 		bl	_ZN6RpiSPI12TransmitDataEh
 309              	.LVL39:
 310 002a 05E0     		b	.L24
 311              	.L23:
  52:RpiSPI.c      ****             TransmitData(Mode);
 312              		.loc 1 52 0
 313 002c 0321     		movs	r1, #3
 314 002e 064B     		ldr	r3, .L26
 315 0030 1970     		strb	r1, [r3]
  53:RpiSPI.c      ****         }
 316              		.loc 1 53 0
 317 0032 2046     		mov	r0, r4
 318 0034 FFF7FEFF 		bl	_ZN6RpiSPI12TransmitDataEh
 319              	.LVL40:
 320              	.L24:
  56:RpiSPI.c      ****     }
 321              		.loc 1 56 0
ARM GAS  C:\Users\jespe\AppData\Local\Temp\ccXoMzHH.s 			page 9


 322 0038 2946     		mov	r1, r5
 323 003a 2046     		mov	r0, r4
 324 003c FFF7FEFF 		bl	_ZN6RpiSPI18handleByteReceivedEh
 325              	.LVL41:
 326 0040 0346     		mov	r3, r0
 327              	.LVL42:
 328              	.L22:
 329              	.LBE4:
 330              	.LBE3:
  60:RpiSPI.c      **** 
 331              		.loc 1 60 0
 332 0042 1846     		mov	r0, r3
 333 0044 38BD     		pop	{r3, r4, r5, pc}
 334              	.LVL43:
 335              	.L27:
 336 0046 00BF     		.align	2
 337              	.L26:
 338 0048 00000000 		.word	Mode
 339              		.cfi_endproc
 340              	.LFE76:
 341              		.size	_ZN6RpiSPI8ReadDataEv, .-_ZN6RpiSPI8ReadDataEv
 342              		.text
 343              	.Letext0:
 344              		.file 2 "c:\\program files (x86)\\cypress\\psoc creator\\4.2\\psoc creator\\import\\gnu\\arm\\5.4.
 345              		.file 3 "c:\\program files (x86)\\cypress\\psoc creator\\4.2\\psoc creator\\import\\gnu\\arm\\5.4.
 346              		.file 4 "MotorController.h"
 347              		.file 5 "i2c.h"
 348              		.file 6 "GyroDefs.h"
 349              		.file 7 "Gyro.h"
 350              		.file 8 "RpiSPI.h"
 351              		.file 9 "Generated_Source\\PSoC5/core_cm3.h"
 352              		.file 10 "Generated_Source\\PSoC5/SPIS.h"