ARM GAS  C:\Users\jespe\AppData\Local\Temp\ccdTcKPV.s 			page 1


   1              		.syntax unified
   2              		.cpu cortex-m3
   3              		.fpu softvfp
   4              		.eabi_attribute 20, 1
   5              		.eabi_attribute 21, 1
   6              		.eabi_attribute 23, 3
   7              		.eabi_attribute 24, 1
   8              		.eabi_attribute 25, 1
   9              		.eabi_attribute 26, 1
  10              		.eabi_attribute 30, 1
  11              		.eabi_attribute 34, 1
  12              		.eabi_attribute 18, 4
  13              		.thumb
  14              		.syntax unified
  15              		.file	"RpiUart.c"
  16              		.text
  17              	.Ltext0:
  18              		.cfi_sections	.debug_frame
  19              		.section	.text._ZN7RpiUartC2Ev,"ax",%progbits
  20              		.align	2
  21              		.global	_ZN7RpiUartC2Ev
  22              		.thumb
  23              		.thumb_func
  24              		.type	_ZN7RpiUartC2Ev, %function
  25              	_ZN7RpiUartC2Ev:
  26              	.LFB64:
  27              		.file 1 "RpiUart.c"
   1:RpiUart.c     **** /* ========================================
   2:RpiUart.c     ****  *
   3:RpiUart.c     ****  * Copyright YOUR COMPANY, THE YEAR
   4:RpiUart.c     ****  * All Rights Reserved
   5:RpiUart.c     ****  * UNPUBLISHED, LICENSED SOFTWARE.
   6:RpiUart.c     ****  *
   7:RpiUart.c     ****  * CONFIDENTIAL AND PROPRIETARY INFORMATION
   8:RpiUart.c     ****  * WHICH IS THE PROPERTY OF your company.
   9:RpiUart.c     ****  *
  10:RpiUart.c     ****  * ========================================
  11:RpiUart.c     **** */
  12:RpiUart.c     **** 
  13:RpiUart.c     **** /* [] END OF FILE */
  14:RpiUart.c     **** 
  15:RpiUart.c     **** #include "RpiUart.h"
  16:RpiUart.c     **** 
  17:RpiUart.c     **** RpiUart::RpiUart()
  28              		.loc 1 17 0
  29              		.cfi_startproc
  30              		@ args = 0, pretend = 0, frame = 0
  31              		@ frame_needed = 0, uses_anonymous_args = 0
  32              	.LVL0:
  33 0000 10B5     		push	{r4, lr}
  34              		.cfi_def_cfa_offset 8
  35              		.cfi_offset 4, -8
  36              		.cfi_offset 14, -4
  37 0002 0446     		mov	r4, r0
  38              	.LBB2:
  18:RpiUart.c     **** {
  19:RpiUart.c     ****     UART_1_Start();
ARM GAS  C:\Users\jespe\AppData\Local\Temp\ccdTcKPV.s 			page 2


  39              		.loc 1 19 0
  40 0004 FFF7FEFF 		bl	UART_1_Start
  41              	.LVL1:
  42              	.LBE2:
  20:RpiUart.c     **** }
  43              		.loc 1 20 0
  44 0008 2046     		mov	r0, r4
  45 000a 10BD     		pop	{r4, pc}
  46              		.cfi_endproc
  47              	.LFE64:
  48              		.size	_ZN7RpiUartC2Ev, .-_ZN7RpiUartC2Ev
  49              		.global	_ZN7RpiUartC1Ev
  50              		.thumb_set _ZN7RpiUartC1Ev,_ZN7RpiUartC2Ev
  51              		.section	.text._ZN7RpiUartD2Ev,"ax",%progbits
  52              		.align	2
  53              		.global	_ZN7RpiUartD2Ev
  54              		.thumb
  55              		.thumb_func
  56              		.type	_ZN7RpiUartD2Ev, %function
  57              	_ZN7RpiUartD2Ev:
  58              	.LFB67:
  21:RpiUart.c     **** 
  22:RpiUart.c     **** RpiUart::~RpiUart()
  59              		.loc 1 22 0
  60              		.cfi_startproc
  61              		@ args = 0, pretend = 0, frame = 0
  62              		@ frame_needed = 0, uses_anonymous_args = 0
  63              		@ link register save eliminated.
  64              	.LVL2:
  23:RpiUart.c     **** {
  24:RpiUart.c     ****     
  25:RpiUart.c     **** }
  65              		.loc 1 25 0
  66 0000 7047     		bx	lr
  67              		.cfi_endproc
  68              	.LFE67:
  69              		.size	_ZN7RpiUartD2Ev, .-_ZN7RpiUartD2Ev
  70              		.global	_ZN7RpiUartD1Ev
  71              		.thumb_set _ZN7RpiUartD1Ev,_ZN7RpiUartD2Ev
  72 0002 00BF     		.section	.text._ZN7RpiUart12TransmitDataEPhh,"ax",%progbits
  73              		.align	2
  74              		.global	_ZN7RpiUart12TransmitDataEPhh
  75              		.thumb
  76              		.thumb_func
  77              		.type	_ZN7RpiUart12TransmitDataEPhh, %function
  78              	_ZN7RpiUart12TransmitDataEPhh:
  79              	.LFB69:
  26:RpiUart.c     **** 
  27:RpiUart.c     **** void RpiUart::TransmitData(uint8_t data[], uint8_t size)
  28:RpiUart.c     **** {
  80              		.loc 1 28 0
  81              		.cfi_startproc
  82              		@ args = 0, pretend = 0, frame = 0
  83              		@ frame_needed = 0, uses_anonymous_args = 0
  84              	.LVL3:
  85 0000 70B5     		push	{r4, r5, r6, lr}
  86              		.cfi_def_cfa_offset 16
ARM GAS  C:\Users\jespe\AppData\Local\Temp\ccdTcKPV.s 			page 3


  87              		.cfi_offset 4, -16
  88              		.cfi_offset 5, -12
  89              		.cfi_offset 6, -8
  90              		.cfi_offset 14, -4
  91 0002 0E46     		mov	r6, r1
  92 0004 1546     		mov	r5, r2
  93              	.LVL4:
  94              	.LBB3:
  29:RpiUart.c     ****     for (uint8_t i = 0; i <= size; i++)
  95              		.loc 1 29 0
  96 0006 0024     		movs	r4, #0
  97              	.LVL5:
  98              	.L6:
  99              		.loc 1 29 0 is_stmt 0 discriminator 3
 100 0008 AC42     		cmp	r4, r5
 101 000a 05D8     		bhi	.L4
  30:RpiUart.c     ****     {       
  31:RpiUart.c     ****         UART_1_PutChar(data[i]);
 102              		.loc 1 31 0 is_stmt 1 discriminator 2
 103 000c 305D     		ldrb	r0, [r6, r4]	@ zero_extendqisi2
 104 000e FFF7FEFF 		bl	UART_1_PutChar
 105              	.LVL6:
  29:RpiUart.c     ****     for (uint8_t i = 0; i <= size; i++)
 106              		.loc 1 29 0 discriminator 2
 107 0012 0134     		adds	r4, r4, #1
 108              	.LVL7:
 109 0014 E4B2     		uxtb	r4, r4
 110              	.LVL8:
 111 0016 F7E7     		b	.L6
 112              	.L4:
 113 0018 70BD     		pop	{r4, r5, r6, pc}
 114              	.LBE3:
 115              		.cfi_endproc
 116              	.LFE69:
 117              		.size	_ZN7RpiUart12TransmitDataEPhh, .-_ZN7RpiUart12TransmitDataEPhh
 118 001a 00BF     		.section	.text._ZN7RpiUart18handleByteReceivedEPhP15MotorController,"ax",%progbits
 119              		.align	2
 120              		.global	_ZN7RpiUart18handleByteReceivedEPhP15MotorController
 121              		.thumb
 122              		.thumb_func
 123              		.type	_ZN7RpiUart18handleByteReceivedEPhP15MotorController, %function
 124              	_ZN7RpiUart18handleByteReceivedEPhP15MotorController:
 125              	.LFB71:
  32:RpiUart.c     ****     }
  33:RpiUart.c     ****     
  34:RpiUart.c     **** }
  35:RpiUart.c     **** 
  36:RpiUart.c     **** void RpiUart::ReadData(MotorController * motorPtr)
  37:RpiUart.c     **** {
  38:RpiUart.c     ****     uint8_t DataLen = UART_1_GetRxBufferSize();
  39:RpiUart.c     ****      
  40:RpiUart.c     ****     if(DataLen > 1)
  41:RpiUart.c     ****     {
  42:RpiUart.c     ****         uint8_t byteReceived[DataLen];
  43:RpiUart.c     ****         for (uint8_t i = 0; i < DataLen; i++)         
  44:RpiUart.c     ****         {
  45:RpiUart.c     ****             byteReceived[i] = UART_1_ReadRxData();
ARM GAS  C:\Users\jespe\AppData\Local\Temp\ccdTcKPV.s 			page 4


  46:RpiUart.c     ****         }
  47:RpiUart.c     ****         handleByteReceived(byteReceived, motorPtr);
  48:RpiUart.c     ****     }
  49:RpiUart.c     **** }
  50:RpiUart.c     **** 
  51:RpiUart.c     **** void RpiUart::handleByteReceived(uint8_t byteReceived[], MotorController * MotorPtr)
  52:RpiUart.c     **** {
 126              		.loc 1 52 0
 127              		.cfi_startproc
 128              		@ args = 0, pretend = 0, frame = 0
 129              		@ frame_needed = 0, uses_anonymous_args = 0
 130              	.LVL9:
 131 0000 38B5     		push	{r3, r4, r5, lr}
 132              		.cfi_def_cfa_offset 16
 133              		.cfi_offset 3, -16
 134              		.cfi_offset 4, -12
 135              		.cfi_offset 5, -8
 136              		.cfi_offset 14, -4
 137 0002 0C46     		mov	r4, r1
 138 0004 1546     		mov	r5, r2
  53:RpiUart.c     ****     switch(byteReceived[0])
 139              		.loc 1 53 0
 140 0006 0B78     		ldrb	r3, [r1]	@ zero_extendqisi2
 141 0008 623B     		subs	r3, r3, #98
 142 000a 102B     		cmp	r3, #16
 143 000c 49D8     		bhi	.L8
 144 000e DFE803F0 		tbb	[pc, r3]
 145              	.LVL10:
 146              	.L11:
 147 0012 16       		.byte	(.L10-.L11)/2
 148 0013 48       		.byte	(.L8-.L11)/2
 149 0014 48       		.byte	(.L8-.L11)/2
 150 0015 48       		.byte	(.L8-.L11)/2
 151 0016 09       		.byte	(.L12-.L11)/2
 152 0017 48       		.byte	(.L8-.L11)/2
 153 0018 48       		.byte	(.L8-.L11)/2
 154 0019 48       		.byte	(.L8-.L11)/2
 155 001a 48       		.byte	(.L8-.L11)/2
 156 001b 48       		.byte	(.L8-.L11)/2
 157 001c 21       		.byte	(.L13-.L11)/2
 158 001d 48       		.byte	(.L8-.L11)/2
 159 001e 48       		.byte	(.L8-.L11)/2
 160 001f 48       		.byte	(.L8-.L11)/2
 161 0020 48       		.byte	(.L8-.L11)/2
 162 0021 48       		.byte	(.L8-.L11)/2
 163 0022 35       		.byte	(.L14-.L11)/2
 164 0023 00       		.p2align 1
 165              	.L12:
  54:RpiUart.c     ****     {
  55:RpiUart.c     ****         case 'f' :
  56:RpiUart.c     ****         {
  57:RpiUart.c     ****             MotorPtr->GoForward(byteReceived[1]);
 166              		.loc 1 57 0
 167 0024 4978     		ldrb	r1, [r1, #1]	@ zero_extendqisi2
 168              	.LVL11:
 169 0026 2846     		mov	r0, r5
 170              	.LVL12:
ARM GAS  C:\Users\jespe\AppData\Local\Temp\ccdTcKPV.s 			page 5


 171 0028 FFF7FEFF 		bl	_ZN15MotorController9GoForwardEi
 172              	.LVL13:
  58:RpiUart.c     ****             UART_1_PutString(" Going forward    ");
 173              		.loc 1 58 0
 174 002c 1D48     		ldr	r0, .L16
 175 002e FFF7FEFF 		bl	UART_1_PutString
 176              	.LVL14:
  59:RpiUart.c     ****             if (byteReceived[1] == 97)
 177              		.loc 1 59 0
 178 0032 6078     		ldrb	r0, [r4, #1]	@ zero_extendqisi2
 179 0034 6128     		cmp	r0, #97
 180 0036 34D1     		bne	.L8
  60:RpiUart.c     ****             {
  61:RpiUart.c     ****                  UART_1_PutChar(byteReceived[1]);
 181              		.loc 1 61 0
 182 0038 FFF7FEFF 		bl	UART_1_PutChar
 183              	.LVL15:
 184 003c 38BD     		pop	{r3, r4, r5, pc}
 185              	.LVL16:
 186              	.L10:
  62:RpiUart.c     ****             }
  63:RpiUart.c     ****         }
  64:RpiUart.c     ****         break;
  65:RpiUart.c     ****         case 'b' :
  66:RpiUart.c     ****         {
  67:RpiUart.c     ****             MotorPtr->GoBackward(byteReceived[1]);
 187              		.loc 1 67 0
 188 003e 4978     		ldrb	r1, [r1, #1]	@ zero_extendqisi2
 189              	.LVL17:
 190 0040 2846     		mov	r0, r5
 191              	.LVL18:
 192 0042 FFF7FEFF 		bl	_ZN15MotorController10GoBackwardEi
 193              	.LVL19:
  68:RpiUart.c     ****             UART_1_PutString("Going backward");
 194              		.loc 1 68 0
 195 0046 1848     		ldr	r0, .L16+4
 196 0048 FFF7FEFF 		bl	UART_1_PutString
 197              	.LVL20:
  69:RpiUart.c     ****             UART_1_PutChar(byteReceived[1]);
 198              		.loc 1 69 0
 199 004c 6078     		ldrb	r0, [r4, #1]	@ zero_extendqisi2
 200 004e FFF7FEFF 		bl	UART_1_PutChar
 201              	.LVL21:
  70:RpiUart.c     ****         }
  71:RpiUart.c     ****         break;
 202              		.loc 1 71 0
 203 0052 38BD     		pop	{r3, r4, r5, pc}
 204              	.LVL22:
 205              	.L13:
  72:RpiUart.c     ****         case 'l' :
  73:RpiUart.c     ****         {
  74:RpiUart.c     ****             MotorPtr->Turn(byteReceived[1], 'l');
 206              		.loc 1 74 0
 207 0054 6C22     		movs	r2, #108
 208 0056 4978     		ldrb	r1, [r1, #1]	@ zero_extendqisi2
 209              	.LVL23:
 210 0058 2846     		mov	r0, r5
ARM GAS  C:\Users\jespe\AppData\Local\Temp\ccdTcKPV.s 			page 6


 211              	.LVL24:
 212 005a FFF7FEFF 		bl	_ZN15MotorController4TurnEic
 213              	.LVL25:
  75:RpiUart.c     ****             CyDelay(500);
 214              		.loc 1 75 0
 215 005e 4FF4FA70 		mov	r0, #500
 216 0062 FFF7FEFF 		bl	CyDelay
 217              	.LVL26:
  76:RpiUart.c     ****             MotorPtr->GoForward(0);
 218              		.loc 1 76 0
 219 0066 0021     		movs	r1, #0
 220 0068 2846     		mov	r0, r5
 221 006a FFF7FEFF 		bl	_ZN15MotorController9GoForwardEi
 222              	.LVL27:
  77:RpiUart.c     ****             UART_1_PutString("Going left");
 223              		.loc 1 77 0
 224 006e 0F48     		ldr	r0, .L16+8
 225 0070 FFF7FEFF 		bl	UART_1_PutString
 226              	.LVL28:
  78:RpiUart.c     ****             UART_1_PutChar(byteReceived[1]);
 227              		.loc 1 78 0
 228 0074 6078     		ldrb	r0, [r4, #1]	@ zero_extendqisi2
 229 0076 FFF7FEFF 		bl	UART_1_PutChar
 230              	.LVL29:
  79:RpiUart.c     ****         }
  80:RpiUart.c     ****         break;
 231              		.loc 1 80 0
 232 007a 38BD     		pop	{r3, r4, r5, pc}
 233              	.LVL30:
 234              	.L14:
  81:RpiUart.c     ****         case 'r' :
  82:RpiUart.c     ****         {
  83:RpiUart.c     ****             MotorPtr->Turn(byteReceived[1], 'r');
 235              		.loc 1 83 0
 236 007c 7222     		movs	r2, #114
 237 007e 4978     		ldrb	r1, [r1, #1]	@ zero_extendqisi2
 238              	.LVL31:
 239 0080 2846     		mov	r0, r5
 240              	.LVL32:
 241 0082 FFF7FEFF 		bl	_ZN15MotorController4TurnEic
 242              	.LVL33:
  84:RpiUart.c     ****             CyDelay(500);
 243              		.loc 1 84 0
 244 0086 4FF4FA70 		mov	r0, #500
 245 008a FFF7FEFF 		bl	CyDelay
 246              	.LVL34:
  85:RpiUart.c     ****             MotorPtr->GoForward(0);
 247              		.loc 1 85 0
 248 008e 0021     		movs	r1, #0
 249 0090 2846     		mov	r0, r5
 250 0092 FFF7FEFF 		bl	_ZN15MotorController9GoForwardEi
 251              	.LVL35:
  86:RpiUart.c     ****             UART_1_PutString("Going right");
 252              		.loc 1 86 0
 253 0096 0648     		ldr	r0, .L16+12
 254 0098 FFF7FEFF 		bl	UART_1_PutString
 255              	.LVL36:
ARM GAS  C:\Users\jespe\AppData\Local\Temp\ccdTcKPV.s 			page 7


  87:RpiUart.c     ****             UART_1_PutChar(byteReceived[1]);
 256              		.loc 1 87 0
 257 009c 6078     		ldrb	r0, [r4, #1]	@ zero_extendqisi2
 258 009e FFF7FEFF 		bl	UART_1_PutChar
 259              	.LVL37:
 260              	.L8:
 261 00a2 38BD     		pop	{r3, r4, r5, pc}
 262              	.LVL38:
 263              	.L17:
 264              		.align	2
 265              	.L16:
 266 00a4 00000000 		.word	.LC0
 267 00a8 14000000 		.word	.LC1
 268 00ac 24000000 		.word	.LC2
 269 00b0 30000000 		.word	.LC3
 270              		.cfi_endproc
 271              	.LFE71:
 272              		.size	_ZN7RpiUart18handleByteReceivedEPhP15MotorController, .-_ZN7RpiUart18handleByteReceivedEPhP1
 273              		.section	.text._ZN7RpiUart8ReadDataEP15MotorController,"ax",%progbits
 274              		.align	2
 275              		.global	_ZN7RpiUart8ReadDataEP15MotorController
 276              		.thumb
 277              		.thumb_func
 278              		.type	_ZN7RpiUart8ReadDataEP15MotorController, %function
 279              	_ZN7RpiUart8ReadDataEP15MotorController:
 280              	.LFB70:
  37:RpiUart.c     ****     uint8_t DataLen = UART_1_GetRxBufferSize();
 281              		.loc 1 37 0
 282              		.cfi_startproc
 283              		@ args = 0, pretend = 0, frame = 0
 284              		@ frame_needed = 1, uses_anonymous_args = 0
 285              	.LVL39:
 286 0000 2DE9F047 		push	{r4, r5, r6, r7, r8, r9, r10, lr}
 287              		.cfi_def_cfa_offset 32
 288              		.cfi_offset 4, -32
 289              		.cfi_offset 5, -28
 290              		.cfi_offset 6, -24
 291              		.cfi_offset 7, -20
 292              		.cfi_offset 8, -16
 293              		.cfi_offset 9, -12
 294              		.cfi_offset 10, -8
 295              		.cfi_offset 14, -4
 296 0004 00AF     		add	r7, sp, #0
 297              		.cfi_def_cfa_register 7
 298 0006 8046     		mov	r8, r0
 299 0008 8946     		mov	r9, r1
  38:RpiUart.c     ****      
 300              		.loc 1 38 0
 301 000a FFF7FEFF 		bl	UART_1_GetRxBufferSize
 302              	.LVL40:
 303              	.LBB4:
  40:RpiUart.c     ****     {
 304              		.loc 1 40 0
 305 000e 0128     		cmp	r0, #1
 306 0010 16D9     		bls	.L18
 307 0012 0546     		mov	r5, r0
 308              	.LBB5:
ARM GAS  C:\Users\jespe\AppData\Local\Temp\ccdTcKPV.s 			page 8


  47:RpiUart.c     ****     }
 309              		.loc 1 47 0
 310 0014 EA46     		mov	r10, sp
 311              	.LVL41:
  42:RpiUart.c     ****         for (uint8_t i = 0; i < DataLen; i++)         
 312              		.loc 1 42 0
 313 0016 C31D     		adds	r3, r0, #7
 314 0018 23F00703 		bic	r3, r3, #7
 315 001c ADEB030D 		sub	sp, sp, r3
 316 0020 6E46     		mov	r6, sp
 317              	.LVL42:
 318              	.LBB6:
  43:RpiUart.c     ****         {
 319              		.loc 1 43 0
 320 0022 0024     		movs	r4, #0
 321              	.LVL43:
 322              	.L21:
  43:RpiUart.c     ****         {
 323              		.loc 1 43 0 is_stmt 0 discriminator 3
 324 0024 AC42     		cmp	r4, r5
 325 0026 05D2     		bcs	.L20
  45:RpiUart.c     ****         }
 326              		.loc 1 45 0 is_stmt 1 discriminator 2
 327 0028 FFF7FEFF 		bl	UART_1_ReadRxData
 328              	.LVL44:
 329 002c 3055     		strb	r0, [r6, r4]
  43:RpiUart.c     ****         {
 330              		.loc 1 43 0 discriminator 2
 331 002e 0134     		adds	r4, r4, #1
 332              	.LVL45:
 333 0030 E4B2     		uxtb	r4, r4
 334              	.LVL46:
 335 0032 F7E7     		b	.L21
 336              	.L20:
 337              	.LBE6:
  47:RpiUart.c     ****     }
 338              		.loc 1 47 0
 339 0034 4A46     		mov	r2, r9
 340 0036 3146     		mov	r1, r6
 341 0038 4046     		mov	r0, r8
 342 003a FFF7FEFF 		bl	_ZN7RpiUart18handleByteReceivedEPhP15MotorController
 343              	.LVL47:
 344 003e D546     		mov	sp, r10
 345              	.LVL48:
 346              	.L18:
 347              	.LBE5:
 348              	.LBE4:
  49:RpiUart.c     **** 
 349              		.loc 1 49 0
 350 0040 BD46     		mov	sp, r7
 351              		.cfi_def_cfa_register 13
 352              		@ sp needed
 353 0042 BDE8F087 		pop	{r4, r5, r6, r7, r8, r9, r10, pc}
 354              		.cfi_endproc
 355              	.LFE70:
 356              		.size	_ZN7RpiUart8ReadDataEP15MotorController, .-_ZN7RpiUart8ReadDataEP15MotorController
 357 0046 00BF     		.section	.rodata.str1.4,"aMS",%progbits,1
ARM GAS  C:\Users\jespe\AppData\Local\Temp\ccdTcKPV.s 			page 9


 358              		.align	2
 359              	.LC0:
 360 0000 20476F69 		.ascii	" Going forward    \000"
 360      6E672066 
 360      6F727761 
 360      72642020 
 360      202000
 361 0013 00       		.space	1
 362              	.LC1:
 363 0014 476F696E 		.ascii	"Going backward\000"
 363      67206261 
 363      636B7761 
 363      726400
 364 0023 00       		.space	1
 365              	.LC2:
 366 0024 476F696E 		.ascii	"Going left\000"
 366      67206C65 
 366      667400
 367 002f 00       		.space	1
 368              	.LC3:
 369 0030 476F696E 		.ascii	"Going right\000"
 369      67207269 
 369      67687400 
 370              		.text
 371              	.Letext0:
 372              		.file 2 "c:\\program files (x86)\\cypress\\psoc creator\\4.2\\psoc creator\\import\\gnu\\arm\\5.4.
 373              		.file 3 "c:\\program files (x86)\\cypress\\psoc creator\\4.2\\psoc creator\\import\\gnu\\arm\\5.4.
 374              		.file 4 "MotorController.h"
 375              		.file 5 "RpiUart.h"
 376              		.file 6 "Generated_Source\\PSoC5/UART_1.h"
 377              		.file 7 "Generated_Source\\PSoC5/CyLib.h"
 378              		.file 8 "Generated_Source\\PSoC5/core_cm3.h"