ARM GAS  C:\Users\jespe\AppData\Local\Temp\ccmtfbcw.s 			page 1


   1              		.syntax unified
   2              		.cpu cortex-m3
   3              		.fpu softvfp
   4              		.eabi_attribute 20, 1
   5              		.eabi_attribute 21, 1
   6              		.eabi_attribute 23, 3
   7              		.eabi_attribute 24, 1
   8              		.eabi_attribute 25, 1
   9              		.eabi_attribute 26, 1
  10              		.eabi_attribute 30, 1
  11              		.eabi_attribute 34, 1
  12              		.eabi_attribute 18, 4
  13              		.thumb
  14              		.syntax unified
  15              		.file	"RpiUartHandler.c"
  16              		.text
  17              	.Ltext0:
  18              		.cfi_sections	.debug_frame
  19              		.section	.text._ZN14RpiUartHandlerC2Ev,"ax",%progbits
  20              		.align	2
  21              		.global	_ZN14RpiUartHandlerC2Ev
  22              		.thumb
  23              		.thumb_func
  24              		.type	_ZN14RpiUartHandlerC2Ev, %function
  25              	_ZN14RpiUartHandlerC2Ev:
  26              	.LFB64:
  27              		.file 1 "RpiUartHandler.c"
   1:RpiUartHandler.c **** /* ========================================
   2:RpiUartHandler.c ****  *
   3:RpiUartHandler.c ****  * Copyright YOUR COMPANY, THE YEAR
   4:RpiUartHandler.c ****  * All Rights Reserved
   5:RpiUartHandler.c ****  * UNPUBLISHED, LICENSED SOFTWARE.
   6:RpiUartHandler.c ****  *
   7:RpiUartHandler.c ****  * CONFIDENTIAL AND PROPRIETARY INFORMATION
   8:RpiUartHandler.c ****  * WHICH IS THE PROPERTY OF your company.
   9:RpiUartHandler.c ****  *
  10:RpiUartHandler.c ****  * ========================================
  11:RpiUartHandler.c **** */
  12:RpiUartHandler.c **** 
  13:RpiUartHandler.c **** /* [] END OF FILE */
  14:RpiUartHandler.c **** 
  15:RpiUartHandler.c **** #include "RpiUartHandler.h"
  16:RpiUartHandler.c **** 
  17:RpiUartHandler.c **** extern int i;
  18:RpiUartHandler.c **** 
  19:RpiUartHandler.c **** RpiUartHandler::RpiUartHandler()
  28              		.loc 1 19 0
  29              		.cfi_startproc
  30              		@ args = 0, pretend = 0, frame = 0
  31              		@ frame_needed = 0, uses_anonymous_args = 0
  32              		@ link register save eliminated.
  33              	.LVL0:
  34              	.LBB2:
  35              		.loc 1 19 0
  36 0000 0022     		movs	r2, #0
  37 0002 0270     		strb	r2, [r0]
  38              	.LBE2:
ARM GAS  C:\Users\jespe\AppData\Local\Temp\ccmtfbcw.s 			page 2


  20:RpiUartHandler.c **** {
  21:RpiUartHandler.c ****     
  22:RpiUartHandler.c **** }
  39              		.loc 1 22 0
  40 0004 7047     		bx	lr
  41              		.cfi_endproc
  42              	.LFE64:
  43              		.size	_ZN14RpiUartHandlerC2Ev, .-_ZN14RpiUartHandlerC2Ev
  44              		.global	_ZN14RpiUartHandlerC1Ev
  45              		.thumb_set _ZN14RpiUartHandlerC1Ev,_ZN14RpiUartHandlerC2Ev
  46 0006 00BF     		.section	.text._ZN14RpiUartHandlerD2Ev,"ax",%progbits
  47              		.align	2
  48              		.global	_ZN14RpiUartHandlerD2Ev
  49              		.thumb
  50              		.thumb_func
  51              		.type	_ZN14RpiUartHandlerD2Ev, %function
  52              	_ZN14RpiUartHandlerD2Ev:
  53              	.LFB67:
  23:RpiUartHandler.c **** 
  24:RpiUartHandler.c **** RpiUartHandler::~RpiUartHandler()
  54              		.loc 1 24 0
  55              		.cfi_startproc
  56              		@ args = 0, pretend = 0, frame = 0
  57              		@ frame_needed = 0, uses_anonymous_args = 0
  58              		@ link register save eliminated.
  59              	.LVL1:
  25:RpiUartHandler.c **** {
  26:RpiUartHandler.c ****     
  27:RpiUartHandler.c **** }
  60              		.loc 1 27 0
  61 0000 7047     		bx	lr
  62              		.cfi_endproc
  63              	.LFE67:
  64              		.size	_ZN14RpiUartHandlerD2Ev, .-_ZN14RpiUartHandlerD2Ev
  65              		.global	_ZN14RpiUartHandlerD1Ev
  66              		.thumb_set _ZN14RpiUartHandlerD1Ev,_ZN14RpiUartHandlerD2Ev
  67 0002 00BF     		.section	.text._ZN14RpiUartHandler18handleByteReceivedEPhP15MotorController,"ax",%progbits
  68              		.align	2
  69              		.global	_ZN14RpiUartHandler18handleByteReceivedEPhP15MotorController
  70              		.thumb
  71              		.thumb_func
  72              		.type	_ZN14RpiUartHandler18handleByteReceivedEPhP15MotorController, %function
  73              	_ZN14RpiUartHandler18handleByteReceivedEPhP15MotorController:
  74              	.LFB70:
  28:RpiUartHandler.c **** 
  29:RpiUartHandler.c **** void RpiUartHandler::UARTreaddata(MotorController * motorPtr)
  30:RpiUartHandler.c **** {
  31:RpiUartHandler.c ****     uint8_t DataLen = UART_1_GetRxBufferSize();
  32:RpiUartHandler.c ****      
  33:RpiUartHandler.c ****     if(DataLen > 1)
  34:RpiUartHandler.c ****     {
  35:RpiUartHandler.c ****         uint8_t byteReceived[DataLen];
  36:RpiUartHandler.c ****         for (uint8_t i = 0; i < DataLen; i++)         
  37:RpiUartHandler.c ****         {
  38:RpiUartHandler.c ****             byteReceived[i] = UART_1_ReadRxData();
  39:RpiUartHandler.c ****         }
  40:RpiUartHandler.c ****         handleByteReceived(byteReceived, motorPtr);
ARM GAS  C:\Users\jespe\AppData\Local\Temp\ccmtfbcw.s 			page 3


  41:RpiUartHandler.c ****     }
  42:RpiUartHandler.c **** }
  43:RpiUartHandler.c **** 
  44:RpiUartHandler.c **** void RpiUartHandler::handleByteReceived(uint8_t byteReceived[], MotorController * MotorPtr)
  45:RpiUartHandler.c **** {
  75              		.loc 1 45 0
  76              		.cfi_startproc
  77              		@ args = 0, pretend = 0, frame = 0
  78              		@ frame_needed = 0, uses_anonymous_args = 0
  79              	.LVL2:
  80 0000 38B5     		push	{r3, r4, r5, lr}
  81              		.cfi_def_cfa_offset 16
  82              		.cfi_offset 3, -16
  83              		.cfi_offset 4, -12
  84              		.cfi_offset 5, -8
  85              		.cfi_offset 14, -4
  86 0002 0C46     		mov	r4, r1
  87 0004 1546     		mov	r5, r2
  46:RpiUartHandler.c ****     switch(byteReceived[0])
  88              		.loc 1 46 0
  89 0006 0B78     		ldrb	r3, [r1]	@ zero_extendqisi2
  90 0008 623B     		subs	r3, r3, #98
  91 000a 102B     		cmp	r3, #16
  92 000c 53D8     		bhi	.L3
  93 000e DFE803F0 		tbb	[pc, r3]
  94              	.LVL3:
  95              	.L6:
  96 0012 16       		.byte	(.L5-.L6)/2
  97 0013 52       		.byte	(.L3-.L6)/2
  98 0014 52       		.byte	(.L3-.L6)/2
  99 0015 52       		.byte	(.L3-.L6)/2
 100 0016 09       		.byte	(.L7-.L6)/2
 101 0017 52       		.byte	(.L3-.L6)/2
 102 0018 52       		.byte	(.L3-.L6)/2
 103 0019 49       		.byte	(.L8-.L6)/2
 104 001a 52       		.byte	(.L3-.L6)/2
 105 001b 4E       		.byte	(.L9-.L6)/2
 106 001c 21       		.byte	(.L10-.L6)/2
 107 001d 52       		.byte	(.L3-.L6)/2
 108 001e 52       		.byte	(.L3-.L6)/2
 109 001f 52       		.byte	(.L3-.L6)/2
 110 0020 52       		.byte	(.L3-.L6)/2
 111 0021 52       		.byte	(.L3-.L6)/2
 112 0022 35       		.byte	(.L11-.L6)/2
 113 0023 00       		.p2align 1
 114              	.L7:
  47:RpiUartHandler.c ****     {
  48:RpiUartHandler.c ****         case 'f' :
  49:RpiUartHandler.c ****         {
  50:RpiUartHandler.c ****             MotorPtr->GoForward(byteReceived[1]);
 115              		.loc 1 50 0
 116 0024 4978     		ldrb	r1, [r1, #1]	@ zero_extendqisi2
 117              	.LVL4:
 118 0026 2846     		mov	r0, r5
 119              	.LVL5:
 120 0028 FFF7FEFF 		bl	_ZN15MotorController9GoForwardEi
 121              	.LVL6:
ARM GAS  C:\Users\jespe\AppData\Local\Temp\ccmtfbcw.s 			page 4


  51:RpiUartHandler.c ****             UART_1_PutString(" Going forward    ");
 122              		.loc 1 51 0
 123 002c 2248     		ldr	r0, .L13
 124 002e FFF7FEFF 		bl	UART_1_PutString
 125              	.LVL7:
  52:RpiUartHandler.c ****             if (byteReceived[1] == 97)
 126              		.loc 1 52 0
 127 0032 6078     		ldrb	r0, [r4, #1]	@ zero_extendqisi2
 128 0034 6128     		cmp	r0, #97
 129 0036 3ED1     		bne	.L3
  53:RpiUartHandler.c ****             {
  54:RpiUartHandler.c ****                  UART_1_PutChar(byteReceived[1]);
 130              		.loc 1 54 0
 131 0038 FFF7FEFF 		bl	UART_1_PutChar
 132              	.LVL8:
 133 003c 38BD     		pop	{r3, r4, r5, pc}
 134              	.LVL9:
 135              	.L5:
  55:RpiUartHandler.c ****             }
  56:RpiUartHandler.c ****         }
  57:RpiUartHandler.c ****         break;
  58:RpiUartHandler.c ****         case 'b' :
  59:RpiUartHandler.c ****         {
  60:RpiUartHandler.c ****             MotorPtr->GoBackward(byteReceived[1]);
 136              		.loc 1 60 0
 137 003e 4978     		ldrb	r1, [r1, #1]	@ zero_extendqisi2
 138              	.LVL10:
 139 0040 2846     		mov	r0, r5
 140              	.LVL11:
 141 0042 FFF7FEFF 		bl	_ZN15MotorController10GoBackwardEi
 142              	.LVL12:
  61:RpiUartHandler.c ****             UART_1_PutString("Going backward");
 143              		.loc 1 61 0
 144 0046 1D48     		ldr	r0, .L13+4
 145 0048 FFF7FEFF 		bl	UART_1_PutString
 146              	.LVL13:
  62:RpiUartHandler.c ****             UART_1_PutChar(byteReceived[1]);
 147              		.loc 1 62 0
 148 004c 6078     		ldrb	r0, [r4, #1]	@ zero_extendqisi2
 149 004e FFF7FEFF 		bl	UART_1_PutChar
 150              	.LVL14:
  63:RpiUartHandler.c ****         }
  64:RpiUartHandler.c ****         break;
 151              		.loc 1 64 0
 152 0052 38BD     		pop	{r3, r4, r5, pc}
 153              	.LVL15:
 154              	.L10:
  65:RpiUartHandler.c ****         case 'l' :
  66:RpiUartHandler.c ****         {
  67:RpiUartHandler.c ****             MotorPtr->Turn(byteReceived[1], 'l');
 155              		.loc 1 67 0
 156 0054 6C22     		movs	r2, #108
 157 0056 4978     		ldrb	r1, [r1, #1]	@ zero_extendqisi2
 158              	.LVL16:
 159 0058 2846     		mov	r0, r5
 160              	.LVL17:
 161 005a FFF7FEFF 		bl	_ZN15MotorController4TurnEic
ARM GAS  C:\Users\jespe\AppData\Local\Temp\ccmtfbcw.s 			page 5


 162              	.LVL18:
  68:RpiUartHandler.c ****             CyDelay(500);
 163              		.loc 1 68 0
 164 005e 4FF4FA70 		mov	r0, #500
 165 0062 FFF7FEFF 		bl	CyDelay
 166              	.LVL19:
  69:RpiUartHandler.c ****             MotorPtr->GoForward(0);
 167              		.loc 1 69 0
 168 0066 0021     		movs	r1, #0
 169 0068 2846     		mov	r0, r5
 170 006a FFF7FEFF 		bl	_ZN15MotorController9GoForwardEi
 171              	.LVL20:
  70:RpiUartHandler.c ****             UART_1_PutString("Going left");
 172              		.loc 1 70 0
 173 006e 1448     		ldr	r0, .L13+8
 174 0070 FFF7FEFF 		bl	UART_1_PutString
 175              	.LVL21:
  71:RpiUartHandler.c ****             UART_1_PutChar(byteReceived[1]);
 176              		.loc 1 71 0
 177 0074 6078     		ldrb	r0, [r4, #1]	@ zero_extendqisi2
 178 0076 FFF7FEFF 		bl	UART_1_PutChar
 179              	.LVL22:
  72:RpiUartHandler.c ****         }
  73:RpiUartHandler.c ****         break;
 180              		.loc 1 73 0
 181 007a 38BD     		pop	{r3, r4, r5, pc}
 182              	.LVL23:
 183              	.L11:
  74:RpiUartHandler.c ****         case 'r' :
  75:RpiUartHandler.c ****         {
  76:RpiUartHandler.c ****             MotorPtr->Turn(byteReceived[1], 'r');
 184              		.loc 1 76 0
 185 007c 7222     		movs	r2, #114
 186 007e 4978     		ldrb	r1, [r1, #1]	@ zero_extendqisi2
 187              	.LVL24:
 188 0080 2846     		mov	r0, r5
 189              	.LVL25:
 190 0082 FFF7FEFF 		bl	_ZN15MotorController4TurnEic
 191              	.LVL26:
  77:RpiUartHandler.c ****             CyDelay(500);
 192              		.loc 1 77 0
 193 0086 4FF4FA70 		mov	r0, #500
 194 008a FFF7FEFF 		bl	CyDelay
 195              	.LVL27:
  78:RpiUartHandler.c ****             MotorPtr->GoForward(0);
 196              		.loc 1 78 0
 197 008e 0021     		movs	r1, #0
 198 0090 2846     		mov	r0, r5
 199 0092 FFF7FEFF 		bl	_ZN15MotorController9GoForwardEi
 200              	.LVL28:
  79:RpiUartHandler.c ****             UART_1_PutString("Going right");
 201              		.loc 1 79 0
 202 0096 0B48     		ldr	r0, .L13+12
 203 0098 FFF7FEFF 		bl	UART_1_PutString
 204              	.LVL29:
  80:RpiUartHandler.c ****             UART_1_PutChar(byteReceived[1]);
 205              		.loc 1 80 0
ARM GAS  C:\Users\jespe\AppData\Local\Temp\ccmtfbcw.s 			page 6


 206 009c 6078     		ldrb	r0, [r4, #1]	@ zero_extendqisi2
 207 009e FFF7FEFF 		bl	UART_1_PutChar
 208              	.LVL30:
  81:RpiUartHandler.c ****         }
  82:RpiUartHandler.c ****         break;
 209              		.loc 1 82 0
 210 00a2 38BD     		pop	{r3, r4, r5, pc}
 211              	.LVL31:
 212              	.L8:
  83:RpiUartHandler.c ****         case 'i' :
  84:RpiUartHandler.c ****         {
  85:RpiUartHandler.c ****             i++;
 213              		.loc 1 85 0
 214 00a4 084A     		ldr	r2, .L13+16
 215 00a6 1368     		ldr	r3, [r2]
 216 00a8 0133     		adds	r3, r3, #1
 217 00aa 1360     		str	r3, [r2]
  86:RpiUartHandler.c ****         }
  87:RpiUartHandler.c ****         break;
 218              		.loc 1 87 0
 219 00ac 38BD     		pop	{r3, r4, r5, pc}
 220              	.LVL32:
 221              	.L9:
  88:RpiUartHandler.c ****         case 'k' :
  89:RpiUartHandler.c ****         {
  90:RpiUartHandler.c ****             i--;
 222              		.loc 1 90 0
 223 00ae 064A     		ldr	r2, .L13+16
 224 00b0 1368     		ldr	r3, [r2]
 225 00b2 013B     		subs	r3, r3, #1
 226 00b4 1360     		str	r3, [r2]
 227              	.LVL33:
 228              	.L3:
 229 00b6 38BD     		pop	{r3, r4, r5, pc}
 230              	.LVL34:
 231              	.L14:
 232              		.align	2
 233              	.L13:
 234 00b8 00000000 		.word	.LC0
 235 00bc 14000000 		.word	.LC1
 236 00c0 24000000 		.word	.LC2
 237 00c4 30000000 		.word	.LC3
 238 00c8 00000000 		.word	i
 239              		.cfi_endproc
 240              	.LFE70:
 241              		.size	_ZN14RpiUartHandler18handleByteReceivedEPhP15MotorController, .-_ZN14RpiUartHandler18handleB
 242              		.section	.text._ZN14RpiUartHandler12UARTreaddataEP15MotorController,"ax",%progbits
 243              		.align	2
 244              		.global	_ZN14RpiUartHandler12UARTreaddataEP15MotorController
 245              		.thumb
 246              		.thumb_func
 247              		.type	_ZN14RpiUartHandler12UARTreaddataEP15MotorController, %function
 248              	_ZN14RpiUartHandler12UARTreaddataEP15MotorController:
 249              	.LFB69:
  30:RpiUartHandler.c ****     uint8_t DataLen = UART_1_GetRxBufferSize();
 250              		.loc 1 30 0
 251              		.cfi_startproc
ARM GAS  C:\Users\jespe\AppData\Local\Temp\ccmtfbcw.s 			page 7


 252              		@ args = 0, pretend = 0, frame = 0
 253              		@ frame_needed = 1, uses_anonymous_args = 0
 254              	.LVL35:
 255 0000 2DE9F047 		push	{r4, r5, r6, r7, r8, r9, r10, lr}
 256              		.cfi_def_cfa_offset 32
 257              		.cfi_offset 4, -32
 258              		.cfi_offset 5, -28
 259              		.cfi_offset 6, -24
 260              		.cfi_offset 7, -20
 261              		.cfi_offset 8, -16
 262              		.cfi_offset 9, -12
 263              		.cfi_offset 10, -8
 264              		.cfi_offset 14, -4
 265 0004 00AF     		add	r7, sp, #0
 266              		.cfi_def_cfa_register 7
 267 0006 8046     		mov	r8, r0
 268 0008 8946     		mov	r9, r1
  31:RpiUartHandler.c ****      
 269              		.loc 1 31 0
 270 000a FFF7FEFF 		bl	UART_1_GetRxBufferSize
 271              	.LVL36:
 272              	.LBB3:
  33:RpiUartHandler.c ****     {
 273              		.loc 1 33 0
 274 000e 0128     		cmp	r0, #1
 275 0010 16D9     		bls	.L15
 276 0012 0546     		mov	r5, r0
 277              	.LBB4:
  40:RpiUartHandler.c ****     }
 278              		.loc 1 40 0
 279 0014 EA46     		mov	r10, sp
 280              	.LVL37:
  35:RpiUartHandler.c ****         for (uint8_t i = 0; i < DataLen; i++)         
 281              		.loc 1 35 0
 282 0016 C31D     		adds	r3, r0, #7
 283 0018 23F00703 		bic	r3, r3, #7
 284 001c ADEB030D 		sub	sp, sp, r3
 285 0020 6E46     		mov	r6, sp
 286              	.LVL38:
 287              	.LBB5:
  36:RpiUartHandler.c ****         {
 288              		.loc 1 36 0
 289 0022 0024     		movs	r4, #0
 290              	.LVL39:
 291              	.L18:
  36:RpiUartHandler.c ****         {
 292              		.loc 1 36 0 is_stmt 0 discriminator 3
 293 0024 AC42     		cmp	r4, r5
 294 0026 05D2     		bcs	.L17
  38:RpiUartHandler.c ****         }
 295              		.loc 1 38 0 is_stmt 1 discriminator 2
 296 0028 FFF7FEFF 		bl	UART_1_ReadRxData
 297              	.LVL40:
 298 002c 3055     		strb	r0, [r6, r4]
  36:RpiUartHandler.c ****         {
 299              		.loc 1 36 0 discriminator 2
 300 002e 0134     		adds	r4, r4, #1
ARM GAS  C:\Users\jespe\AppData\Local\Temp\ccmtfbcw.s 			page 8


 301              	.LVL41:
 302 0030 E4B2     		uxtb	r4, r4
 303              	.LVL42:
 304 0032 F7E7     		b	.L18
 305              	.L17:
 306              	.LBE5:
  40:RpiUartHandler.c ****     }
 307              		.loc 1 40 0
 308 0034 4A46     		mov	r2, r9
 309 0036 3146     		mov	r1, r6
 310 0038 4046     		mov	r0, r8
 311 003a FFF7FEFF 		bl	_ZN14RpiUartHandler18handleByteReceivedEPhP15MotorController
 312              	.LVL43:
 313 003e D546     		mov	sp, r10
 314              	.LVL44:
 315              	.L15:
 316              	.LBE4:
 317              	.LBE3:
  42:RpiUartHandler.c **** 
 318              		.loc 1 42 0
 319 0040 BD46     		mov	sp, r7
 320              		.cfi_def_cfa_register 13
 321              		@ sp needed
 322 0042 BDE8F087 		pop	{r4, r5, r6, r7, r8, r9, r10, pc}
 323              		.cfi_endproc
 324              	.LFE69:
 325              		.size	_ZN14RpiUartHandler12UARTreaddataEP15MotorController, .-_ZN14RpiUartHandler12UARTreaddataEP1
 326 0046 00BF     		.section	.rodata.str1.4,"aMS",%progbits,1
 327              		.align	2
 328              	.LC0:
 329 0000 20476F69 		.ascii	" Going forward    \000"
 329      6E672066 
 329      6F727761 
 329      72642020 
 329      202000
 330 0013 00       		.space	1
 331              	.LC1:
 332 0014 476F696E 		.ascii	"Going backward\000"
 332      67206261 
 332      636B7761 
 332      726400
 333 0023 00       		.space	1
 334              	.LC2:
 335 0024 476F696E 		.ascii	"Going left\000"
 335      67206C65 
 335      667400
 336 002f 00       		.space	1
 337              	.LC3:
 338 0030 476F696E 		.ascii	"Going right\000"
 338      67207269 
 338      67687400 
 339              		.text
 340              	.Letext0:
 341              		.file 2 "c:\\program files (x86)\\cypress\\psoc creator\\4.2\\psoc creator\\import\\gnu\\arm\\5.4.
 342              		.file 3 "c:\\program files (x86)\\cypress\\psoc creator\\4.2\\psoc creator\\import\\gnu\\arm\\5.4.
 343              		.file 4 "MotorController.h"
 344              		.file 5 "RpiUartHandler.h"
ARM GAS  C:\Users\jespe\AppData\Local\Temp\ccmtfbcw.s 			page 9


 345              		.file 6 "Generated_Source\\PSoC5/UART_1.h"
 346              		.file 7 "Generated_Source\\PSoC5/CyLib.h"
 347              		.file 8 "Generated_Source\\PSoC5/core_cm3.h"