ARM GAS  C:\Users\jespe\AppData\Local\Temp\ccFOMA5S.s 			page 1


   1              		.syntax unified
   2              		.cpu cortex-m3
   3              		.fpu softvfp
   4              		.eabi_attribute 20, 1
   5              		.eabi_attribute 21, 1
   6              		.eabi_attribute 23, 3
   7              		.eabi_attribute 24, 1
   8              		.eabi_attribute 25, 1
   9              		.eabi_attribute 26, 1
  10              		.eabi_attribute 30, 1
  11              		.eabi_attribute 34, 1
  12              		.eabi_attribute 18, 4
  13              		.thumb
  14              		.syntax unified
  15              		.file	"Switches.c"
  16              		.text
  17              	.Ltext0:
  18              		.cfi_sections	.debug_frame
  19              		.section	.text._ZN8SwitchesC2Ev,"ax",%progbits
  20              		.align	2
  21              		.global	_ZN8SwitchesC2Ev
  22              		.thumb
  23              		.thumb_func
  24              		.type	_ZN8SwitchesC2Ev, %function
  25              	_ZN8SwitchesC2Ev:
  26              	.LFB64:
  27              		.file 1 "Switches.c"
   1:Switches.c    **** /* ========================================
   2:Switches.c    ****  *
   3:Switches.c    ****  * Copyright YOUR COMPANY, THE YEAR
   4:Switches.c    ****  * All Rights Reserved
   5:Switches.c    ****  * UNPUBLISHED, LICENSED SOFTWARE.
   6:Switches.c    ****  *
   7:Switches.c    ****  * CONFIDENTIAL AND PROPRIETARY INFORMATION
   8:Switches.c    ****  * WHICH IS THE PROPERTY OF your company.
   9:Switches.c    ****  *
  10:Switches.c    ****  * ========================================
  11:Switches.c    **** */
  12:Switches.c    **** 
  13:Switches.c    **** /* [] END OF FILE */
  14:Switches.c    **** 
  15:Switches.c    **** #include "Switches.h"
  16:Switches.c    **** 
  17:Switches.c    **** Switches::Switches()
  28              		.loc 1 17 0
  29              		.cfi_startproc
  30              		@ args = 0, pretend = 0, frame = 0
  31              		@ frame_needed = 0, uses_anonymous_args = 0
  32              		@ link register save eliminated.
  33              	.LVL0:
  34              	.LBB2:
  35              		.loc 1 17 0
  36 0000 0022     		movs	r2, #0
  37 0002 0270     		strb	r2, [r0]
  38 0004 4270     		strb	r2, [r0, #1]
  39              	.LBE2:
  18:Switches.c    **** {
ARM GAS  C:\Users\jespe\AppData\Local\Temp\ccFOMA5S.s 			page 2


  19:Switches.c    **** }
  40              		.loc 1 19 0
  41 0006 7047     		bx	lr
  42              		.cfi_endproc
  43              	.LFE64:
  44              		.size	_ZN8SwitchesC2Ev, .-_ZN8SwitchesC2Ev
  45              		.global	_ZN8SwitchesC1Ev
  46              		.thumb_set _ZN8SwitchesC1Ev,_ZN8SwitchesC2Ev
  47              		.section	.text._ZN8SwitchesD2Ev,"ax",%progbits
  48              		.align	2
  49              		.global	_ZN8SwitchesD2Ev
  50              		.thumb
  51              		.thumb_func
  52              		.type	_ZN8SwitchesD2Ev, %function
  53              	_ZN8SwitchesD2Ev:
  54              	.LFB67:
  20:Switches.c    **** 
  21:Switches.c    **** Switches::~Switches()
  55              		.loc 1 21 0
  56              		.cfi_startproc
  57              		@ args = 0, pretend = 0, frame = 0
  58              		@ frame_needed = 0, uses_anonymous_args = 0
  59              		@ link register save eliminated.
  60              	.LVL1:
  22:Switches.c    **** {
  23:Switches.c    **** }
  61              		.loc 1 23 0
  62 0000 7047     		bx	lr
  63              		.cfi_endproc
  64              	.LFE67:
  65              		.size	_ZN8SwitchesD2Ev, .-_ZN8SwitchesD2Ev
  66              		.global	_ZN8SwitchesD1Ev
  67              		.thumb_set _ZN8SwitchesD1Ev,_ZN8SwitchesD2Ev
  68 0002 00BF     		.section	.text._ZNK8Switches15getSwitchStatusEc,"ax",%progbits
  69              		.align	2
  70              		.global	_ZNK8Switches15getSwitchStatusEc
  71              		.thumb
  72              		.thumb_func
  73              		.type	_ZNK8Switches15getSwitchStatusEc, %function
  74              	_ZNK8Switches15getSwitchStatusEc:
  75              	.LFB69:
  24:Switches.c    **** 
  25:Switches.c    **** bool Switches::getSwitchStatus(char button) const
  26:Switches.c    **** {
  76              		.loc 1 26 0
  77              		.cfi_startproc
  78              		@ args = 0, pretend = 0, frame = 0
  79              		@ frame_needed = 0, uses_anonymous_args = 0
  80              		@ link register save eliminated.
  81              	.LVL2:
  27:Switches.c    ****     if (button == 'P')
  82              		.loc 1 27 0
  83 0000 5029     		cmp	r1, #80
  84 0002 01D1     		bne	.L4
  28:Switches.c    ****     {
  29:Switches.c    ****          return PowerSwitch;
  85              		.loc 1 29 0
ARM GAS  C:\Users\jespe\AppData\Local\Temp\ccFOMA5S.s 			page 3


  86 0004 0078     		ldrb	r0, [r0]	@ zero_extendqisi2
  87              	.LVL3:
  88 0006 7047     		bx	lr
  89              	.LVL4:
  90              	.L4:
  30:Switches.c    ****     }
  31:Switches.c    ****     else if (button == 'F')
  91              		.loc 1 31 0
  92 0008 4629     		cmp	r1, #70
  93 000a 01D1     		bne	.L6
  32:Switches.c    ****     {
  33:Switches.c    ****         return FollowSwitch;
  94              		.loc 1 33 0
  95 000c 4078     		ldrb	r0, [r0, #1]	@ zero_extendqisi2
  96              	.LVL5:
  97 000e 7047     		bx	lr
  98              	.LVL6:
  99              	.L6:
  34:Switches.c    ****     }
  35:Switches.c    ****     return false;
 100              		.loc 1 35 0
 101 0010 0020     		movs	r0, #0
 102              	.LVL7:
  36:Switches.c    **** }
 103              		.loc 1 36 0
 104 0012 7047     		bx	lr
 105              		.cfi_endproc
 106              	.LFE69:
 107              		.size	_ZNK8Switches15getSwitchStatusEc, .-_ZNK8Switches15getSwitchStatusEc
 108              		.section	.text._ZN8Switches15setSwitchStatusEc,"ax",%progbits
 109              		.align	2
 110              		.global	_ZN8Switches15setSwitchStatusEc
 111              		.thumb
 112              		.thumb_func
 113              		.type	_ZN8Switches15setSwitchStatusEc, %function
 114              	_ZN8Switches15setSwitchStatusEc:
 115              	.LFB70:
  37:Switches.c    **** 
  38:Switches.c    **** void Switches::setSwitchStatus(char button)
  39:Switches.c    **** {
 116              		.loc 1 39 0
 117              		.cfi_startproc
 118              		@ args = 0, pretend = 0, frame = 0
 119              		@ frame_needed = 0, uses_anonymous_args = 0
 120              		@ link register save eliminated.
 121              	.LVL8:
  40:Switches.c    ****     if (button == 'P')
 122              		.loc 1 40 0
 123 0000 5029     		cmp	r1, #80
 124 0002 07D1     		bne	.L8
  41:Switches.c    ****     {
  42:Switches.c    ****          if (PowerSwitch == true)
 125              		.loc 1 42 0
 126 0004 0378     		ldrb	r3, [r0]	@ zero_extendqisi2
 127 0006 13B1     		cbz	r3, .L9
  43:Switches.c    ****         {
  44:Switches.c    ****            PowerSwitch = false;  
ARM GAS  C:\Users\jespe\AppData\Local\Temp\ccFOMA5S.s 			page 4


 128              		.loc 1 44 0
 129 0008 0023     		movs	r3, #0
 130 000a 0370     		strb	r3, [r0]
 131 000c 7047     		bx	lr
 132              	.L9:
  45:Switches.c    ****         }
  46:Switches.c    ****         else
  47:Switches.c    ****          PowerSwitch = true;
 133              		.loc 1 47 0
 134 000e 0123     		movs	r3, #1
 135 0010 0370     		strb	r3, [r0]
 136 0012 7047     		bx	lr
 137              	.L8:
  48:Switches.c    ****     }
  49:Switches.c    ****     else if (button == 'F')
 138              		.loc 1 49 0
 139 0014 4629     		cmp	r1, #70
 140 0016 06D1     		bne	.L7
  50:Switches.c    ****     {
  51:Switches.c    ****         if (FollowSwitch == true)
 141              		.loc 1 51 0
 142 0018 4378     		ldrb	r3, [r0, #1]	@ zero_extendqisi2
 143 001a 13B1     		cbz	r3, .L11
  52:Switches.c    ****         {
  53:Switches.c    ****              FollowSwitch = false;
 144              		.loc 1 53 0
 145 001c 0023     		movs	r3, #0
 146 001e 4370     		strb	r3, [r0, #1]
 147 0020 7047     		bx	lr
 148              	.L11:
  54:Switches.c    ****         }
  55:Switches.c    ****         else
  56:Switches.c    ****         FollowSwitch = true;
 149              		.loc 1 56 0
 150 0022 0123     		movs	r3, #1
 151 0024 4370     		strb	r3, [r0, #1]
 152              	.L7:
 153 0026 7047     		bx	lr
 154              		.cfi_endproc
 155              	.LFE70:
 156              		.size	_ZN8Switches15setSwitchStatusEc, .-_ZN8Switches15setSwitchStatusEc
 157              		.text
 158              	.Letext0:
 159              		.file 2 "c:\\program files (x86)\\cypress\\psoc creator\\4.2\\psoc creator\\import\\gnu\\arm\\5.4.
 160              		.file 3 "c:\\program files (x86)\\cypress\\psoc creator\\4.2\\psoc creator\\import\\gnu\\arm\\5.4.
 161              		.file 4 "Switches.h"
 162              		.file 5 "Generated_Source\\PSoC5/core_cm3.h"