ARM GAS  C:\Users\jespe\AppData\Local\Temp\ccECaMkc.s 			page 1


   1              		.syntax unified
   2              		.cpu cortex-m3
   3              		.fpu softvfp
   4              		.eabi_attribute 20, 1
   5              		.eabi_attribute 21, 1
   6              		.eabi_attribute 23, 3
   7              		.eabi_attribute 24, 1
   8              		.eabi_attribute 25, 1
   9              		.eabi_attribute 26, 1
  10              		.eabi_attribute 30, 1
  11              		.eabi_attribute 34, 1
  12              		.eabi_attribute 18, 4
  13              		.thumb
  14              		.syntax unified
  15              		.file	"ToF.c"
  16              		.text
  17              	.Ltext0:
  18              		.cfi_sections	.debug_frame
  19              		.section	.text._ZN3ToFC2Ev,"ax",%progbits
  20              		.align	2
  21              		.global	_ZN3ToFC2Ev
  22              		.thumb
  23              		.thumb_func
  24              		.type	_ZN3ToFC2Ev, %function
  25              	_ZN3ToFC2Ev:
  26              	.LFB65:
  27              		.file 1 "ToF.c"
   1:ToF.c         **** /* ========================================
   2:ToF.c         ****  *
   3:ToF.c         ****  * Copyright YOUR COMPANY, THE YEAR
   4:ToF.c         ****  * All Rights Reserved
   5:ToF.c         ****  * UNPUBLISHED, LICENSED SOFTWARE.
   6:ToF.c         ****  *
   7:ToF.c         ****  * CONFIDENTIAL AND PROPRIETARY INFORMATION
   8:ToF.c         ****  * WHICH IS THE PROPERTY OF your company.
   9:ToF.c         ****  *
  10:ToF.c         ****  * ========================================
  11:ToF.c         **** */
  12:ToF.c         **** #include "ToF.h"
  13:ToF.c         **** 
  14:ToF.c         **** ToF::ToF(){}
  28              		.loc 1 14 0
  29              		.cfi_startproc
  30              		@ args = 0, pretend = 0, frame = 0
  31              		@ frame_needed = 0, uses_anonymous_args = 0
  32              		@ link register save eliminated.
  33              	.LVL0:
  34              	.LBB2:
  35              		.loc 1 14 0
  36 0000 0022     		movs	r2, #0
  37 0002 80F83820 		strb	r2, [r0, #56]
  38              	.LBE2:
  39 0006 7047     		bx	lr
  40              		.cfi_endproc
  41              	.LFE65:
  42              		.size	_ZN3ToFC2Ev, .-_ZN3ToFC2Ev
  43              		.global	_ZN3ToFC1Ev
ARM GAS  C:\Users\jespe\AppData\Local\Temp\ccECaMkc.s 			page 2


  44              		.thumb_set _ZN3ToFC1Ev,_ZN3ToFC2Ev
  45              		.section	.text._ZN3ToF14setRightSensorEt,"ax",%progbits
  46              		.align	2
  47              		.global	_ZN3ToF14setRightSensorEt
  48              		.thumb
  49              		.thumb_func
  50              		.type	_ZN3ToF14setRightSensorEt, %function
  51              	_ZN3ToF14setRightSensorEt:
  52              	.LFB67:
  15:ToF.c         **** /*
  16:ToF.c         **** void ToF::start(){  
  17:ToF.c         ****     // Init
  18:ToF.c         ****     SPIS_Start();
  19:ToF.c         ****     
  20:ToF.c         ****     UART_1_Start();
  21:ToF.c         ****     UART_1_PutString("Terminal vindue er connected\n\r");
  22:ToF.c         **** }
  23:ToF.c         **** 
  24:ToF.c         **** void ToF::stop(){     
  25:ToF.c         ****     // Init
  26:ToF.c         ****     SPIS_Stop();
  27:ToF.c         ****     UART_1_PutString("Terminal vindue er disconnected\n\r");
  28:ToF.c         ****     UART_1_Stop();
  29:ToF.c         **** }
  30:ToF.c         **** */
  31:ToF.c         **** 
  32:ToF.c         **** void ToF::setRightSensor(uint16_t value)
  33:ToF.c         **** {
  53              		.loc 1 33 0
  54              		.cfi_startproc
  55              		@ args = 0, pretend = 0, frame = 0
  56              		@ frame_needed = 0, uses_anonymous_args = 0
  57              		@ link register save eliminated.
  58              	.LVL1:
  34:ToF.c         ****     sensorRight = value;
  59              		.loc 1 34 0
  60 0000 4180     		strh	r1, [r0, #2]	@ movhi
  61 0002 7047     		bx	lr
  62              		.cfi_endproc
  63              	.LFE67:
  64              		.size	_ZN3ToF14setRightSensorEt, .-_ZN3ToF14setRightSensorEt
  65              		.section	.text._ZN3ToF12setMidSensorEt,"ax",%progbits
  66              		.align	2
  67              		.global	_ZN3ToF12setMidSensorEt
  68              		.thumb
  69              		.thumb_func
  70              		.type	_ZN3ToF12setMidSensorEt, %function
  71              	_ZN3ToF12setMidSensorEt:
  72              	.LFB68:
  35:ToF.c         **** }
  36:ToF.c         **** 
  37:ToF.c         **** void ToF::setMidSensor(uint16_t value)
  38:ToF.c         **** {
  73              		.loc 1 38 0
  74              		.cfi_startproc
  75              		@ args = 0, pretend = 0, frame = 0
  76              		@ frame_needed = 0, uses_anonymous_args = 0
ARM GAS  C:\Users\jespe\AppData\Local\Temp\ccECaMkc.s 			page 3


  77              		@ link register save eliminated.
  78              	.LVL2:
  39:ToF.c         ****     sensorMid = value;
  79              		.loc 1 39 0
  80 0000 8180     		strh	r1, [r0, #4]	@ movhi
  81 0002 7047     		bx	lr
  82              		.cfi_endproc
  83              	.LFE68:
  84              		.size	_ZN3ToF12setMidSensorEt, .-_ZN3ToF12setMidSensorEt
  85              		.section	.text._ZN3ToF13setLeftSensorEt,"ax",%progbits
  86              		.align	2
  87              		.global	_ZN3ToF13setLeftSensorEt
  88              		.thumb
  89              		.thumb_func
  90              		.type	_ZN3ToF13setLeftSensorEt, %function
  91              	_ZN3ToF13setLeftSensorEt:
  92              	.LFB69:
  40:ToF.c         **** }
  41:ToF.c         **** 
  42:ToF.c         **** void ToF::setLeftSensor(uint16_t value)
  43:ToF.c         **** {
  93              		.loc 1 43 0
  94              		.cfi_startproc
  95              		@ args = 0, pretend = 0, frame = 0
  96              		@ frame_needed = 0, uses_anonymous_args = 0
  97              		@ link register save eliminated.
  98              	.LVL3:
  44:ToF.c         ****     sensorLeft = value;
  99              		.loc 1 44 0
 100 0000 0180     		strh	r1, [r0]	@ movhi
 101 0002 7047     		bx	lr
 102              		.cfi_endproc
 103              	.LFE69:
 104              		.size	_ZN3ToF13setLeftSensorEt, .-_ZN3ToF13setLeftSensorEt
 105              		.section	.text._ZNK3ToF14getRightSensorEv,"ax",%progbits
 106              		.align	2
 107              		.global	_ZNK3ToF14getRightSensorEv
 108              		.thumb
 109              		.thumb_func
 110              		.type	_ZNK3ToF14getRightSensorEv, %function
 111              	_ZNK3ToF14getRightSensorEv:
 112              	.LFB70:
  45:ToF.c         **** }
  46:ToF.c         **** 
  47:ToF.c         **** uint16_t ToF::getRightSensor(void) const
  48:ToF.c         **** {
 113              		.loc 1 48 0
 114              		.cfi_startproc
 115              		@ args = 0, pretend = 0, frame = 0
 116              		@ frame_needed = 0, uses_anonymous_args = 0
 117              		@ link register save eliminated.
 118              	.LVL4:
  49:ToF.c         ****     return sensorRight;
  50:ToF.c         **** }
 119              		.loc 1 50 0
 120 0000 4088     		ldrh	r0, [r0, #2]
 121              	.LVL5:
ARM GAS  C:\Users\jespe\AppData\Local\Temp\ccECaMkc.s 			page 4


 122 0002 7047     		bx	lr
 123              		.cfi_endproc
 124              	.LFE70:
 125              		.size	_ZNK3ToF14getRightSensorEv, .-_ZNK3ToF14getRightSensorEv
 126              		.section	.text._ZNK3ToF12getMidSensorEv,"ax",%progbits
 127              		.align	2
 128              		.global	_ZNK3ToF12getMidSensorEv
 129              		.thumb
 130              		.thumb_func
 131              		.type	_ZNK3ToF12getMidSensorEv, %function
 132              	_ZNK3ToF12getMidSensorEv:
 133              	.LFB71:
  51:ToF.c         **** 
  52:ToF.c         **** uint16_t ToF::getMidSensor(void) const
  53:ToF.c         **** {
 134              		.loc 1 53 0
 135              		.cfi_startproc
 136              		@ args = 0, pretend = 0, frame = 0
 137              		@ frame_needed = 0, uses_anonymous_args = 0
 138              		@ link register save eliminated.
 139              	.LVL6:
  54:ToF.c         ****     return sensorMid;
  55:ToF.c         **** }
 140              		.loc 1 55 0
 141 0000 8088     		ldrh	r0, [r0, #4]
 142              	.LVL7:
 143 0002 7047     		bx	lr
 144              		.cfi_endproc
 145              	.LFE71:
 146              		.size	_ZNK3ToF12getMidSensorEv, .-_ZNK3ToF12getMidSensorEv
 147              		.section	.text._ZNK3ToF13getLeftSensorEv,"ax",%progbits
 148              		.align	2
 149              		.global	_ZNK3ToF13getLeftSensorEv
 150              		.thumb
 151              		.thumb_func
 152              		.type	_ZNK3ToF13getLeftSensorEv, %function
 153              	_ZNK3ToF13getLeftSensorEv:
 154              	.LFB72:
  56:ToF.c         **** 
  57:ToF.c         **** uint16_t ToF::getLeftSensor(void) const
  58:ToF.c         **** {
 155              		.loc 1 58 0
 156              		.cfi_startproc
 157              		@ args = 0, pretend = 0, frame = 0
 158              		@ frame_needed = 0, uses_anonymous_args = 0
 159              		@ link register save eliminated.
 160              	.LVL8:
  59:ToF.c         ****     return sensorLeft;
  60:ToF.c         **** }
 161              		.loc 1 60 0
 162 0000 0088     		ldrh	r0, [r0]
 163              	.LVL9:
 164 0002 7047     		bx	lr
 165              		.cfi_endproc
 166              	.LFE72:
 167              		.size	_ZNK3ToF13getLeftSensorEv, .-_ZNK3ToF13getLeftSensorEv
 168              		.section	.text._ZNK3ToF10getCounterEv,"ax",%progbits
ARM GAS  C:\Users\jespe\AppData\Local\Temp\ccECaMkc.s 			page 5


 169              		.align	2
 170              		.global	_ZNK3ToF10getCounterEv
 171              		.thumb
 172              		.thumb_func
 173              		.type	_ZNK3ToF10getCounterEv, %function
 174              	_ZNK3ToF10getCounterEv:
 175              	.LFB73:
  61:ToF.c         **** 
  62:ToF.c         **** uint8_t ToF::getCounter(void) const
  63:ToF.c         **** {
 176              		.loc 1 63 0
 177              		.cfi_startproc
 178              		@ args = 0, pretend = 0, frame = 0
 179              		@ frame_needed = 0, uses_anonymous_args = 0
 180              		@ link register save eliminated.
 181              	.LVL10:
  64:ToF.c         ****     return counter_;
  65:ToF.c         **** }
 182              		.loc 1 65 0
 183 0000 90F83800 		ldrb	r0, [r0, #56]	@ zero_extendqisi2
 184              	.LVL11:
 185 0004 7047     		bx	lr
 186              		.cfi_endproc
 187              	.LFE73:
 188              		.size	_ZNK3ToF10getCounterEv, .-_ZNK3ToF10getCounterEv
 189 0006 00BF     		.section	.text._ZN3ToF10setCounterEh,"ax",%progbits
 190              		.align	2
 191              		.global	_ZN3ToF10setCounterEh
 192              		.thumb
 193              		.thumb_func
 194              		.type	_ZN3ToF10setCounterEh, %function
 195              	_ZN3ToF10setCounterEh:
 196              	.LFB74:
  66:ToF.c         **** void ToF::setCounter(uint8_t value)
  67:ToF.c         **** {
 197              		.loc 1 67 0
 198              		.cfi_startproc
 199              		@ args = 0, pretend = 0, frame = 0
 200              		@ frame_needed = 0, uses_anonymous_args = 0
 201              		@ link register save eliminated.
 202              	.LVL12:
  68:ToF.c         ****     counter_ = value;
 203              		.loc 1 68 0
 204 0000 80F83810 		strb	r1, [r0, #56]
 205 0004 7047     		bx	lr
 206              		.cfi_endproc
 207              	.LFE74:
 208              		.size	_ZN3ToF10setCounterEh, .-_ZN3ToF10setCounterEh
 209 0006 00BF     		.section	.text._ZN3ToF10handleByteEt,"ax",%progbits
 210              		.align	2
 211              		.global	_ZN3ToF10handleByteEt
 212              		.thumb
 213              		.thumb_func
 214              		.type	_ZN3ToF10handleByteEt, %function
 215              	_ZN3ToF10handleByteEt:
 216              	.LFB75:
  69:ToF.c         **** }
ARM GAS  C:\Users\jespe\AppData\Local\Temp\ccECaMkc.s 			page 6


  70:ToF.c         **** 
  71:ToF.c         **** void ToF::handleByte(uint16_t byte){
 217              		.loc 1 71 0
 218              		.cfi_startproc
 219              		@ args = 0, pretend = 0, frame = 56
 220              		@ frame_needed = 0, uses_anonymous_args = 0
 221              	.LVL13:
 222 0000 30B5     		push	{r4, r5, lr}
 223              		.cfi_def_cfa_offset 12
 224              		.cfi_offset 4, -12
 225              		.cfi_offset 5, -8
 226              		.cfi_offset 14, -4
 227 0002 8FB0     		sub	sp, sp, #60
 228              		.cfi_def_cfa_offset 72
 229 0004 0446     		mov	r4, r0
  72:ToF.c         ****   
  73:ToF.c         ****     if (byte == 0)
 230              		.loc 1 73 0
 231 0006 19B9     		cbnz	r1, .L11
  74:ToF.c         ****     {
  75:ToF.c         ****         setCounter(1);
 232              		.loc 1 75 0
 233 0008 0121     		movs	r1, #1
 234              	.LVL14:
 235 000a FFF7FEFF 		bl	_ZN3ToF10setCounterEh
 236              	.LVL15:
 237 000e 34E0     		b	.L10
 238              	.LVL16:
 239              	.L11:
 240 0010 0D46     		mov	r5, r1
  76:ToF.c         ****         return;
  77:ToF.c         ****     }
  78:ToF.c         ****     char string[50];
  79:ToF.c         ****     switch (counter_)
 241              		.loc 1 79 0
 242 0012 90F83830 		ldrb	r3, [r0, #56]	@ zero_extendqisi2
 243 0016 022B     		cmp	r3, #2
 244 0018 12D0     		beq	.L14
 245 001a 032B     		cmp	r3, #3
 246 001c 1FD0     		beq	.L15
 247 001e 012B     		cmp	r3, #1
 248 0020 2BD1     		bne	.L10
  80:ToF.c         ****     {       
  81:ToF.c         ****         case 1:
  82:ToF.c         ****         setRightSensor(byte);
 249              		.loc 1 82 0
 250 0022 FFF7FEFF 		bl	_ZN3ToF14setRightSensorEt
 251              	.LVL17:
  83:ToF.c         ****         setCounter(2);
 252              		.loc 1 83 0
 253 0026 0221     		movs	r1, #2
 254 0028 2046     		mov	r0, r4
 255 002a FFF7FEFF 		bl	_ZN3ToF10setCounterEh
 256              	.LVL18:
  84:ToF.c         ****         
  85:ToF.c         ****         sprintf(string, "Sensor right is: %d \n\r", byte);
 257              		.loc 1 85 0
ARM GAS  C:\Users\jespe\AppData\Local\Temp\ccECaMkc.s 			page 7


 258 002e 2A46     		mov	r2, r5
 259 0030 1349     		ldr	r1, .L18
 260 0032 01A8     		add	r0, sp, #4
 261 0034 FFF7FEFF 		bl	sprintf
 262              	.LVL19:
  86:ToF.c         ****         UART_1_PutString(string);
 263              		.loc 1 86 0
 264 0038 01A8     		add	r0, sp, #4
 265 003a FFF7FEFF 		bl	UART_1_PutString
 266              	.LVL20:
  87:ToF.c         ****         break;
 267              		.loc 1 87 0
 268 003e 1CE0     		b	.L10
 269              	.LVL21:
 270              	.L14:
  88:ToF.c         ****         
  89:ToF.c         ****         case 2:
  90:ToF.c         ****         setMidSensor(byte);
 271              		.loc 1 90 0
 272 0040 FFF7FEFF 		bl	_ZN3ToF12setMidSensorEt
 273              	.LVL22:
  91:ToF.c         ****         setCounter(3);
 274              		.loc 1 91 0
 275 0044 0321     		movs	r1, #3
 276 0046 2046     		mov	r0, r4
 277 0048 FFF7FEFF 		bl	_ZN3ToF10setCounterEh
 278              	.LVL23:
  92:ToF.c         ****       
  93:ToF.c         ****         sprintf(string, "Sensor middle is: %d \n\r", byte);
 279              		.loc 1 93 0
 280 004c 2A46     		mov	r2, r5
 281 004e 0D49     		ldr	r1, .L18+4
 282 0050 01A8     		add	r0, sp, #4
 283 0052 FFF7FEFF 		bl	sprintf
 284              	.LVL24:
  94:ToF.c         ****         UART_1_PutString(string);
 285              		.loc 1 94 0
 286 0056 01A8     		add	r0, sp, #4
 287 0058 FFF7FEFF 		bl	UART_1_PutString
 288              	.LVL25:
  95:ToF.c         ****         break;
 289              		.loc 1 95 0
 290 005c 0DE0     		b	.L10
 291              	.LVL26:
 292              	.L15:
  96:ToF.c         ****         
  97:ToF.c         ****         case 3:
  98:ToF.c         ****         setLeftSensor(byte);
 293              		.loc 1 98 0
 294 005e FFF7FEFF 		bl	_ZN3ToF13setLeftSensorEt
 295              	.LVL27:
  99:ToF.c         ****         setCounter(0);
 296              		.loc 1 99 0
 297 0062 0021     		movs	r1, #0
 298 0064 2046     		mov	r0, r4
 299 0066 FFF7FEFF 		bl	_ZN3ToF10setCounterEh
 300              	.LVL28:
ARM GAS  C:\Users\jespe\AppData\Local\Temp\ccECaMkc.s 			page 8


 100:ToF.c         ****         
 101:ToF.c         ****         sprintf(string, "Sensor left is: %d \n\r", byte);
 301              		.loc 1 101 0
 302 006a 2A46     		mov	r2, r5
 303 006c 0649     		ldr	r1, .L18+8
 304 006e 01A8     		add	r0, sp, #4
 305 0070 FFF7FEFF 		bl	sprintf
 306              	.LVL29:
 102:ToF.c         ****         UART_1_PutString(string);
 307              		.loc 1 102 0
 308 0074 01A8     		add	r0, sp, #4
 309 0076 FFF7FEFF 		bl	UART_1_PutString
 310              	.LVL30:
 311              	.L10:
 103:ToF.c         ****         break;
 104:ToF.c         ****                 
 105:ToF.c         ****         default: 
 106:ToF.c         ****         //UART_1_PutString("Unknown index!\n\r");
 107:ToF.c         ****         break;
 108:ToF.c         ****     }
 109:ToF.c         **** }
 312              		.loc 1 109 0
 313 007a 0FB0     		add	sp, sp, #60
 314              		.cfi_def_cfa_offset 12
 315              		@ sp needed
 316 007c 30BD     		pop	{r4, r5, pc}
 317              	.LVL31:
 318              	.L19:
 319 007e 00BF     		.align	2
 320              	.L18:
 321 0080 00000000 		.word	.LC0
 322 0084 18000000 		.word	.LC1
 323 0088 30000000 		.word	.LC2
 324              		.cfi_endproc
 325              	.LFE75:
 326              		.size	_ZN3ToF10handleByteEt, .-_ZN3ToF10handleByteEt
 327              		.section	.rodata.str1.4,"aMS",%progbits,1
 328              		.align	2
 329              	.LC0:
 330 0000 53656E73 		.ascii	"Sensor right is: %d \012\015\000"
 330      6F722072 
 330      69676874 
 330      2069733A 
 330      20256420 
 331 0017 00       		.space	1
 332              	.LC1:
 333 0018 53656E73 		.ascii	"Sensor middle is: %d \012\015\000"
 333      6F72206D 
 333      6964646C 
 333      65206973 
 333      3A202564 
 334              	.LC2:
 335 0030 53656E73 		.ascii	"Sensor left is: %d \012\015\000"
 335      6F72206C 
 335      65667420 
 335      69733A20 
 335      2564200A 
ARM GAS  C:\Users\jespe\AppData\Local\Temp\ccECaMkc.s 			page 9


 336              		.text
 337              	.Letext0:
 338              		.file 2 "c:\\program files (x86)\\cypress\\psoc creator\\4.2\\psoc creator\\import\\gnu\\arm\\5.4.
 339              		.file 3 "c:\\program files (x86)\\cypress\\psoc creator\\4.2\\psoc creator\\import\\gnu\\arm\\5.4.
 340              		.file 4 "ToF.h"
 341              		.file 5 "c:\\program files (x86)\\cypress\\psoc creator\\4.2\\psoc creator\\import\\gnu\\arm\\5.4.
 342              		.file 6 "Generated_Source\\PSoC5/UART_1.h"
 343              		.file 7 "Generated_Source\\PSoC5/core_cm3.h"